{
   <insert_a_suppression_name_here>
   Memcheck:Leak
   match-leak-kinds: reachable
   fun:malloc
   fun:strdup
   fun:_mesa_init_program   
   fun:init_attrib_groups
   fun:_mesa_initialize_context
   fun:st_create_context
   fun:st_api_create_context
   fun:dri_create_context
   fun:driCreateContextAttribs
   fun:dri3_create_context_attribs
   fun:dri_common_create_context
   fun:CreateContext
   fun:glXCreateContext
}
{
   <insert_a_suppression_name_here>
   Memcheck:Leak
   match-leak-kinds: reachable
   fun:calloc
   fun:UnknownInlinedFun
   fun:_ZN4llvm9SparseSetIjNS_8identityIjEEhE11setUniverseEj
   fun:_ZN4llvm14SpillPlacement20runOnMachineFunctionERNS_15MachineFunctionE
   fun:_ZN4llvm19MachineFunctionPass13runOnFunctionERNS_8FunctionE
   fun:_ZN4llvm13FPPassManager13runOnFunctionERNS_8FunctionE
   fun:RunPassOnSCC
   fun:RunAllPassesOnSCC
   fun:_ZN12_GLOBAL__N_113CGPassManager11runOnModuleERN4llvm6ModuleE
   fun:runOnModule
   fun:_ZN4llvm6legacy15PassManagerImpl3runERNS_6ModuleE
   fun:ac_compile_module_to_elf
   fun:si_compile_llvm
   fun:si_get_shader_part
   fun:si_shader_select_ps_parts
   fun:si_create_shader_variant
   fun:_ZL23si_build_shader_variantP9si_shaderib
}
{
   <insert_a_suppression_name_here>
   Memcheck:Leak
   match-leak-kinds: reachable
   fun:malloc
   fun:strdup
   fun:driParseOptionInfo
   fun:driCreateNewScreen2
   fun:dri3_create_screen
   fun:AllocAndFetchScreenConfigs
   fun:__glXInitialize
   fun:GetGLXPrivScreenConfig
   fun:glXChooseVisual
   fun:_ZN3olc14Platform_Linux16CreateWindowPaneERKNS_11v2d_genericIiEERS2_b
   fun:_ZN3olc15PixelGameEngine5StartEv
   fun:main
}
{
   <insert_a_suppression_name_here>
   Memcheck:Leak
   match-leak-kinds: reachable
   fun:malloc
   fun:strdup
   fun:initOptionCache
   fun:driParseConfigFiles
   fun:driCreateNewScreen2
   fun:dri3_create_screen
   fun:AllocAndFetchScreenConfigs
   fun:__glXInitialize
   fun:GetGLXPrivScreenConfig
   fun:glXChooseVisual
   fun:_ZN3olc14Platform_Linux16CreateWindowPaneERKNS_11v2d_genericIiEERS2_b
   fun:_ZN3olc15PixelGameEngine5StartEv
   fun:main
}
{
   <insert_a_suppression_name_here>
   Memcheck:Leak
   match-leak-kinds: reachable
   fun:malloc
   fun:strdup
   fun:XOpenDisplay
   fun:_ZN3olc14Platform_Linux16CreateWindowPaneERKNS_11v2d_genericIiEERS2_b
   fun:_ZN3olc15PixelGameEngine5StartEv
   fun:main
}
{
   <insert_a_suppression_name_here>
   Memcheck:Leak
   match-leak-kinds: reachable
   fun:malloc
   fun:UnknownInlinedFun
   fun:llvm_regcomp
   fun:UnknownInlinedFun
   fun:UnknownInlinedFun
   fun:_GLOBAL__sub_I_PassBuilder.cpp
   fun:call_init
   fun:call_init
   fun:_dl_init
   fun:_dl_catch_exception
   fun:dl_open_worker
   fun:_dl_catch_exception
   fun:_dl_open
   fun:dlopen_doit
   fun:_dl_catch_exception
   fun:_dl_catch_error
}
{
   <insert_a_suppression_name_here>
   Memcheck:Leak
   match-leak-kinds: reachable
   fun:malloc
   fun:strdup
   fun:XInitExtension
   fun:__glXInitialize
   fun:GetGLXPrivScreenConfig
   fun:glXChooseVisual
   fun:_ZN3olc14Platform_Linux16CreateWindowPaneERKNS_11v2d_genericIiEERS2_b
   fun:_ZN3olc15PixelGameEngine5StartEv
   fun:main
}
{
   <insert_a_suppression_name_here>
   Memcheck:Leak
   match-leak-kinds: reachable
   fun:malloc
   fun:init_1d_map
   fun:_mesa_init_eval
   fun:init_attrib_groups
   fun:_mesa_initialize_context
   fun:st_create_context
   fun:st_api_create_context
   fun:dri_create_context
   fun:driCreateContextAttribs
   fun:dri3_create_context_attribs
   fun:dri_common_create_context
   fun:CreateContext
   fun:glXCreateContext
   fun:glXCreateContext
}
{
   <insert_a_suppression_name_here>
   Memcheck:Leak
   match-leak-kinds: reachable
   fun:malloc
   fun:init_2d_map
   fun:_mesa_init_eval
   fun:init_attrib_groups
   fun:_mesa_initialize_context
   fun:st_create_context
   fun:st_api_create_context
   fun:dri_create_context
   fun:driCreateContextAttribs
   fun:dri3_create_context_attribs
   fun:dri_common_create_context
   fun:CreateContext
   fun:glXCreateContext
   fun:glXCreateContext
}
{
   <insert_a_suppression_name_here>
   Memcheck:Leak
   match-leak-kinds: reachable
   fun:_Znwm
   fun:allocate
   fun:allocate
   fun:_M_allocate
   fun:_M_allocate_and_copy<__gnu_cxx::__normal_iterator<const std::pair<unsigned short, llvm::LegacyLegalizeActions::LegacyLegalizeAction> *, std::vector<std::pair<unsigned short, llvm::LegacyLegalizeActions::LegacyLegalizeAction>, std::allocator<std::pair<unsigned short, llvm::LegacyLegalizeActions::LegacyLegalizeAction> > > > >
   fun:_ZNSt6vectorISt4pairItN4llvm21LegacyLegalizeActions20LegacyLegalizeActionEESaIS4_EEaSERKS6_
   fun:setActions
   fun:setScalarAction
   fun:_ZN4llvm19LegacyLegalizerInfoC1Ev
   fun:UnknownInlinedFun
   fun:_ZN4llvm19AMDGPULegalizerInfoC1ERKNS_12GCNSubtargetERKNS_16GCNTargetMachineE
   fun:_ZN4llvm12GCNSubtargetC1ERKNS_6TripleENS_9StringRefES4_RKNS_16GCNTargetMachineE
   fun:make_unique<llvm::GCNSubtarget, const llvm::Triple &, llvm::StringRef &, llvm::StringRef &, const llvm::GCNTargetMachine &>
   fun:_ZNK4llvm16GCNTargetMachine16getSubtargetImplERKNS_8FunctionE
   fun:_ZN4llvm10GCNTTIImplC1EPKNS_19AMDGPUTargetMachineERKNS_8FunctionE
   fun:_ZNK4llvm16GCNTargetMachine22getTargetTransformInfoERKNS_8FunctionE
   fun:operator()
   fun:__invoke_impl<llvm::TargetTransformInfo, (lambda at /builddir/build/BUILD/llvm-15.0.7.src/lib/Target/TargetMachine.cpp:219:7) &, const llvm::Function &>
   fun:__invoke_r<llvm::TargetTransformInfo, (lambda at /builddir/build/BUILD/llvm-15.0.7.src/lib/Target/TargetMachine.cpp:219:7) &, const llvm::Function &>
   fun:_ZNSt17_Function_handlerIFN4llvm19TargetTransformInfoERKNS0_8FunctionEEZNKS0_13TargetMachine19getTargetIRAnalysisEvE3$_0E9_M_invokeERKSt9_Any_dataS4_.llvm.939216426106684745
   fun:UnknownInlinedFun
   fun:UnknownInlinedFun
   fun:UnknownInlinedFun
   fun:_ZN4llvm22AssumptionCacheTracker18getAssumptionCacheERNS_8FunctionE
   fun:_ZN12_GLOBAL__N_118InferAddressSpaces13runOnFunctionERN4llvm8FunctionE.llvm.10078684876576591733
   fun:_ZN4llvm13FPPassManager13runOnFunctionERNS_8FunctionE
}
{
   <insert_a_suppression_name_here>
   Memcheck:Leak
   match-leak-kinds: reachable
   fun:_Znwm
   fun:allocate
   fun:allocate
   fun:_M_allocate
   fun:_M_allocate_and_copy<__gnu_cxx::__normal_iterator<const std::pair<unsigned short, llvm::LegacyLegalizeActions::LegacyLegalizeAction> *, std::vector<std::pair<unsigned short, llvm::LegacyLegalizeActions::LegacyLegalizeAction>, std::allocator<std::pair<unsigned short, llvm::LegacyLegalizeActions::LegacyLegalizeAction> > > > >
   fun:_ZNSt6vectorISt4pairItN4llvm21LegacyLegalizeActions20LegacyLegalizeActionEESaIS4_EEaSERKS6_
   fun:setActions
   fun:setScalarAction
   fun:_ZN4llvm19LegacyLegalizerInfoC1Ev
   fun:UnknownInlinedFun
   fun:_ZN4llvm19AMDGPULegalizerInfoC1ERKNS_12GCNSubtargetERKNS_16GCNTargetMachineE
   fun:_ZN4llvm12GCNSubtargetC1ERKNS_6TripleENS_9StringRefES4_RKNS_16GCNTargetMachineE
   fun:make_unique<llvm::GCNSubtarget, const llvm::Triple &, llvm::StringRef &, llvm::StringRef &, const llvm::GCNTargetMachine &>
   fun:_ZNK4llvm16GCNTargetMachine16getSubtargetImplERKNS_8FunctionE
   fun:getSubtarget<llvm::GCNSubtarget>
   fun:_ZN4llvm16AMDGPUAsmPrinter18initializeTargetIDERKNS_6ModuleE
   fun:_ZN4llvm16AMDGPUAsmPrinter18initTargetStreamerERNS_6ModuleE
   fun:_ZN4llvm16AMDGPUAsmPrinter20runOnMachineFunctionERNS_15MachineFunctionE
   fun:_ZN4llvm19MachineFunctionPass13runOnFunctionERNS_8FunctionE
   fun:_ZN4llvm13FPPassManager13runOnFunctionERNS_8FunctionE
   fun:_ZN4llvm13FPPassManager11runOnModuleERNS_6ModuleE
}
{
   <insert_a_suppression_name_here>
   Memcheck:Leak
   match-leak-kinds: reachable
   fun:malloc
   fun:strdup
   fun:driParseOptionInfo
   fun:pipe_loader_load_options
   fun:pipe_loader_create_screen_vk
   fun:dri2_init_screen
   fun:driCreateNewScreen2
   fun:dri3_create_screen
   fun:AllocAndFetchScreenConfigs
   fun:__glXInitialize
   fun:GetGLXPrivScreenConfig
   fun:glXChooseVisual
   fun:_ZN3olc14Platform_Linux16CreateWindowPaneERKNS_11v2d_genericIiEERS2_b
   fun:_ZN3olc15PixelGameEngine5StartEv
   fun:main
}
{
   <insert_a_suppression_name_here>
   Memcheck:Leak
   match-leak-kinds: reachable
   fun:malloc
   fun:strdup
   fun:initOptionCache
   fun:driParseConfigFiles
   fun:radeonsi_screen_create
   fun:pipe_radeonsi_create_screen
   fun:pipe_loader_create_screen_vk
   fun:dri2_init_screen
   fun:driCreateNewScreen2
   fun:dri3_create_screen
   fun:AllocAndFetchScreenConfigs
   fun:__glXInitialize
   fun:GetGLXPrivScreenConfig
   fun:glXChooseVisual
   fun:_ZN3olc14Platform_Linux16CreateWindowPaneERKNS_11v2d_genericIiEERS2_b
}
{
   <insert_a_suppression_name_here>
   Memcheck:Leak
   match-leak-kinds: possible
   fun:malloc
   fun:strdup
   fun:_mesa_symbol_table_add_symbol
   fun:_ZN17glsl_symbol_table12add_functionEP11ir_function
   fun:create_new_program
   fun:_mesa_get_fixed_func_fragment_program
   fun:update_program
   fun:_mesa_update_state_locked
   fun:_mesa_update_state
   fun:_mesa_Begin
   fun:_ZN3olc14Renderer_OGL1013DrawLayerQuadERKNS_11v2d_genericIfEES4_NS_5PixelE
   fun:_ZN3olc15PixelGameEngine14olc_CoreUpdateEv
   fun:_ZN3olc15PixelGameEngine12EngineThreadEv
}
{
   <insert_a_suppression_name_here>
   Memcheck:Leak
   match-leak-kinds: possible
   fun:malloc
   fun:strdup
   fun:_mesa_symbol_table_add_symbol
   fun:_ZN17glsl_symbol_table12add_functionEP11ir_function
   fun:create_new_program
   fun:_mesa_get_fixed_func_fragment_program
   fun:update_program
   fun:_mesa_update_state_locked
   fun:_mesa_update_state
   fun:vbo_exec_vtx_flush
   fun:vbo_exec_FlushVertices_internal
   fun:vbo_exec_FlushVertices
   fun:st_context_flush
   fun:dri_flush
}
{
   <insert_a_suppression_name_here>
   Memcheck:Leak
   match-leak-kinds: possible
   fun:malloc
   fun:strdup
   fun:_mesa_symbol_table_add_symbol
   fun:_ZN17glsl_symbol_table12add_variableEP11ir_variable
   fun:_ZN12_GLOBAL__N_126builtin_variable_generator12add_variableEPKcPK9glsl_typei16ir_variable_modei16glsl_interp_mode
   fun:_ZN12_GLOBAL__N_126builtin_variable_generator11add_uniformEPK9glsl_typeiPKc.isra.0
   fun:add_uniform
   fun:generate_uniforms
   fun:_Z31_mesa_glsl_initialize_variablesP9exec_listP22_mesa_glsl_parse_state
   fun:create_new_program
   fun:_mesa_get_fixed_func_fragment_program
   fun:update_program
   fun:_mesa_update_state_locked
   fun:_mesa_update_state
   fun:_mesa_Begin
}
{
   <insert_a_suppression_name_here>
   Memcheck:Leak
   match-leak-kinds: possible
   fun:malloc
   fun:strdup
   fun:_mesa_symbol_table_add_symbol
   fun:_ZN17glsl_symbol_table12add_variableEP11ir_variable
   fun:_ZN12_GLOBAL__N_126builtin_variable_generator12add_variableEPKcPK9glsl_typei16ir_variable_modei16glsl_interp_mode
   fun:_ZN12_GLOBAL__N_126builtin_variable_generator11add_uniformEPK9glsl_typeiPKc.isra.0
   fun:add_uniform
   fun:generate_uniforms
   fun:_Z31_mesa_glsl_initialize_variablesP9exec_listP22_mesa_glsl_parse_state
   fun:create_new_program
   fun:_mesa_get_fixed_func_fragment_program
   fun:update_program
   fun:_mesa_update_state_locked
   fun:_mesa_update_state
   fun:vbo_exec_vtx_flush
}
{
   <insert_a_suppression_name_here>
   Memcheck:Leak
   match-leak-kinds: reachable
   fun:_Znwm
   fun:_ZSt11make_uniqueIN3olc18ImageLoader_LibPNGEJEENSt8__detail9_MakeUniqIT_E15__single_objectEDpOT0_
   fun:_ZN3olc15PixelGameEngine19olc_ConfigureSystemEv
   fun:_ZN3olc15PixelGameEngineC1Ev
   fun:_ZN7ExampleC1Ev
   fun:main
}
{
   <insert_a_suppression_name_here>
   Memcheck:Leak
   match-leak-kinds: reachable
   fun:calloc
   fun:AllocAndFetchScreenConfigs
   fun:__glXInitialize
   fun:GetGLXPrivScreenConfig
   fun:glXChooseVisual
   fun:_ZN3olc14Platform_Linux16CreateWindowPaneERKNS_11v2d_genericIiEERS2_b
   fun:_ZN3olc15PixelGameEngine5StartEv
   fun:main
}
{
   <insert_a_suppression_name_here>
   Memcheck:Leak
   match-leak-kinds: reachable
   fun:_Znwm
   fun:UnknownInlinedFun
   fun:UnknownInlinedFun
   fun:UnknownInlinedFun
   fun:UnknownInlinedFun
   fun:UnknownInlinedFun
   fun:vector
   fun:_ZN4llvm10TensorSpecC1ERKNSt7__cxx1112basic_stringIcSt11char_traitsIcESaIcEEEiNS_10TensorTypeEmRKSt6vectorIlSaIlEE
   fun:createSpec<long>
   fun:UnknownInlinedFun
   fun:_GLOBAL__sub_I_MLInlineAdvisor.cpp
   fun:call_init
   fun:call_init
   fun:_dl_init
   fun:_dl_catch_exception
   fun:dl_open_worker
   fun:_dl_catch_exception
   fun:_dl_open
   fun:dlopen_doit
   fun:_dl_catch_exception
   fun:_dl_catch_error
}
{
   <insert_a_suppression_name_here>
   Memcheck:Leak
   match-leak-kinds: reachable
   fun:calloc
   fun:util_queue_init
   fun:amdgpu_winsys_create
   fun:radeonsi_screen_create
   fun:pipe_radeonsi_create_screen
   fun:pipe_loader_create_screen_vk
   fun:dri2_init_screen
   fun:driCreateNewScreen2
   fun:dri3_create_screen
   fun:AllocAndFetchScreenConfigs
   fun:__glXInitialize
   fun:GetGLXPrivScreenConfig
   fun:glXChooseVisual
   fun:_ZN3olc14Platform_Linux16CreateWindowPaneERKNS_11v2d_genericIiEERS2_b
}
{
   <insert_a_suppression_name_here>
   Memcheck:Leak
   match-leak-kinds: reachable
   fun:malloc
   fun:UnknownInlinedFun
   fun:_ZN4llvm15SmallVectorBaseIjE8grow_podEPvmm
   fun:grow_pod
   fun:grow
   fun:operator=
   fun:SmallVector
   fun:AnalysisUsage
   fun:AUFoldingSetNode
   fun:_ZN4llvm17PMTopLevelManager17findAnalysisUsageEPNS_4PassE
   fun:_ZN4llvm17PMTopLevelManager12schedulePassEPNS_4PassE
   fun:_ZN4llvm17PMTopLevelManager12schedulePassEPNS_4PassE
   fun:_ZN4llvm17PMTopLevelManager12schedulePassEPNS_4PassE
   fun:_ZN4llvm17PMTopLevelManager12schedulePassEPNS_4PassE
   fun:ac_create_passmgr
   fun:ac_init_llvm_compiler
   fun:si_init_compiler
   fun:radeonsi_screen_create_impl
   fun:amdgpu_winsys_create
   fun:radeonsi_screen_create
}
{
   <insert_a_suppression_name_here>
   Memcheck:Leak
   match-leak-kinds: reachable
   fun:_Znwm
   fun:allocate
   fun:allocate
   fun:_M_allocate
   fun:_M_realloc_insert<llvm::PMDataManager *const &>
   fun:push_back
   fun:_ZN4llvm7PMStack4pushEPNS_13PMDataManagerE
   fun:FunctionPassManagerImpl
   fun:_ZN12_GLOBAL__N_113MPPassManager25addLowerLevelRequiredPassEPN4llvm4PassES3_.llvm.15189408220938163880
   fun:_ZN4llvm13PMDataManager3addEPNS_4PassEb
   fun:_ZN4llvm17PMTopLevelManager12schedulePassEPNS_4PassE
   fun:_ZN4llvm16TargetPassConfig7addPassEPNS_4PassE
   fun:_ZN4llvm16AMDGPUPassConfig11addIRPassesEv
   fun:_ZN4llvm16TargetPassConfig13addISelPassesEv
   fun:addPassesToGenerateCode
   fun:_ZN4llvm17LLVMTargetMachine19addPassesToEmitFileERNS_6legacy15PassManagerBaseERNS_17raw_pwrite_streamEPS4_NS_15CodeGenFileTypeEbPNS_28MachineModuleInfoWrapperPassE
   fun:ac_create_llvm_passes
   fun:si_init_compiler
   fun:radeonsi_screen_create_impl
}
{
   <insert_a_suppression_name_here>
   Memcheck:Leak
   match-leak-kinds: reachable
   fun:malloc
   fun:UnknownInlinedFun
   fun:_ZN4llvm15SmallVectorBaseIjE8grow_podEPvmm
   fun:grow_pod
   fun:grow
   fun:operator=
   fun:SmallVector
   fun:AnalysisUsage
   fun:AUFoldingSetNode
   fun:_ZN4llvm17PMTopLevelManager17findAnalysisUsageEPNS_4PassE
   fun:_ZN4llvm17PMTopLevelManager12schedulePassEPNS_4PassE
   fun:_ZN4llvm16TargetPassConfig7addPassEPNS_4PassE
   fun:UnknownInlinedFun
   fun:_ZN4llvm16AMDGPUPassConfig17addCodeGenPrepareEv
   fun:_ZN4llvm16TargetPassConfig13addISelPassesEv
   fun:addPassesToGenerateCode
   fun:_ZN4llvm17LLVMTargetMachine19addPassesToEmitFileERNS_6legacy15PassManagerBaseERNS_17raw_pwrite_streamEPS4_NS_15CodeGenFileTypeEbPNS_28MachineModuleInfoWrapperPassE
   fun:ac_create_llvm_passes
   fun:si_init_compiler
   fun:radeonsi_screen_create_impl
   fun:amdgpu_winsys_create
}
{
   <insert_a_suppression_name_here>
   Memcheck:Leak
   match-leak-kinds: reachable
   fun:malloc
   fun:UnknownInlinedFun
   fun:_ZN4llvm15SmallVectorBaseIjE8grow_podEPvmm
   fun:grow_pod
   fun:grow
   fun:operator=
   fun:SmallVector
   fun:AnalysisUsage
   fun:AUFoldingSetNode
   fun:_ZN4llvm17PMTopLevelManager17findAnalysisUsageEPNS_4PassE
   fun:_ZN4llvm17PMTopLevelManager12schedulePassEPNS_4PassE
   fun:_ZN4llvm16TargetPassConfig7addPassEPNS_4PassE
   fun:_ZN4llvm16TargetPassConfig7addPassEPKv
   fun:_ZN4llvm16TargetPassConfig20addOptimizedRegAllocEv
   fun:_ZN4llvm16TargetPassConfig16addMachinePassesEv
   fun:addPassesToGenerateCode
   fun:_ZN4llvm17LLVMTargetMachine19addPassesToEmitFileERNS_6legacy15PassManagerBaseERNS_17raw_pwrite_streamEPS4_NS_15CodeGenFileTypeEbPNS_28MachineModuleInfoWrapperPassE
   fun:ac_create_llvm_passes
   fun:si_init_compiler
   fun:radeonsi_screen_create_impl
}
{
   <insert_a_suppression_name_here>
   Memcheck:Leak
   match-leak-kinds: reachable
   fun:calloc
   fun:util_queue_init
   fun:threaded_context_create
   fun:si_pipe_create_context
   fun:st_api_create_context
   fun:dri_create_context
   fun:driCreateContextAttribs
   fun:dri3_create_context_attribs
   fun:dri_common_create_context
   fun:CreateContext
   fun:glXCreateContext
   fun:glXCreateContext
}
{
   <insert_a_suppression_name_here>
   Memcheck:Leak
   match-leak-kinds: reachable
   fun:malloc
   fun:UnknownInlinedFun
   fun:_ZN4llvm15SmallVectorBaseIjE8grow_podEPvmm
   fun:grow_pod
   fun:grow
   fun:operator=
   fun:SmallVector
   fun:AnalysisUsage
   fun:AUFoldingSetNode
   fun:_ZN4llvm17PMTopLevelManager17findAnalysisUsageEPNS_4PassE
   fun:_ZN4llvm17PMTopLevelManager12schedulePassEPNS_4PassE
   fun:_ZN4llvm17PMTopLevelManager12schedulePassEPNS_4PassE
   fun:_ZN4llvm17PMTopLevelManager12schedulePassEPNS_4PassE
   fun:_ZN4llvm17PMTopLevelManager12schedulePassEPNS_4PassE
   fun:ac_create_passmgr
   fun:ac_init_llvm_compiler
   fun:si_init_compiler
   fun:si_shader_select_with_key<false, si_shader_key_ge>
   fun:si_shader_select
   fun:_Z17si_update_shadersIL13amd_gfx_level11EL11si_has_tess0EL9si_has_gs0EL10si_has_ngg0EEbP10si_context
   fun:si_draw<(amd_gfx_level)11, (si_has_tess)0, (si_has_gs)0, (si_has_ngg)0, (si_is_draw_vertex_state)0, (util_popcnt)0>
   fun:_Z11si_draw_vboIL13amd_gfx_level11EL11si_has_tess0EL9si_has_gs0EL10si_has_ngg0EEvP12pipe_contextPK14pipe_draw_infojPK23pipe_draw_indirect_infoPK26pipe_draw_start_count_biasj
}
{
   <insert_a_suppression_name_here>
   Memcheck:Leak
   match-leak-kinds: reachable
   fun:_Znwm
   fun:allocate
   fun:allocate
   fun:_M_allocate
   fun:_M_realloc_insert<llvm::PMDataManager *const &>
   fun:push_back
   fun:_ZN4llvm7PMStack4pushEPNS_13PMDataManagerE
   fun:FunctionPassManagerImpl
   fun:_ZN12_GLOBAL__N_113MPPassManager25addLowerLevelRequiredPassEPN4llvm4PassES3_.llvm.15189408220938163880
   fun:_ZN4llvm13PMDataManager3addEPNS_4PassEb
   fun:_ZN4llvm17PMTopLevelManager12schedulePassEPNS_4PassE
   fun:_ZN4llvm16TargetPassConfig7addPassEPNS_4PassE
   fun:_ZN4llvm16AMDGPUPassConfig11addIRPassesEv
   fun:_ZN4llvm16TargetPassConfig13addISelPassesEv
   fun:addPassesToGenerateCode
   fun:_ZN4llvm17LLVMTargetMachine19addPassesToEmitFileERNS_6legacy15PassManagerBaseERNS_17raw_pwrite_streamEPS4_NS_15CodeGenFileTypeEbPNS_28MachineModuleInfoWrapperPassE
   fun:ac_create_llvm_passes
   fun:si_init_compiler
   fun:si_shader_select_with_key<false, si_shader_key_ge>
   fun:si_shader_select
}
{
   <insert_a_suppression_name_here>
   Memcheck:Leak
   match-leak-kinds: reachable
   fun:malloc
   fun:UnknownInlinedFun
   fun:_ZN4llvm15SmallVectorBaseIjE8grow_podEPvmm
   fun:grow_pod
   fun:grow
   fun:operator=
   fun:SmallVector
   fun:AnalysisUsage
   fun:AUFoldingSetNode
   fun:_ZN4llvm17PMTopLevelManager17findAnalysisUsageEPNS_4PassE
   fun:_ZN4llvm17PMTopLevelManager12schedulePassEPNS_4PassE
   fun:_ZN4llvm16TargetPassConfig7addPassEPNS_4PassE
   fun:UnknownInlinedFun
   fun:_ZN4llvm16AMDGPUPassConfig17addCodeGenPrepareEv
   fun:_ZN4llvm16TargetPassConfig13addISelPassesEv
   fun:addPassesToGenerateCode
   fun:_ZN4llvm17LLVMTargetMachine19addPassesToEmitFileERNS_6legacy15PassManagerBaseERNS_17raw_pwrite_streamEPS4_NS_15CodeGenFileTypeEbPNS_28MachineModuleInfoWrapperPassE
   fun:ac_create_llvm_passes
   fun:si_init_compiler
   fun:si_shader_select_with_key<false, si_shader_key_ge>
   fun:si_shader_select
   fun:_Z17si_update_shadersIL13amd_gfx_level11EL11si_has_tess0EL9si_has_gs0EL10si_has_ngg0EEbP10si_context
}
{
   <insert_a_suppression_name_here>
   Memcheck:Leak
   match-leak-kinds: reachable
   fun:malloc
   fun:UnknownInlinedFun
   fun:_ZN4llvm15SmallVectorBaseIjE8grow_podEPvmm
   fun:grow_pod
   fun:grow
   fun:operator=
   fun:SmallVector
   fun:AnalysisUsage
   fun:AUFoldingSetNode
   fun:_ZN4llvm17PMTopLevelManager17findAnalysisUsageEPNS_4PassE
   fun:_ZN4llvm17PMTopLevelManager12schedulePassEPNS_4PassE
   fun:_ZN4llvm16TargetPassConfig7addPassEPNS_4PassE
   fun:_ZN4llvm16TargetPassConfig7addPassEPKv
   fun:_ZN4llvm16TargetPassConfig20addOptimizedRegAllocEv
   fun:_ZN4llvm16TargetPassConfig16addMachinePassesEv
   fun:addPassesToGenerateCode
   fun:_ZN4llvm17LLVMTargetMachine19addPassesToEmitFileERNS_6legacy15PassManagerBaseERNS_17raw_pwrite_streamEPS4_NS_15CodeGenFileTypeEbPNS_28MachineModuleInfoWrapperPassE
   fun:ac_create_llvm_passes
   fun:si_init_compiler
   fun:si_shader_select_with_key<false, si_shader_key_ge>
   fun:si_shader_select
}
{
   <insert_a_suppression_name_here>
   Memcheck:Leak
   match-leak-kinds: reachable
   fun:_Znwm
   fun:allocate
   fun:allocate
   fun:_M_allocate
   fun:_M_realloc_insert<const llvm::BasicBlock *>
   fun:emplace_back<const llvm::BasicBlock *>
   fun:push_back
   fun:appendBlock
   fun:operator()
   fun:__invoke_impl<void, (lambda at /builddir/build/BUILD/llvm-15.0.7.src/lib/Analysis/SyncDependenceAnalysis.cpp:255:21) &, const llvm::BasicBlock &>
   fun:__invoke_r<void, (lambda at /builddir/build/BUILD/llvm-15.0.7.src/lib/Analysis/SyncDependenceAnalysis.cpp:255:21) &, const llvm::BasicBlock &>
   fun:_ZNSt17_Function_handlerIFvRKN4llvm10BasicBlockEEZNS0_22SyncDependenceAnalysisC1ERKNS0_13DominatorTreeERKNS0_17PostDominatorTreeERKNS0_8LoopInfoEE3$_0E9_M_invokeERKSt9_Any_dataS3_.llvm.9753355679059810421
   fun:operator()
   fun:_ZN12_GLOBAL__N_114computeStackPOERSt6vectorIPKN4llvm10BasicBlockESaIS4_EERKNS1_8LoopInfoEPNS1_4LoopESt8functionIFvRS3_EERSt3setIS4_St4lessIS4_ES5_E.llvm.9753355679059810421
   fun:computeTopLevelPO
   fun:_ZN4llvm22SyncDependenceAnalysisC1ERKNS_13DominatorTreeERKNS_17PostDominatorTreeERKNS_8LoopInfoE
   fun:make_unique<llvm::SyncDependenceAnalysis, const llvm::DominatorTree &, const llvm::PostDominatorTree &, const llvm::LoopInfo &>
   fun:_ZN4llvm14DivergenceInfoC1ERNS_8FunctionERKNS_13DominatorTreeERKNS_17PostDominatorTreeERKNS_8LoopInfoERKNS_19TargetTransformInfoEb
   fun:make_unique<llvm::DivergenceInfo, llvm::Function &, llvm::DominatorTree &, llvm::PostDominatorTree &, llvm::LoopInfo &, llvm::TargetTransformInfo &, bool>
   fun:_ZN4llvm24LegacyDivergenceAnalysis13runOnFunctionERNS_8FunctionE
   fun:_ZN4llvm13FPPassManager13runOnFunctionERNS_8FunctionE
   fun:_ZN4llvm13FPPassManager11runOnModuleERNS_6ModuleE
   fun:runOnModule
   fun:_ZN4llvm6legacy15PassManagerImpl3runERNS_6ModuleE
   fun:ac_compile_module_to_elf
   fun:si_compile_llvm
   fun:si_get_shader_part
}
{
   <insert_a_suppression_name_here>
   Memcheck:Leak
   match-leak-kinds: reachable
   fun:_Znwm
   fun:allocate
   fun:allocate
   fun:_M_allocate
   fun:_M_default_append
   fun:resize
   fun:_ZN12_GLOBAL__N_114SIModeRegister20runOnMachineFunctionERN4llvm15MachineFunctionE.llvm.10825046999935096976
   fun:_ZN4llvm19MachineFunctionPass13runOnFunctionERNS_8FunctionE
   fun:_ZN4llvm13FPPassManager13runOnFunctionERNS_8FunctionE
   fun:RunPassOnSCC
   fun:RunAllPassesOnSCC
   fun:_ZN12_GLOBAL__N_113CGPassManager11runOnModuleERN4llvm6ModuleE
   fun:runOnModule
   fun:_ZN4llvm6legacy15PassManagerImpl3runERNS_6ModuleE
   fun:ac_compile_module_to_elf
   fun:si_compile_llvm
   fun:si_get_shader_part
   fun:si_shader_select_ps_parts
   fun:si_create_shader_variant
   fun:_ZL23si_build_shader_variantP9si_shaderib
   fun:si_shader_select_with_key<false, si_shader_key_ps>
   fun:si_shader_select
}
{
   <insert_a_suppression_name_here>
   Memcheck:Leak
   match-leak-kinds: reachable
   fun:_Znwm
   fun:_ZN12_GLOBAL__N_114CodeGenPrepare13runOnFunctionERN4llvm8FunctionE
   fun:_ZN4llvm13FPPassManager13runOnFunctionERNS_8FunctionE
   fun:RunPassOnSCC
   fun:RunAllPassesOnSCC
   fun:_ZN12_GLOBAL__N_113CGPassManager11runOnModuleERN4llvm6ModuleE
   fun:runOnModule
   fun:_ZN4llvm6legacy15PassManagerImpl3runERNS_6ModuleE
   fun:ac_compile_module_to_elf
   fun:si_compile_llvm
   fun:si_get_shader_part
   fun:si_shader_select_ps_parts
   fun:si_create_shader_variant
   fun:_ZL23si_build_shader_variantP9si_shaderib
   fun:si_shader_select_with_key<false, si_shader_key_ps>
   fun:si_shader_select
   fun:_Z17si_update_shadersIL13amd_gfx_level11EL11si_has_tess0EL9si_has_gs0EL10si_has_ngg0EEbP10si_context
}
{
   <insert_a_suppression_name_here>
   Memcheck:Leak
   match-leak-kinds: reachable
   fun:_Znwm
   fun:allocate
   fun:allocate
   fun:_M_allocate
   fun:reserve
   fun:initializeRPOT
   fun:_ZN4llvm22BlockFrequencyInfoImplINS_10BasicBlockEE9calculateERKNS_8FunctionERKNS_21BranchProbabilityInfoERKNS_8LoopInfoE
   fun:_ZN4llvm18BlockFrequencyInfo9calculateERKNS_8FunctionERKNS_21BranchProbabilityInfoERKNS_8LoopInfoE
   fun:UnknownInlinedFun
   fun:_ZN12_GLOBAL__N_114CodeGenPrepare13runOnFunctionERN4llvm8FunctionE
   fun:_ZN4llvm13FPPassManager13runOnFunctionERNS_8FunctionE
   fun:RunPassOnSCC
   fun:RunAllPassesOnSCC
   fun:_ZN12_GLOBAL__N_113CGPassManager11runOnModuleERN4llvm6ModuleE
   fun:runOnModule
   fun:_ZN4llvm6legacy15PassManagerImpl3runERNS_6ModuleE
   fun:ac_compile_module_to_elf
   fun:si_compile_llvm
   fun:si_get_shader_part
   fun:si_shader_select_ps_parts
   fun:si_create_shader_variant
   fun:_ZL23si_build_shader_variantP9si_shaderib
}
{
   <insert_a_suppression_name_here>
   Memcheck:Leak
   match-leak-kinds: possible
   fun:malloc
   fun:realloc
   fun:amdgpu_add_fences
   fun:amdgpu_add_fence_dependencies_bo_list
   fun:amdgpu_add_fence_dependencies_bo_lists
   fun:amdgpu_cs_submit_ib
   fun:util_queue_thread_func
   fun:impl_thrd_routine
   fun:start_thread
   fun:clone
}
{
   <insert_a_suppression_name_here>
   Memcheck:Leak
   match-leak-kinds: possible
   fun:_Znwm
   fun:string_to_uint_map_ctor
   fun:init_shader_program
   fun:_mesa_new_shader_program
   fun:create_new_program
   fun:_mesa_get_fixed_func_fragment_program
   fun:update_program
   fun:_mesa_update_state_locked
   fun:_mesa_update_state
   fun:_mesa_Begin
   fun:_ZN3olc14Renderer_OGL1013DrawLayerQuadERKNS_11v2d_genericIfEES4_NS_5PixelE
   fun:_ZN3olc15PixelGameEngine14olc_CoreUpdateEv
   fun:_ZN3olc15PixelGameEngine12EngineThreadEv
   fun:_ZSt13__invoke_implIvMN3olc15PixelGameEngineEFvvEPS1_JEET_St21__invoke_memfun_derefOT0_OT1_DpOT2_
}
{
   <insert_a_suppression_name_here>
   Memcheck:Leak
   match-leak-kinds: possible
   fun:malloc
   fun:create_new_program
   fun:_mesa_get_fixed_func_fragment_program
   fun:update_program
   fun:_mesa_update_state_locked
   fun:_mesa_update_state
   fun:_mesa_Begin
   fun:_ZN3olc14Renderer_OGL1013DrawLayerQuadERKNS_11v2d_genericIfEES4_NS_5PixelE
   fun:_ZN3olc15PixelGameEngine14olc_CoreUpdateEv
   fun:_ZN3olc15PixelGameEngine12EngineThreadEv
   fun:_ZSt13__invoke_implIvMN3olc15PixelGameEngineEFvvEPS1_JEET_St21__invoke_memfun_derefOT0_OT1_DpOT2_
   fun:_ZSt8__invokeIMN3olc15PixelGameEngineEFvvEJPS1_EENSt15__invoke_resultIT_JDpT0_EE4typeEOS6_DpOS7_
   fun:_ZNSt6thread8_InvokerISt5tupleIJMN3olc15PixelGameEngineEFvvEPS3_EEE9_M_invokeIJLm0ELm1EEEEvSt12_Index_tupleIJXspT_EEE
}
{
   <insert_a_suppression_name_here>
   Memcheck:Leak
   match-leak-kinds: possible
   fun:_Znwm
   fun:string_to_uint_map_ctor
   fun:init_shader_program
   fun:_mesa_new_shader_program
   fun:create_new_program
   fun:_mesa_get_fixed_func_fragment_program
   fun:update_program
   fun:_mesa_update_state_locked
   fun:_mesa_update_state
   fun:vbo_exec_vtx_flush
   fun:vbo_exec_FlushVertices_internal
   fun:vbo_exec_FlushVertices
   fun:st_context_flush
   fun:dri_flush
   fun:loader_dri3_swap_buffers_msc
}
{
   <insert_a_suppression_name_here>
   Memcheck:Leak
   match-leak-kinds: possible
   fun:malloc
   fun:create_new_program
   fun:_mesa_get_fixed_func_fragment_program
   fun:update_program
   fun:_mesa_update_state_locked
   fun:_mesa_update_state
   fun:vbo_exec_vtx_flush
   fun:vbo_exec_FlushVertices_internal
   fun:vbo_exec_FlushVertices
   fun:st_context_flush
   fun:dri_flush
   fun:loader_dri3_swap_buffers_msc
   fun:dri3_swap_buffers
   fun:glXSwapBuffers
}
{
   <insert_a_suppression_name_here>
   Memcheck:Leak
   match-leak-kinds: reachable
   fun:malloc
   fun:strdup
   fun:loader_get_pci_driver
   fun:loader_get_driver_for_fd
   fun:pipe_loader_drm_probe_fd_nodup
   fun:pipe_loader_drm_probe_fd
   fun:dri2_init_screen
   fun:driCreateNewScreen2
   fun:dri3_create_screen
   fun:AllocAndFetchScreenConfigs
   fun:__glXInitialize
   fun:GetGLXPrivScreenConfig
   fun:glXChooseVisual
   fun:_ZN3olc14Platform_Linux16CreateWindowPaneERKNS_11v2d_genericIiEERS2_b
   fun:_ZN3olc15PixelGameEngine5StartEv
}
{
   <insert_a_suppression_name_here>
   Memcheck:Leak
   match-leak-kinds: reachable
   fun:malloc
   fun:strdup
   fun:UnknownInlinedFun
   fun:init_selinux_config.lto_priv.0
   fun:__pthread_once_slow
   fun:UnknownInlinedFun
   fun:UnknownInlinedFun
   fun:selinux_boolean_sub
   fun:bool_open
   fun:get_bool_value
   fun:security_get_boolean_active
   fun:init_map
   fun:u_execmem_init_once
   fun:__pthread_once_slow
   fun:util_call_once
   fun:u_execmem_alloc
   fun:entry_generate
}
{
   <insert_a_suppression_name_here>
   Memcheck:Leak
   match-leak-kinds: possible
   fun:malloc
   fun:strdup
   fun:_mesa_symbol_table_add_symbol
   fun:_ZN17glsl_symbol_table12add_variableEP11ir_variable
   fun:_ZN12_GLOBAL__N_126builtin_variable_generator12add_variableEPKcPK9glsl_typei16ir_variable_modei16glsl_interp_mode
   fun:add_input
   fun:_ZN12_GLOBAL__N_126builtin_variable_generator11add_varyingEiPK9glsl_typeiPKc16glsl_interp_mode
   fun:add_varying
   fun:generate_varyings
   fun:_Z31_mesa_glsl_initialize_variablesP9exec_listP22_mesa_glsl_parse_state
   fun:create_new_program
   fun:_mesa_get_fixed_func_fragment_program
   fun:update_program
   fun:_mesa_update_state_locked
   fun:_mesa_update_state
   fun:_mesa_Begin
}
{
   <insert_a_suppression_name_here>
   Memcheck:Leak
   match-leak-kinds: possible
   fun:malloc
   fun:strdup
   fun:_mesa_symbol_table_add_symbol
   fun:_ZN17glsl_symbol_table12add_variableEP11ir_variable
   fun:_ZN12_GLOBAL__N_126builtin_variable_generator12add_variableEPKcPK9glsl_typei16ir_variable_modei16glsl_interp_mode
   fun:add_input
   fun:_ZN12_GLOBAL__N_126builtin_variable_generator11add_varyingEiPK9glsl_typeiPKc16glsl_interp_mode
   fun:add_varying
   fun:generate_varyings
   fun:_Z31_mesa_glsl_initialize_variablesP9exec_listP22_mesa_glsl_parse_state
   fun:create_new_program
   fun:_mesa_get_fixed_func_fragment_program
   fun:update_program
   fun:_mesa_update_state_locked
   fun:_mesa_update_state
   fun:vbo_exec_vtx_flush
}
{
   <insert_a_suppression_name_here>
   Memcheck:Leak
   match-leak-kinds: reachable
   fun:malloc
   fun:strdup
   fun:XInitExtension
   fun:XkbUseExtension
   fun:XOpenDisplay
   fun:_ZN3olc14Platform_Linux16CreateWindowPaneERKNS_11v2d_genericIiEERS2_b
   fun:_ZN3olc15PixelGameEngine5StartEv
   fun:main
}
{
   <insert_a_suppression_name_here>
   Memcheck:Leak
   match-leak-kinds: reachable
   fun:_Znam
   fun:_ZN4llvm17RegisterClassInfo20runOnMachineFunctionERKNS_15MachineFunctionE
   fun:_ZN12_GLOBAL__N_114MachineSinking20runOnMachineFunctionERN4llvm15MachineFunctionE
   fun:_ZN4llvm19MachineFunctionPass13runOnFunctionERNS_8FunctionE
   fun:_ZN4llvm13FPPassManager13runOnFunctionERNS_8FunctionE
   fun:RunPassOnSCC
   fun:RunAllPassesOnSCC
   fun:_ZN12_GLOBAL__N_113CGPassManager11runOnModuleERN4llvm6ModuleE
   fun:runOnModule
   fun:_ZN4llvm6legacy15PassManagerImpl3runERNS_6ModuleE
   fun:ac_compile_module_to_elf
   fun:si_compile_llvm
   fun:si_get_shader_part
   fun:si_shader_select_ps_parts
   fun:si_create_shader_variant
   fun:_ZL23si_build_shader_variantP9si_shaderib
}
{
   <insert_a_suppression_name_here>
   Memcheck:Leak
   match-leak-kinds: reachable
   fun:_Znam
   fun:_ZN4llvm17RegisterClassInfo20runOnMachineFunctionERKNS_15MachineFunctionE
   fun:_ZN12_GLOBAL__N_117RegisterCoalescer20runOnMachineFunctionERN4llvm15MachineFunctionE
   fun:_ZN4llvm19MachineFunctionPass13runOnFunctionERNS_8FunctionE
   fun:_ZN4llvm13FPPassManager13runOnFunctionERNS_8FunctionE
   fun:RunPassOnSCC
   fun:RunAllPassesOnSCC
   fun:_ZN12_GLOBAL__N_113CGPassManager11runOnModuleERN4llvm6ModuleE
   fun:runOnModule
   fun:_ZN4llvm6legacy15PassManagerImpl3runERNS_6ModuleE
   fun:ac_compile_module_to_elf
   fun:si_compile_llvm
   fun:si_get_shader_part
   fun:si_shader_select_ps_parts
   fun:si_create_shader_variant
   fun:_ZL23si_build_shader_variantP9si_shaderib
}
{
   <insert_a_suppression_name_here>
   Memcheck:Leak
   match-leak-kinds: reachable
   fun:_Znam
   fun:_ZN4llvm17RegisterClassInfo20runOnMachineFunctionERKNS_15MachineFunctionE
   fun:_ZN12_GLOBAL__N_116MachineScheduler20runOnMachineFunctionERN4llvm15MachineFunctionE
   fun:_ZN4llvm19MachineFunctionPass13runOnFunctionERNS_8FunctionE
   fun:_ZN4llvm13FPPassManager13runOnFunctionERNS_8FunctionE
   fun:RunPassOnSCC
   fun:RunAllPassesOnSCC
   fun:_ZN12_GLOBAL__N_113CGPassManager11runOnModuleERN4llvm6ModuleE
   fun:runOnModule
   fun:_ZN4llvm6legacy15PassManagerImpl3runERNS_6ModuleE
   fun:ac_compile_module_to_elf
   fun:si_compile_llvm
   fun:si_get_shader_part
   fun:si_shader_select_ps_parts
   fun:si_create_shader_variant
   fun:_ZL23si_build_shader_variantP9si_shaderib
}
{
   <insert_a_suppression_name_here>
   Memcheck:Leak
   match-leak-kinds: reachable
   fun:_Znam
   fun:_ZN4llvm17RegisterClassInfo20runOnMachineFunctionERKNS_15MachineFunctionE
   fun:_ZN12_GLOBAL__N_120SIPreAllocateWWMRegs20runOnMachineFunctionERN4llvm15MachineFunctionE
   fun:_ZN4llvm19MachineFunctionPass13runOnFunctionERNS_8FunctionE
   fun:_ZN4llvm13FPPassManager13runOnFunctionERNS_8FunctionE
   fun:RunPassOnSCC
   fun:RunAllPassesOnSCC
   fun:_ZN12_GLOBAL__N_113CGPassManager11runOnModuleERN4llvm6ModuleE
   fun:runOnModule
   fun:_ZN4llvm6legacy15PassManagerImpl3runERNS_6ModuleE
   fun:ac_compile_module_to_elf
   fun:si_compile_llvm
   fun:si_get_shader_part
   fun:si_shader_select_ps_parts
   fun:si_create_shader_variant
   fun:_ZL23si_build_shader_variantP9si_shaderib
}
{
   <insert_a_suppression_name_here>
   Memcheck:Leak
   match-leak-kinds: possible
   fun:malloc
   fun:strdup
   fun:_mesa_symbol_table_add_symbol
   fun:_ZN17glsl_symbol_table12add_variableEP11ir_variable
   fun:_ZN12_GLOBAL__N_126builtin_variable_generator12add_variableEPKcPK9glsl_typei16ir_variable_modei16glsl_interp_mode
   fun:add_output
   fun:generate_fs_special_vars
   fun:_Z31_mesa_glsl_initialize_variablesP9exec_listP22_mesa_glsl_parse_state
   fun:create_new_program
   fun:_mesa_get_fixed_func_fragment_program
   fun:update_program
   fun:_mesa_update_state_locked
   fun:_mesa_update_state
   fun:_mesa_Begin
   fun:_ZN3olc14Renderer_OGL1013DrawLayerQuadERKNS_11v2d_genericIfEES4_NS_5PixelE
}
{
   <insert_a_suppression_name_here>
   Memcheck:Leak
   match-leak-kinds: possible
   fun:malloc
   fun:strdup
   fun:_mesa_symbol_table_add_symbol
   fun:_ZN17glsl_symbol_table12add_variableEP11ir_variable
   fun:_ZN12_GLOBAL__N_126builtin_variable_generator12add_variableEPKcPK9glsl_typei16ir_variable_modei16glsl_interp_mode
   fun:add_output
   fun:generate_fs_special_vars
   fun:_Z31_mesa_glsl_initialize_variablesP9exec_listP22_mesa_glsl_parse_state
   fun:create_new_program
   fun:_mesa_get_fixed_func_fragment_program
   fun:update_program
   fun:_mesa_update_state_locked
   fun:_mesa_update_state
   fun:vbo_exec_vtx_flush
   fun:vbo_exec_FlushVertices_internal
   fun:vbo_exec_FlushVertices
}
{
   <insert_a_suppression_name_here>
   Memcheck:Leak
   match-leak-kinds: possible
   fun:malloc
   fun:strdup
   fun:_mesa_symbol_table_add_symbol
   fun:_ZN17glsl_symbol_table12add_variableEP11ir_variable
   fun:_ZN12_GLOBAL__N_126builtin_variable_generator12add_variableEPKcPK9glsl_typei16ir_variable_modei16glsl_interp_mode
   fun:add_system_value
   fun:generate_fs_special_vars
   fun:_Z31_mesa_glsl_initialize_variablesP9exec_listP22_mesa_glsl_parse_state
   fun:create_new_program
   fun:_mesa_get_fixed_func_fragment_program
   fun:update_program
   fun:_mesa_update_state_locked
   fun:_mesa_update_state
   fun:_mesa_Begin
   fun:_ZN3olc14Renderer_OGL1013DrawLayerQuadERKNS_11v2d_genericIfEES4_NS_5PixelE
}
{
   <insert_a_suppression_name_here>
   Memcheck:Leak
   match-leak-kinds: possible
   fun:malloc
   fun:strdup
   fun:_mesa_symbol_table_add_symbol
   fun:_ZN17glsl_symbol_table12add_variableEP11ir_variable
   fun:_ZN12_GLOBAL__N_126builtin_variable_generator12add_variableEPKcPK9glsl_typei16ir_variable_modei16glsl_interp_mode
   fun:add_system_value
   fun:generate_fs_special_vars
   fun:_Z31_mesa_glsl_initialize_variablesP9exec_listP22_mesa_glsl_parse_state
   fun:create_new_program
   fun:_mesa_get_fixed_func_fragment_program
   fun:update_program
   fun:_mesa_update_state_locked
   fun:_mesa_update_state
   fun:vbo_exec_vtx_flush
   fun:vbo_exec_FlushVertices_internal
   fun:vbo_exec_FlushVertices
}
{
   <insert_a_suppression_name_here>
   Memcheck:Leak
   match-leak-kinds: possible
   fun:malloc
   fun:strdup
   fun:_mesa_symbol_table_add_symbol
   fun:_ZN17glsl_symbol_table8add_typeEPKcPK9glsl_type
   fun:add_type
   fun:_mesa_glsl_initialize_types
   fun:create_new_program
   fun:_mesa_get_fixed_func_fragment_program
   fun:update_program
   fun:_mesa_update_state_locked
   fun:_mesa_update_state
   fun:_mesa_Begin
   fun:_ZN3olc14Renderer_OGL1013DrawLayerQuadERKNS_11v2d_genericIfEES4_NS_5PixelE
   fun:_ZN3olc15PixelGameEngine14olc_CoreUpdateEv
}
{
   <insert_a_suppression_name_here>
   Memcheck:Leak
   match-leak-kinds: possible
   fun:malloc
   fun:strdup
   fun:_mesa_symbol_table_add_symbol
   fun:_ZN17glsl_symbol_table12add_variableEP11ir_variable
   fun:_ZN12_GLOBAL__N_126builtin_variable_generator12add_variableEPKcPK9glsl_typei16ir_variable_modei16glsl_interp_mode
   fun:add_input
   fun:generate_fs_special_vars
   fun:_Z31_mesa_glsl_initialize_variablesP9exec_listP22_mesa_glsl_parse_state
   fun:create_new_program
   fun:_mesa_get_fixed_func_fragment_program
   fun:update_program
   fun:_mesa_update_state_locked
   fun:_mesa_update_state
   fun:_mesa_Begin
   fun:_ZN3olc14Renderer_OGL1013DrawLayerQuadERKNS_11v2d_genericIfEES4_NS_5PixelE
}
{
   <insert_a_suppression_name_here>
   Memcheck:Leak
   match-leak-kinds: possible
   fun:malloc
   fun:strdup
   fun:_mesa_symbol_table_add_symbol
   fun:_ZN17glsl_symbol_table8add_typeEPKcPK9glsl_type
   fun:add_type
   fun:_mesa_glsl_initialize_types
   fun:create_new_program
   fun:_mesa_get_fixed_func_fragment_program
   fun:update_program
   fun:_mesa_update_state_locked
   fun:_mesa_update_state
   fun:vbo_exec_vtx_flush
   fun:vbo_exec_FlushVertices_internal
   fun:vbo_exec_FlushVertices
   fun:st_context_flush
}
{
   <insert_a_suppression_name_here>
   Memcheck:Leak
   match-leak-kinds: possible
   fun:malloc
   fun:strdup
   fun:_mesa_symbol_table_add_symbol
   fun:_ZN17glsl_symbol_table12add_variableEP11ir_variable
   fun:_ZN12_GLOBAL__N_126builtin_variable_generator12add_variableEPKcPK9glsl_typei16ir_variable_modei16glsl_interp_mode
   fun:add_input
   fun:generate_fs_special_vars
   fun:_Z31_mesa_glsl_initialize_variablesP9exec_listP22_mesa_glsl_parse_state
   fun:create_new_program
   fun:_mesa_get_fixed_func_fragment_program
   fun:update_program
   fun:_mesa_update_state_locked
   fun:_mesa_update_state
   fun:vbo_exec_vtx_flush
   fun:vbo_exec_FlushVertices_internal
   fun:vbo_exec_FlushVertices
}
{
   <insert_a_suppression_name_here>
   Memcheck:Leak
   match-leak-kinds: possible
   fun:malloc
   fun:strdup
   fun:_mesa_symbol_table_add_symbol
   fun:_ZN17glsl_symbol_table12add_variableEP11ir_variable
   fun:_ZN12_GLOBAL__N_126builtin_variable_generator12add_variableEPKcPK9glsl_typei16ir_variable_modei16glsl_interp_mode
   fun:add_input
   fun:add_input
   fun:generate_fs_special_vars
   fun:_Z31_mesa_glsl_initialize_variablesP9exec_listP22_mesa_glsl_parse_state
   fun:create_new_program
   fun:_mesa_get_fixed_func_fragment_program
   fun:update_program
   fun:_mesa_update_state_locked
   fun:_mesa_update_state
   fun:_mesa_Begin
   fun:_ZN3olc14Renderer_OGL1013DrawLayerQuadERKNS_11v2d_genericIfEES4_NS_5PixelE
}
{
   <insert_a_suppression_name_here>
   Memcheck:Leak
   match-leak-kinds: possible
   fun:malloc
   fun:strdup
   fun:_mesa_symbol_table_add_symbol
   fun:_ZN17glsl_symbol_table12add_variableEP11ir_variable
   fun:_ZN12_GLOBAL__N_126builtin_variable_generator12add_variableEPKcPK9glsl_typei16ir_variable_modei16glsl_interp_mode
   fun:add_input
   fun:add_input
   fun:generate_fs_special_vars
   fun:_Z31_mesa_glsl_initialize_variablesP9exec_listP22_mesa_glsl_parse_state
   fun:create_new_program
   fun:_mesa_get_fixed_func_fragment_program
   fun:update_program
   fun:_mesa_update_state_locked
   fun:_mesa_update_state
   fun:vbo_exec_vtx_flush
   fun:vbo_exec_FlushVertices_internal
   fun:vbo_exec_FlushVertices
}
{
   <insert_a_suppression_name_here>
   Memcheck:Leak
   match-leak-kinds: reachable
   fun:malloc
   fun:UnknownInlinedFun
   fun:UnknownInlinedFun
   fun:xcb_connect_to_fd
   fun:xcb_connect_to_display_with_auth_info
   fun:_XConnectXCB
   fun:XOpenDisplay
   fun:_ZN3olc14Platform_Linux16CreateWindowPaneERKNS_11v2d_genericIiEERS2_b
   fun:_ZN3olc15PixelGameEngine5StartEv
   fun:main
}
{
   <insert_a_suppression_name_here>
   Memcheck:Leak
   match-leak-kinds: reachable
   fun:malloc
   fun:_XInitDisplayLock
   fun:XOpenDisplay
   fun:_ZN3olc14Platform_Linux16CreateWindowPaneERKNS_11v2d_genericIiEERS2_b
   fun:_ZN3olc15PixelGameEngine5StartEv
   fun:main
}
{
   <insert_a_suppression_name_here>
   Memcheck:Leak
   match-leak-kinds: reachable
   fun:malloc
   fun:strdup
   fun:UnknownInlinedFun
   fun:verify_selinuxmnt
   fun:UnknownInlinedFun
   fun:init_lib
   fun:call_init
   fun:call_init
   fun:_dl_init
   fun:_dl_catch_exception
   fun:dl_open_worker
   fun:_dl_catch_exception
   fun:_dl_open
   fun:dlopen_doit
   fun:_dl_catch_exception
}
{
   <insert_a_suppression_name_here>
   Memcheck:Leak
   match-leak-kinds: reachable
   fun:_Znwm
   fun:UnknownInlinedFun
   fun:UnknownInlinedFun
   fun:UnknownInlinedFun
   fun:UnknownInlinedFun
   fun:UnknownInlinedFun
   fun:UnknownInlinedFun
   fun:_GLOBAL__sub_I_MLRegallocEvictAdvisor.cpp
   fun:call_init
   fun:call_init
   fun:_dl_init
   fun:_dl_catch_exception
   fun:dl_open_worker
   fun:_dl_catch_exception
   fun:_dl_open
   fun:dlopen_doit
   fun:_dl_catch_exception
   fun:_dl_catch_error
   fun:_dlerror_run
}
{
   <insert_a_suppression_name_here>
   Memcheck:Leak
   match-leak-kinds: reachable
   fun:calloc
   fun:ac_addrlib_create
   fun:do_winsys_init
   fun:amdgpu_winsys_create
   fun:radeonsi_screen_create
   fun:pipe_radeonsi_create_screen
   fun:pipe_loader_create_screen_vk
   fun:dri2_init_screen
   fun:driCreateNewScreen2
   fun:dri3_create_screen
   fun:AllocAndFetchScreenConfigs
   fun:__glXInitialize
   fun:GetGLXPrivScreenConfig
   fun:glXChooseVisual
   fun:_ZN3olc14Platform_Linux16CreateWindowPaneERKNS_11v2d_genericIiEERS2_b
}
{
   <insert_a_suppression_name_here>
   Memcheck:Leak
   match-leak-kinds: reachable
   fun:_Znwm
   fun:LLVMCreatePassManager
   fun:ac_create_passmgr
   fun:ac_init_llvm_compiler
   fun:si_init_compiler
   fun:radeonsi_screen_create_impl
   fun:amdgpu_winsys_create
   fun:radeonsi_screen_create
   fun:pipe_radeonsi_create_screen
   fun:pipe_loader_create_screen_vk
   fun:dri2_init_screen
   fun:driCreateNewScreen2
   fun:dri3_create_screen
}
{
   <insert_a_suppression_name_here>
   Memcheck:Leak
   match-leak-kinds: reachable
   fun:_Znwm
   fun:allocate
   fun:allocate
   fun:_M_allocate
   fun:_M_realloc_insert<std::pair<llvm::Pass *, llvm::legacy::FunctionPassManagerImpl *> >
   fun:emplace_back<std::pair<llvm::Pass *, llvm::legacy::FunctionPassManagerImpl *> >
   fun:push_back
   fun:_ZN4llvm9MapVectorIPNS_4PassEPNS_6legacy23FunctionPassManagerImplENS_8DenseMapIS2_jNS_12DenseMapInfoIS2_vEENS_6detail12DenseMapPairIS2_jEEEESt6vectorISt4pairIS2_S5_ESaISF_EEEixERKS2_
   fun:_ZN12_GLOBAL__N_113MPPassManager25addLowerLevelRequiredPassEPN4llvm4PassES3_.llvm.15189408220938163880
   fun:_ZN4llvm13PMDataManager3addEPNS_4PassEb
   fun:_ZN4llvm17PMTopLevelManager12schedulePassEPNS_4PassE
   fun:_ZN4llvm16TargetPassConfig7addPassEPNS_4PassE
   fun:_ZN4llvm16AMDGPUPassConfig11addIRPassesEv
   fun:_ZN4llvm16TargetPassConfig13addISelPassesEv
   fun:addPassesToGenerateCode
   fun:_ZN4llvm17LLVMTargetMachine19addPassesToEmitFileERNS_6legacy15PassManagerBaseERNS_17raw_pwrite_streamEPS4_NS_15CodeGenFileTypeEbPNS_28MachineModuleInfoWrapperPassE
   fun:ac_create_llvm_passes
   fun:si_init_compiler
   fun:radeonsi_screen_create_impl
}
{
   <insert_a_suppression_name_here>
   Memcheck:Leak
   match-leak-kinds: reachable
   fun:_Znwm
   fun:_ZN4llvm22createAMDGPUAsmBackendERKNS_6TargetERKNS_15MCSubtargetInfoERKNS_14MCRegisterInfoERKNS_15MCTargetOptionsE
   fun:createMCAsmBackend
   fun:_ZN4llvm17LLVMTargetMachine16createMCStreamerERNS_17raw_pwrite_streamEPS1_NS_15CodeGenFileTypeERNS_9MCContextE
   fun:addAsmPrinter
   fun:_ZN4llvm17LLVMTargetMachine19addPassesToEmitFileERNS_6legacy15PassManagerBaseERNS_17raw_pwrite_streamEPS4_NS_15CodeGenFileTypeEbPNS_28MachineModuleInfoWrapperPassE
   fun:ac_create_llvm_passes
   fun:si_init_compiler
   fun:radeonsi_screen_create_impl
   fun:amdgpu_winsys_create
   fun:radeonsi_screen_create
   fun:pipe_radeonsi_create_screen
   fun:pipe_loader_create_screen_vk
   fun:dri2_init_screen
}
{
   <insert_a_suppression_name_here>
   Memcheck:Leak
   match-leak-kinds: reachable
   fun:_Znwm
   fun:UnknownInlinedFun
   fun:UnknownInlinedFun
   fun:_ZNK12_GLOBAL__N_119ELFAMDGPUAsmBackend24createObjectTargetWriterEv
   fun:_ZNK4llvm12MCAsmBackend18createObjectWriterERNS_17raw_pwrite_streamE
   fun:_ZN4llvm17LLVMTargetMachine16createMCStreamerERNS_17raw_pwrite_streamEPS1_NS_15CodeGenFileTypeERNS_9MCContextE
   fun:addAsmPrinter
   fun:_ZN4llvm17LLVMTargetMachine19addPassesToEmitFileERNS_6legacy15PassManagerBaseERNS_17raw_pwrite_streamEPS4_NS_15CodeGenFileTypeEbPNS_28MachineModuleInfoWrapperPassE
   fun:ac_create_llvm_passes
   fun:si_init_compiler
   fun:radeonsi_screen_create_impl
   fun:amdgpu_winsys_create
   fun:radeonsi_screen_create
   fun:pipe_radeonsi_create_screen
   fun:pipe_loader_create_screen_vk
}
{
   <insert_a_suppression_name_here>
   Memcheck:Leak
   match-leak-kinds: reachable
   fun:calloc
   fun:st_api_create_context
   fun:dri_create_context
   fun:driCreateContextAttribs
   fun:dri3_create_context_attribs
   fun:dri_common_create_context
   fun:CreateContext
   fun:glXCreateContext
   fun:glXCreateContext
   fun:_ZN3olc14Renderer_OGL1012CreateDeviceESt6vectorIPvSaIS2_EEbb
   fun:_ZN3olc14Platform_Linux14CreateGraphicsEbbRKNS_11v2d_genericIiEES4_
   fun:_ZN3olc15PixelGameEngine17olc_PrepareEngineEv
}
{
   <insert_a_suppression_name_here>
   Memcheck:Leak
   match-leak-kinds: reachable
   fun:calloc
   fun:st_init_extensions
   fun:st_create_context_priv
   fun:st_create_context
   fun:st_api_create_context
   fun:dri_create_context
   fun:driCreateContextAttribs
   fun:dri3_create_context_attribs
   fun:dri_common_create_context
   fun:CreateContext
   fun:glXCreateContext
   fun:glXCreateContext
   fun:_ZN3olc14Renderer_OGL1012CreateDeviceESt6vectorIPvSaIS2_EEbb
}
{
   <insert_a_suppression_name_here>
   Memcheck:Leak
   match-leak-kinds: reachable
   fun:malloc
   fun:_ZL25si_create_shader_selectorP12pipe_contextPK17pipe_shader_state
   fun:util_live_shader_cache_get
   fun:_ZL16si_create_shaderP12pipe_contextPK17pipe_shader_state
   fun:ureg_create_shader
   fun:ureg_create_shader_with_so_and_destroy
   fun:ureg_create_shader_and_destroy
   fun:util_make_fragment_tex_shader
   fun:blitter_get_fs_texfetch_col
   fun:util_blitter_blit_generic
   fun:si_resource_copy_region
   fun:si_copy_from_staging_texture
   fun:si_texture_transfer_unmap
   fun:pipe_texture_unmap
   fun:u_default_texture_subdata
   fun:st_TexSubImage
}
{
   <insert_a_suppression_name_here>
   Memcheck:Leak
   match-leak-kinds: reachable
   fun:malloc
   fun:_ZL25si_create_shader_selectorP12pipe_contextPK17pipe_shader_state
   fun:util_live_shader_cache_get
   fun:_ZL16si_create_shaderP12pipe_contextPK17pipe_shader_state
   fun:ureg_create_shader
   fun:ureg_create_shader_with_so_and_destroy
   fun:ureg_create_shader_and_destroy
   fun:si_get_blitter_vs
   fun:_ZL17si_draw_rectangleP15blitter_contextPvPFS1_S0_Eiiiifj19blitter_attrib_typePK14blitter_attrib
   fun:blitter_draw_tex
   fun:do_blits
   fun:util_blitter_blit_generic
   fun:si_resource_copy_region
   fun:si_copy_from_staging_texture
   fun:si_texture_transfer_unmap
}
{
   <insert_a_suppression_name_here>
   Memcheck:Leak
   match-leak-kinds: reachable
   fun:_Znwm
   fun:LLVMCreatePassManager
   fun:ac_create_passmgr
   fun:ac_init_llvm_compiler
   fun:si_init_compiler
   fun:si_shader_select_with_key<false, si_shader_key_ge>
   fun:si_shader_select
   fun:_Z17si_update_shadersIL13amd_gfx_level11EL11si_has_tess0EL9si_has_gs0EL10si_has_ngg0EEbP10si_context
   fun:si_draw<(amd_gfx_level)11, (si_has_tess)0, (si_has_gs)0, (si_has_ngg)0, (si_is_draw_vertex_state)0, (util_popcnt)0>
   fun:_Z11si_draw_vboIL13amd_gfx_level11EL11si_has_tess0EL9si_has_gs0EL10si_has_ngg0EEvP12pipe_contextPK14pipe_draw_infojPK23pipe_draw_indirect_infoPK26pipe_draw_start_count_biasj
   fun:_ZL17si_draw_rectangleP15blitter_contextPvPFS1_S0_Eiiiifj19blitter_attrib_typePK14blitter_attrib
   fun:blitter_draw_tex
   fun:do_blits
   fun:util_blitter_blit_generic
   fun:si_resource_copy_region
}
{
   <insert_a_suppression_name_here>
   Memcheck:Leak
   match-leak-kinds: reachable
   fun:_Znwm
   fun:allocate
   fun:allocate
   fun:_M_allocate
   fun:_M_realloc_insert<std::pair<llvm::Pass *, llvm::legacy::FunctionPassManagerImpl *> >
   fun:emplace_back<std::pair<llvm::Pass *, llvm::legacy::FunctionPassManagerImpl *> >
   fun:push_back
   fun:_ZN4llvm9MapVectorIPNS_4PassEPNS_6legacy23FunctionPassManagerImplENS_8DenseMapIS2_jNS_12DenseMapInfoIS2_vEENS_6detail12DenseMapPairIS2_jEEEESt6vectorISt4pairIS2_S5_ESaISF_EEEixERKS2_
   fun:_ZN12_GLOBAL__N_113MPPassManager25addLowerLevelRequiredPassEPN4llvm4PassES3_.llvm.15189408220938163880
   fun:_ZN4llvm13PMDataManager3addEPNS_4PassEb
   fun:_ZN4llvm17PMTopLevelManager12schedulePassEPNS_4PassE
   fun:_ZN4llvm16TargetPassConfig7addPassEPNS_4PassE
   fun:_ZN4llvm16AMDGPUPassConfig11addIRPassesEv
   fun:_ZN4llvm16TargetPassConfig13addISelPassesEv
   fun:addPassesToGenerateCode
   fun:_ZN4llvm17LLVMTargetMachine19addPassesToEmitFileERNS_6legacy15PassManagerBaseERNS_17raw_pwrite_streamEPS4_NS_15CodeGenFileTypeEbPNS_28MachineModuleInfoWrapperPassE
   fun:ac_create_llvm_passes
   fun:si_init_compiler
   fun:si_shader_select_with_key<false, si_shader_key_ge>
   fun:si_shader_select
}
{
   <insert_a_suppression_name_here>
   Memcheck:Leak
   match-leak-kinds: reachable
   fun:_Znwm
   fun:_ZN4llvm22createAMDGPUAsmBackendERKNS_6TargetERKNS_15MCSubtargetInfoERKNS_14MCRegisterInfoERKNS_15MCTargetOptionsE
   fun:createMCAsmBackend
   fun:_ZN4llvm17LLVMTargetMachine16createMCStreamerERNS_17raw_pwrite_streamEPS1_NS_15CodeGenFileTypeERNS_9MCContextE
   fun:addAsmPrinter
   fun:_ZN4llvm17LLVMTargetMachine19addPassesToEmitFileERNS_6legacy15PassManagerBaseERNS_17raw_pwrite_streamEPS4_NS_15CodeGenFileTypeEbPNS_28MachineModuleInfoWrapperPassE
   fun:ac_create_llvm_passes
   fun:si_init_compiler
   fun:si_shader_select_with_key<false, si_shader_key_ge>
   fun:si_shader_select
   fun:_Z17si_update_shadersIL13amd_gfx_level11EL11si_has_tess0EL9si_has_gs0EL10si_has_ngg0EEbP10si_context
   fun:si_draw<(amd_gfx_level)11, (si_has_tess)0, (si_has_gs)0, (si_has_ngg)0, (si_is_draw_vertex_state)0, (util_popcnt)0>
   fun:_Z11si_draw_vboIL13amd_gfx_level11EL11si_has_tess0EL9si_has_gs0EL10si_has_ngg0EEvP12pipe_contextPK14pipe_draw_infojPK23pipe_draw_indirect_infoPK26pipe_draw_start_count_biasj
   fun:_ZL17si_draw_rectangleP15blitter_contextPvPFS1_S0_Eiiiifj19blitter_attrib_typePK14blitter_attrib
   fun:blitter_draw_tex
   fun:do_blits
}
{
   <insert_a_suppression_name_here>
   Memcheck:Leak
   match-leak-kinds: reachable
   fun:_Znwm
   fun:UnknownInlinedFun
   fun:UnknownInlinedFun
   fun:_ZNK12_GLOBAL__N_119ELFAMDGPUAsmBackend24createObjectTargetWriterEv
   fun:_ZNK4llvm12MCAsmBackend18createObjectWriterERNS_17raw_pwrite_streamE
   fun:_ZN4llvm17LLVMTargetMachine16createMCStreamerERNS_17raw_pwrite_streamEPS1_NS_15CodeGenFileTypeERNS_9MCContextE
   fun:addAsmPrinter
   fun:_ZN4llvm17LLVMTargetMachine19addPassesToEmitFileERNS_6legacy15PassManagerBaseERNS_17raw_pwrite_streamEPS4_NS_15CodeGenFileTypeEbPNS_28MachineModuleInfoWrapperPassE
   fun:ac_create_llvm_passes
   fun:si_init_compiler
   fun:si_shader_select_with_key<false, si_shader_key_ge>
   fun:si_shader_select
   fun:_Z17si_update_shadersIL13amd_gfx_level11EL11si_has_tess0EL9si_has_gs0EL10si_has_ngg0EEbP10si_context
   fun:si_draw<(amd_gfx_level)11, (si_has_tess)0, (si_has_gs)0, (si_has_ngg)0, (si_is_draw_vertex_state)0, (util_popcnt)0>
   fun:_Z11si_draw_vboIL13amd_gfx_level11EL11si_has_tess0EL9si_has_gs0EL10si_has_ngg0EEvP12pipe_contextPK14pipe_draw_infojPK23pipe_draw_indirect_infoPK26pipe_draw_start_count_biasj
   fun:_ZL17si_draw_rectangleP15blitter_contextPvPFS1_S0_Eiiiifj19blitter_attrib_typePK14blitter_attrib
   fun:blitter_draw_tex
}
{
   <insert_a_suppression_name_here>
   Memcheck:Leak
   match-leak-kinds: reachable
   fun:_Znwm
   fun:allocate
   fun:allocate
   fun:_M_allocate
   fun:_M_realloc_insert<const std::pair<const void *, llvm::Pass *> &>
   fun:push_back
   fun:addAnalysisImplsPair
   fun:_ZN4llvm13PMDataManager22initializeAnalysisImplEPNS_4PassE
   fun:runOnModule
   fun:_ZN4llvm6legacy15PassManagerImpl3runERNS_6ModuleE
   fun:UnknownInlinedFun
   fun:LLVMRunPassManager
   fun:si_llvm_optimize_module
   fun:si_get_shader_part
   fun:si_shader_select_ps_parts
   fun:si_create_shader_variant
   fun:_ZL23si_build_shader_variantP9si_shaderib
   fun:si_shader_select_with_key<false, si_shader_key_ps>
   fun:si_shader_select
   fun:_Z17si_update_shadersIL13amd_gfx_level11EL11si_has_tess0EL9si_has_gs0EL10si_has_ngg0EEbP10si_context
   fun:si_draw<(amd_gfx_level)11, (si_has_tess)0, (si_has_gs)0, (si_has_ngg)0, (si_is_draw_vertex_state)0, (util_popcnt)0>
   fun:_Z11si_draw_vboIL13amd_gfx_level11EL11si_has_tess0EL9si_has_gs0EL10si_has_ngg0EEvP12pipe_contextPK14pipe_draw_infojPK23pipe_draw_indirect_infoPK26pipe_draw_start_count_biasj
   fun:_ZL17si_draw_rectangleP15blitter_contextPvPFS1_S0_Eiiiifj19blitter_attrib_typePK14blitter_attrib
}
{
   <insert_a_suppression_name_here>
   Memcheck:Leak
   match-leak-kinds: reachable
   fun:_Znwm
   fun:_ZN4llvm19TargetTransformInfoC1ERKNS_10DataLayoutE
   fun:_ZN4llvm16TargetIRAnalysis13getDefaultTTIERKNS_8FunctionE
   fun:__invoke_impl<llvm::TargetTransformInfo, llvm::TargetTransformInfo (*&)(const llvm::Function &), const llvm::Function &>
   fun:__invoke_r<llvm::TargetTransformInfo, llvm::TargetTransformInfo (*&)(const llvm::Function &), const llvm::Function &>
   fun:_ZNSt17_Function_handlerIFN4llvm19TargetTransformInfoERKNS0_8FunctionEEPS5_E9_M_invokeERKSt9_Any_dataS4_
   fun:operator()
   fun:run
   fun:_ZN4llvm30TargetTransformInfoWrapperPass6getTTIERKNS_8FunctionE
   fun:_ZN4llvm24InstructionCombiningPass13runOnFunctionERNS_8FunctionE
   fun:_ZN4llvm13FPPassManager13runOnFunctionERNS_8FunctionE
   fun:_ZN4llvm13FPPassManager11runOnModuleERNS_6ModuleE
   fun:runOnModule
   fun:_ZN4llvm6legacy15PassManagerImpl3runERNS_6ModuleE
   fun:UnknownInlinedFun
   fun:LLVMRunPassManager
   fun:si_llvm_optimize_module
   fun:si_get_shader_part
}
{
   <insert_a_suppression_name_here>
   Memcheck:Leak
   match-leak-kinds: reachable
   fun:_Znwm
   fun:_ZN4llvm12GCNSubtargetC1ERKNS_6TripleENS_9StringRefES4_RKNS_16GCNTargetMachineE
   fun:make_unique<llvm::GCNSubtarget, const llvm::Triple &, llvm::StringRef &, llvm::StringRef &, const llvm::GCNTargetMachine &>
   fun:_ZNK4llvm16GCNTargetMachine16getSubtargetImplERKNS_8FunctionE
   fun:_ZN4llvm10GCNTTIImplC1EPKNS_19AMDGPUTargetMachineERKNS_8FunctionE
   fun:_ZNK4llvm16GCNTargetMachine22getTargetTransformInfoERKNS_8FunctionE
   fun:operator()
   fun:__invoke_impl<llvm::TargetTransformInfo, (lambda at /builddir/build/BUILD/llvm-15.0.7.src/lib/Target/TargetMachine.cpp:219:7) &, const llvm::Function &>
   fun:__invoke_r<llvm::TargetTransformInfo, (lambda at /builddir/build/BUILD/llvm-15.0.7.src/lib/Target/TargetMachine.cpp:219:7) &, const llvm::Function &>
   fun:_ZNSt17_Function_handlerIFN4llvm19TargetTransformInfoERKNS0_8FunctionEEZNKS0_13TargetMachine19getTargetIRAnalysisEvE3$_0E9_M_invokeERKSt9_Any_dataS4_.llvm.939216426106684745
   fun:UnknownInlinedFun
   fun:UnknownInlinedFun
   fun:UnknownInlinedFun
   fun:_ZN4llvm22AssumptionCacheTracker18getAssumptionCacheERNS_8FunctionE
   fun:_ZN12_GLOBAL__N_118InferAddressSpaces13runOnFunctionERN4llvm8FunctionE.llvm.10078684876576591733
   fun:_ZN4llvm13FPPassManager13runOnFunctionERNS_8FunctionE
   fun:_ZN4llvm13FPPassManager11runOnModuleERNS_6ModuleE
   fun:runOnModule
   fun:_ZN4llvm6legacy15PassManagerImpl3runERNS_6ModuleE
   fun:ac_compile_module_to_elf
}
{
   <insert_a_suppression_name_here>
   Memcheck:Leak
   match-leak-kinds: reachable
   fun:malloc
   fun:UnknownInlinedFun
   fun:_ZN4llvm15SmallVectorBaseIjE8grow_podEPvmm
   fun:grow_pod
   fun:grow
   fun:reserveForParamAndGetAddressImpl<llvm::SmallVectorTemplateBase<std::pair<llvm::VNInfo *, llvm::DomTreeNodeBase<llvm::MachineBasicBlock> *>, true> >
   fun:reserveForParamAndGetAddress
   fun:append
   fun:resize
   fun:resize
   fun:_ZN4llvm13LiveRangeCalc15resetLiveOutMapEv
   fun:UnknownInlinedFun
   fun:computeVirtRegInterval
   fun:_ZN4llvm13LiveIntervals15computeVirtRegsEv
   fun:_ZN4llvm13LiveIntervals20runOnMachineFunctionERNS_15MachineFunctionE
   fun:_ZN4llvm19MachineFunctionPass13runOnFunctionERNS_8FunctionE
   fun:_ZN4llvm13FPPassManager13runOnFunctionERNS_8FunctionE
   fun:RunPassOnSCC
   fun:RunAllPassesOnSCC
   fun:_ZN12_GLOBAL__N_113CGPassManager11runOnModuleERN4llvm6ModuleE
   fun:runOnModule
   fun:_ZN4llvm6legacy15PassManagerImpl3runERNS_6ModuleE
   fun:ac_compile_module_to_elf
   fun:si_compile_llvm
   fun:si_get_shader_part
}
{
   <insert_a_suppression_name_here>
   Memcheck:Leak
   match-leak-kinds: reachable
   fun:_Znwm
   fun:allocate
   fun:allocate
   fun:_M_allocate
   fun:_M_realloc_insert<std::pair<llvm::MachineBasicBlock *, (anonymous namespace)::BlockInfo> >
   fun:emplace_back<std::pair<llvm::MachineBasicBlock *, (anonymous namespace)::BlockInfo> >
   fun:push_back
   fun:_ZN4llvm9MapVectorIPNS_17MachineBasicBlockEN12_GLOBAL__N_19BlockInfoENS_8DenseMapIS2_jNS_12DenseMapInfoIS2_vEENS_6detail12DenseMapPairIS2_jEEEESt6vectorISt4pairIS2_S4_ESaISE_EEEixERKS2_
   fun:scanInstructions
   fun:analyzeFunction
   fun:_ZN12_GLOBAL__N_115SIWholeQuadMode20runOnMachineFunctionERN4llvm15MachineFunctionE
   fun:_ZN4llvm19MachineFunctionPass13runOnFunctionERNS_8FunctionE
   fun:_ZN4llvm13FPPassManager13runOnFunctionERNS_8FunctionE
   fun:RunPassOnSCC
   fun:RunAllPassesOnSCC
   fun:_ZN12_GLOBAL__N_113CGPassManager11runOnModuleERN4llvm6ModuleE
   fun:runOnModule
   fun:_ZN4llvm6legacy15PassManagerImpl3runERNS_6ModuleE
   fun:ac_compile_module_to_elf
   fun:si_compile_llvm
   fun:si_get_shader_part
   fun:si_shader_select_ps_parts
   fun:si_create_shader_variant
   fun:_ZL23si_build_shader_variantP9si_shaderib
}
{
   <insert_a_suppression_name_here>
   Memcheck:Leak
   match-leak-kinds: reachable
   fun:_Znwm
   fun:_ZN4llvm12GCNSubtargetC1ERKNS_6TripleENS_9StringRefES4_RKNS_16GCNTargetMachineE
   fun:make_unique<llvm::GCNSubtarget, const llvm::Triple &, llvm::StringRef &, llvm::StringRef &, const llvm::GCNTargetMachine &>
   fun:_ZNK4llvm16GCNTargetMachine16getSubtargetImplERKNS_8FunctionE
   fun:getSubtarget<llvm::GCNSubtarget>
   fun:_ZN4llvm16AMDGPUAsmPrinter18initializeTargetIDERKNS_6ModuleE
   fun:_ZN4llvm16AMDGPUAsmPrinter18initTargetStreamerERNS_6ModuleE
   fun:_ZN4llvm16AMDGPUAsmPrinter20runOnMachineFunctionERNS_15MachineFunctionE
   fun:_ZN4llvm19MachineFunctionPass13runOnFunctionERNS_8FunctionE
   fun:_ZN4llvm13FPPassManager13runOnFunctionERNS_8FunctionE
   fun:_ZN4llvm13FPPassManager11runOnModuleERNS_6ModuleE
   fun:runOnModule
   fun:_ZN4llvm6legacy15PassManagerImpl3runERNS_6ModuleE
   fun:ac_compile_module_to_elf
   fun:si_compile_llvm
}
{
   <insert_a_suppression_name_here>
   Memcheck:Leak
   match-leak-kinds: reachable
   fun:malloc
   fun:_mesa_shader_cache_insert
   fun:_mesa_get_fixed_func_fragment_program
   fun:update_program
   fun:_mesa_update_state_locked
   fun:_mesa_update_state
   fun:_mesa_Begin
   fun:_ZN3olc14Renderer_OGL1013DrawLayerQuadERKNS_11v2d_genericIfEES4_NS_5PixelE
   fun:_ZN3olc15PixelGameEngine14olc_CoreUpdateEv
   fun:_ZN3olc15PixelGameEngine12EngineThreadEv
   fun:_ZSt13__invoke_implIvMN3olc15PixelGameEngineEFvvEPS1_JEET_St21__invoke_memfun_derefOT0_OT1_DpOT2_
   fun:_ZSt8__invokeIMN3olc15PixelGameEngineEFvvEJPS1_EENSt15__invoke_resultIT_JDpT0_EE4typeEOS6_DpOS7_
}
{
   <insert_a_suppression_name_here>
   Memcheck:Leak
   match-leak-kinds: reachable
   fun:malloc
   fun:_mesa_shader_cache_insert
   fun:_mesa_get_fixed_func_fragment_program
   fun:update_program
   fun:_mesa_update_state_locked
   fun:_mesa_update_state
   fun:vbo_exec_vtx_flush
   fun:vbo_exec_FlushVertices_internal
   fun:vbo_exec_FlushVertices
   fun:st_context_flush
   fun:dri_flush
   fun:loader_dri3_swap_buffers_msc
   fun:dri3_swap_buffers
}
{
   <insert_a_suppression_name_here>
   Memcheck:Leak
   match-leak-kinds: reachable
   fun:_Znwm
   fun:make_unique<llvm::MachineOptimizationRemarkEmitter, llvm::MachineFunction &, llvm::MachineBlockFrequencyInfo *&>
   fun:_ZN4llvm36MachineOptimizationRemarkEmitterPass20runOnMachineFunctionERNS_15MachineFunctionE
   fun:_ZN4llvm19MachineFunctionPass13runOnFunctionERNS_8FunctionE
   fun:_ZN4llvm13FPPassManager13runOnFunctionERNS_8FunctionE
   fun:_ZN4llvm13FPPassManager11runOnModuleERNS_6ModuleE
   fun:runOnModule
   fun:_ZN4llvm6legacy15PassManagerImpl3runERNS_6ModuleE
   fun:ac_compile_module_to_elf
   fun:si_compile_llvm
   fun:si_get_shader_part
   fun:si_shader_select_ps_parts
   fun:si_create_shader_variant
   fun:_ZL23si_build_shader_variantP9si_shaderib
   fun:si_shader_select_with_key<false, si_shader_key_ps>
   fun:si_shader_select
}
{
   <insert_a_suppression_name_here>
   Memcheck:Leak
   match-leak-kinds: reachable
   fun:_Znwm
   fun:allocate
   fun:allocate
   fun:_M_allocate
   fun:_ZNSt6vectorISt10unique_ptrIN4llvm9AAResults7ConceptESt14default_deleteIS3_EESaIS6_EE17_M_realloc_insertIJPNS2_5ModelINS1_13BasicAAResultEEEEEEvN9__gnu_cxx17__normal_iteratorIPS6_S8_EEDpOT_
   fun:emplace_back<llvm::AAResults::Model<llvm::BasicAAResult> *>
   fun:addAAResult<llvm::BasicAAResult>
   fun:_ZN4llvm20AAResultsWrapperPass13runOnFunctionERNS_8FunctionE
   fun:_ZN4llvm13FPPassManager13runOnFunctionERNS_8FunctionE
   fun:_ZN4llvm13FPPassManager11runOnModuleERNS_6ModuleE
   fun:runOnModule
   fun:_ZN4llvm6legacy15PassManagerImpl3runERNS_6ModuleE
   fun:UnknownInlinedFun
   fun:LLVMRunPassManager
   fun:si_llvm_optimize_module
   fun:si_get_shader_part
   fun:si_shader_select_ps_parts
   fun:si_create_shader_variant
   fun:_ZL23si_build_shader_variantP9si_shaderib
   fun:si_shader_select_with_key<false, si_shader_key_ps>
   fun:si_shader_select
}
{
   <insert_a_suppression_name_here>
   Memcheck:Leak
   match-leak-kinds: possible
   fun:malloc
   fun:strdup
   fun:_ZN9glsl_type18get_array_instanceEPKS_jj
   fun:read_variable
   fun:read_var_list
   fun:nir_deserialize
   fun:load_nir_from_disk_cache
   fun:tgsi_to_nir
   fun:si_create_compute_state
   fun:si_create_dma_compute_shader
   fun:si_compute_do_clear_or_copy
   fun:si_clear_buffer
   fun:si_execute_clears.part.0
   fun:si_texture_create_object
}
{
   <insert_a_suppression_name_here>
   Memcheck:Leak
   match-leak-kinds: possible
   fun:calloc
   fun:_mesa_symbol_table_push_scope
   fun:_mesa_symbol_table_ctor
   fun:_ZN17glsl_symbol_tableC1Ev
   fun:_ZN22_mesa_glsl_parse_stateC1EP10gl_context16pipe_shader_typePv
   fun:create_new_program
   fun:_mesa_get_fixed_func_fragment_program
   fun:update_program
   fun:_mesa_update_state_locked
   fun:_mesa_update_state
   fun:_mesa_Begin
   fun:_ZN3olc14Renderer_OGL1013DrawLayerQuadERKNS_11v2d_genericIfEES4_NS_5PixelE
   fun:_ZN3olc15PixelGameEngine14olc_CoreUpdateEv
   fun:_ZN3olc15PixelGameEngine12EngineThreadEv
}
{
   <insert_a_suppression_name_here>
   Memcheck:Leak
   match-leak-kinds: possible
   fun:malloc
   fun:strdup
   fun:_ZN9glsl_type18get_array_instanceEPKS_jj
   fun:array
   fun:generate_uniforms
   fun:_Z31_mesa_glsl_initialize_variablesP9exec_listP22_mesa_glsl_parse_state
   fun:create_new_program
   fun:_mesa_get_fixed_func_fragment_program
   fun:update_program
   fun:_mesa_update_state_locked
   fun:_mesa_update_state
   fun:_mesa_Begin
   fun:_ZN3olc14Renderer_OGL1013DrawLayerQuadERKNS_11v2d_genericIfEES4_NS_5PixelE
   fun:_ZN3olc15PixelGameEngine14olc_CoreUpdateEv
   fun:_ZN3olc15PixelGameEngine12EngineThreadEv
}
{
   <insert_a_suppression_name_here>
   Memcheck:Leak
   match-leak-kinds: possible
   fun:malloc
   fun:strdup
   fun:_ZN9glsl_type18get_array_instanceEPKS_jj
   fun:array
   fun:generate_varyings
   fun:_Z31_mesa_glsl_initialize_variablesP9exec_listP22_mesa_glsl_parse_state
   fun:create_new_program
   fun:_mesa_get_fixed_func_fragment_program
   fun:update_program
   fun:_mesa_update_state_locked
   fun:_mesa_update_state
   fun:_mesa_Begin
   fun:_ZN3olc14Renderer_OGL1013DrawLayerQuadERKNS_11v2d_genericIfEES4_NS_5PixelE
   fun:_ZN3olc15PixelGameEngine14olc_CoreUpdateEv
   fun:_ZN3olc15PixelGameEngine12EngineThreadEv
}
{
   <insert_a_suppression_name_here>
   Memcheck:Leak
   match-leak-kinds: possible
   fun:malloc
   fun:strdup
   fun:_ZN9glsl_type18get_array_instanceEPKS_jj
   fun:prog_to_nir
   fun:st_translate_prog_to_nir
   fun:st_translate_vertex_program
   fun:st_program_string_notify
   fun:_mesa_get_fixed_func_vertex_program
   fun:update_program
   fun:_mesa_update_state_locked
   fun:_mesa_update_state
   fun:_mesa_Begin
   fun:_ZN3olc14Renderer_OGL1013DrawLayerQuadERKNS_11v2d_genericIfEES4_NS_5PixelE
   fun:_ZN3olc15PixelGameEngine14olc_CoreUpdateEv
}
{
   <insert_a_suppression_name_here>
   Memcheck:Leak
   match-leak-kinds: possible
   fun:calloc
   fun:_mesa_symbol_table_push_scope
   fun:_mesa_symbol_table_ctor
   fun:_ZN17glsl_symbol_tableC1Ev
   fun:_ZN22_mesa_glsl_parse_stateC1EP10gl_context16pipe_shader_typePv
   fun:create_new_program
   fun:_mesa_get_fixed_func_fragment_program
   fun:update_program
   fun:_mesa_update_state_locked
   fun:_mesa_update_state
   fun:vbo_exec_vtx_flush
   fun:vbo_exec_FlushVertices_internal
   fun:vbo_exec_FlushVertices
   fun:st_context_flush
   fun:dri_flush
}
{
   <insert_a_suppression_name_here>
   Memcheck:Leak
   match-leak-kinds: possible
   fun:malloc
   fun:strdup
   fun:_ZN9glsl_type18get_array_instanceEPKS_jj
   fun:fixup_type
   fun:fixup_type
   fun:_ZN20array_sizing_visitor5visitEP11ir_variable
   fun:_Z19visit_list_elementsP23ir_hierarchical_visitorP9exec_listb
   fun:_Z23link_intrastage_shadersPvP10gl_contextP17gl_shader_programPP9gl_shaderjb
   fun:_Z12link_shadersP10gl_contextP17gl_shader_program
   fun:_mesa_glsl_link_shader
   fun:create_new_program
   fun:_mesa_get_fixed_func_fragment_program
   fun:update_program
   fun:_mesa_update_state_locked
   fun:_mesa_update_state
}
{
   <insert_a_suppression_name_here>
   Memcheck:Leak
   match-leak-kinds: possible
   fun:malloc
   fun:strdup
   fun:_ZN9glsl_type18get_array_instanceEPKS_jj
   fun:prog_to_nir
   fun:st_translate_prog_to_nir
   fun:st_translate_vertex_program
   fun:st_program_string_notify
   fun:_mesa_get_fixed_func_vertex_program
   fun:update_program
   fun:_mesa_update_state_locked
   fun:_mesa_update_state
   fun:vbo_exec_vtx_flush
   fun:vbo_exec_FlushVertices_internal
   fun:vbo_exec_FlushVertices
   fun:st_context_flush
}
{
   <insert_a_suppression_name_here>
   Memcheck:Leak
   match-leak-kinds: reachable
   fun:_Znwm
   fun:UnknownInlinedFun
   fun:UnknownInlinedFun
   fun:UnknownInlinedFun
   fun:UnknownInlinedFun
   fun:UnknownInlinedFun
   fun:pair<const std::__cxx11::basic_string<char, std::char_traits<char>, std::allocator<char> > &, 0UL>
   fun:pair<const std::__cxx11::basic_string<char, std::char_traits<char>, std::allocator<char> > &>
   fun:construct<std::pair<const std::__cxx11::basic_string<char, std::char_traits<char>, std::allocator<char> >, unsigned int>, const std::piecewise_construct_t &, std::tuple<const std::__cxx11::basic_string<char, std::char_traits<char>, std::allocator<char> > &>, std::tuple<> >
   fun:construct<std::pair<const std::__cxx11::basic_string<char, std::char_traits<char>, std::allocator<char> >, unsigned int>, const std::piecewise_construct_t &, std::tuple<const std::__cxx11::basic_string<char, std::char_traits<char>, std::allocator<char> > &>, std::tuple<> >
   fun:_M_construct_node<const std::piecewise_construct_t &, std::tuple<const std::__cxx11::basic_string<char, std::char_traits<char>, std::allocator<char> > &>, std::tuple<> >
   fun:_M_create_node<const std::piecewise_construct_t &, std::tuple<const std::__cxx11::basic_string<char, std::char_traits<char>, std::allocator<char> > &>, std::tuple<> >
   fun:_Auto_node<const std::piecewise_construct_t &, std::tuple<const std::__cxx11::basic_string<char, std::char_traits<char>, std::allocator<char> > &>, std::tuple<> >
   fun:_ZNSt8_Rb_treeINSt7__cxx1112basic_stringIcSt11char_traitsIcESaIcEEESt4pairIKS5_jESt10_Select1stIS8_ESt4lessIS5_ESaIS8_EE22_M_emplace_hint_uniqueIJRKSt21piecewise_construct_tSt5tupleIJRS7_EESJ_IJEEEEESt17_Rb_tree_iteratorIS8_ESt23_Rb_tree_const_iteratorIS8_EDpOT_
   fun:_ZNSt3mapINSt7__cxx1112basic_stringIcSt11char_traitsIcESaIcEEEjSt4lessIS5_ESaISt4pairIKS5_jEEEixERS9_
   fun:_ZN4llvm12UniqueVectorINSt7__cxx1112basic_stringIcSt11char_traitsIcESaIcEEEE6insertERKS6_
   fun:_ZN4llvm12DebugCounter10addCounterERKNSt7__cxx1112basic_stringIcSt11char_traitsIcESaIcEEES8_
   fun:_ZN4llvm12DebugCounter15registerCounterENS_9StringRefES1_
   fun:UnknownInlinedFun
   fun:_GLOBAL__sub_I_ConstraintElimination.cpp
   fun:call_init
   fun:call_init
   fun:_dl_init
   fun:_dl_catch_exception
   fun:dl_open_worker
   fun:_dl_catch_exception
}
{
   <insert_a_suppression_name_here>
   Memcheck:Leak
   match-leak-kinds: reachable
   fun:_Znwm
   fun:UnknownInlinedFun
   fun:UnknownInlinedFun
   fun:UnknownInlinedFun
   fun:UnknownInlinedFun
   fun:UnknownInlinedFun
   fun:construct<std::__cxx11::basic_string<char, std::char_traits<char>, std::allocator<char> >, const std::__cxx11::basic_string<char, std::char_traits<char>, std::allocator<char> > &>
   fun:construct<std::__cxx11::basic_string<char, std::char_traits<char>, std::allocator<char> >, const std::__cxx11::basic_string<char, std::char_traits<char>, std::allocator<char> > &>
   fun:push_back
   fun:_ZN4llvm12UniqueVectorINSt7__cxx1112basic_stringIcSt11char_traitsIcESaIcEEEE6insertERKS6_
   fun:_ZN4llvm12DebugCounter10addCounterERKNSt7__cxx1112basic_stringIcSt11char_traitsIcESaIcEEES8_
   fun:_ZN4llvm12DebugCounter15registerCounterENS_9StringRefES1_
   fun:UnknownInlinedFun
   fun:_GLOBAL__sub_I_ConstraintElimination.cpp
   fun:call_init
   fun:call_init
   fun:_dl_init
   fun:_dl_catch_exception
   fun:dl_open_worker
   fun:_dl_catch_exception
   fun:_dl_open
   fun:dlopen_doit
}
{
   <insert_a_suppression_name_here>
   Memcheck:Leak
   match-leak-kinds: reachable
   fun:_Znwm
   fun:UnknownInlinedFun
   fun:UnknownInlinedFun
   fun:UnknownInlinedFun
   fun:UnknownInlinedFun
   fun:UnknownInlinedFun
   fun:_ZN4llvm10TensorSpecC1ERKNSt7__cxx1112basic_stringIcSt11char_traitsIcESaIcEEEiNS_10TensorTypeEmRKSt6vectorIlSaIlEE
   fun:createSpec<long>
   fun:UnknownInlinedFun
   fun:_GLOBAL__sub_I_MLInlineAdvisor.cpp
   fun:call_init
   fun:call_init
   fun:_dl_init
   fun:_dl_catch_exception
   fun:dl_open_worker
   fun:_dl_catch_exception
   fun:_dl_open
   fun:dlopen_doit
   fun:_dl_catch_exception
   fun:_dl_catch_error
}
{
   <insert_a_suppression_name_here>
   Memcheck:Leak
   match-leak-kinds: possible
   fun:malloc
   fun:strdup
   fun:_ZN9glsl_type18get_array_instanceEPKS_jj
   fun:nir_lower_uniforms_to_ubo
   fun:st_finalize_nir
   fun:st_glsl_to_nir_post_opts
   fun:st_link_nir
   fun:link_shader
   fun:st_link_shader
   fun:_mesa_glsl_link_shader
   fun:create_new_program
   fun:_mesa_get_fixed_func_fragment_program
   fun:update_program
   fun:_mesa_update_state_locked
   fun:_mesa_update_state
}
{
   <insert_a_suppression_name_here>
   Memcheck:Leak
   match-leak-kinds: possible
   fun:malloc
   fun:strdup
   fun:_mesa_add_parameter
   fun:_mesa_add_separate_state_parameters
   fun:create_new_program
   fun:_mesa_get_fixed_func_vertex_program
   fun:update_program
   fun:_mesa_update_state_locked
   fun:_mesa_update_state
   fun:_mesa_Begin
   fun:_ZN3olc14Renderer_OGL1013DrawLayerQuadERKNS_11v2d_genericIfEES4_NS_5PixelE
   fun:_ZN3olc15PixelGameEngine14olc_CoreUpdateEv
   fun:_ZN3olc15PixelGameEngine12EngineThreadEv
}
{
   <insert_a_suppression_name_here>
   Memcheck:Leak
   match-leak-kinds: possible
   fun:malloc
   fun:strdup
   fun:_ZN9glsl_type18get_array_instanceEPKS_jj
   fun:nir_lower_uniforms_to_ubo
   fun:st_finalize_nir
   fun:st_prog_to_nir_postprocess
   fun:st_translate_prog_to_nir
   fun:st_translate_vertex_program
   fun:st_program_string_notify
   fun:_mesa_get_fixed_func_vertex_program
   fun:update_program
   fun:_mesa_update_state_locked
   fun:_mesa_update_state
   fun:_mesa_Begin
}
{
   <insert_a_suppression_name_here>
   Memcheck:Leak
   match-leak-kinds: possible
   fun:malloc
   fun:strdup
   fun:_ZN9glsl_type18get_array_instanceEPKS_jj
   fun:nir_lower_uniforms_to_ubo
   fun:st_finalize_nir
   fun:st_prog_to_nir_postprocess
   fun:st_translate_prog_to_nir
   fun:st_translate_vertex_program
   fun:st_program_string_notify
   fun:_mesa_get_fixed_func_vertex_program
   fun:update_program
   fun:_mesa_update_state_locked
   fun:_mesa_update_state
   fun:vbo_exec_vtx_flush
}
{
   <insert_a_suppression_name_here>
   Memcheck:Leak
   match-leak-kinds: reachable
   fun:_Znwm
   fun:UnknownInlinedFun
   fun:UnknownInlinedFun
   fun:UnknownInlinedFun
   fun:UnknownInlinedFun
   fun:UnknownInlinedFun
   fun:pair<const std::__cxx11::basic_string<char, std::char_traits<char>, std::allocator<char> > &, 0UL>
   fun:pair<const std::__cxx11::basic_string<char, std::char_traits<char>, std::allocator<char> > &>
   fun:construct<std::pair<const std::__cxx11::basic_string<char, std::char_traits<char>, std::allocator<char> >, unsigned int>, const std::piecewise_construct_t &, std::tuple<const std::__cxx11::basic_string<char, std::char_traits<char>, std::allocator<char> > &>, std::tuple<> >
   fun:construct<std::pair<const std::__cxx11::basic_string<char, std::char_traits<char>, std::allocator<char> >, unsigned int>, const std::piecewise_construct_t &, std::tuple<const std::__cxx11::basic_string<char, std::char_traits<char>, std::allocator<char> > &>, std::tuple<> >
   fun:_M_construct_node<const std::piecewise_construct_t &, std::tuple<const std::__cxx11::basic_string<char, std::char_traits<char>, std::allocator<char> > &>, std::tuple<> >
   fun:_M_create_node<const std::piecewise_construct_t &, std::tuple<const std::__cxx11::basic_string<char, std::char_traits<char>, std::allocator<char> > &>, std::tuple<> >
   fun:_Auto_node<const std::piecewise_construct_t &, std::tuple<const std::__cxx11::basic_string<char, std::char_traits<char>, std::allocator<char> > &>, std::tuple<> >
   fun:_ZNSt8_Rb_treeINSt7__cxx1112basic_stringIcSt11char_traitsIcESaIcEEESt4pairIKS5_jESt10_Select1stIS8_ESt4lessIS5_ESaIS8_EE22_M_emplace_hint_uniqueIJRKSt21piecewise_construct_tSt5tupleIJRS7_EESJ_IJEEEEESt17_Rb_tree_iteratorIS8_ESt23_Rb_tree_const_iteratorIS8_EDpOT_
   fun:_ZNSt3mapINSt7__cxx1112basic_stringIcSt11char_traitsIcESaIcEEEjSt4lessIS5_ESaISt4pairIKS5_jEEEixERS9_
   fun:_ZN4llvm12UniqueVectorINSt7__cxx1112basic_stringIcSt11char_traitsIcESaIcEEEE6insertERKS6_
   fun:_ZN4llvm12DebugCounter10addCounterERKNSt7__cxx1112basic_stringIcSt11char_traitsIcESaIcEEES8_
   fun:_ZN4llvm12DebugCounter15registerCounterENS_9StringRefES1_
   fun:UnknownInlinedFun
   fun:_GLOBAL__sub_I_InstructionCombining.cpp
   fun:call_init
   fun:call_init
   fun:_dl_init
   fun:_dl_catch_exception
   fun:dl_open_worker
   fun:_dl_catch_exception
}
{
   <insert_a_suppression_name_here>
   Memcheck:Leak
   match-leak-kinds: reachable
   fun:_Znwm
   fun:UnknownInlinedFun
   fun:UnknownInlinedFun
   fun:UnknownInlinedFun
   fun:UnknownInlinedFun
   fun:UnknownInlinedFun
   fun:construct<std::__cxx11::basic_string<char, std::char_traits<char>, std::allocator<char> >, const std::__cxx11::basic_string<char, std::char_traits<char>, std::allocator<char> > &>
   fun:construct<std::__cxx11::basic_string<char, std::char_traits<char>, std::allocator<char> >, const std::__cxx11::basic_string<char, std::char_traits<char>, std::allocator<char> > &>
   fun:push_back
   fun:_ZN4llvm12UniqueVectorINSt7__cxx1112basic_stringIcSt11char_traitsIcESaIcEEEE6insertERKS6_
   fun:_ZN4llvm12DebugCounter10addCounterERKNSt7__cxx1112basic_stringIcSt11char_traitsIcESaIcEEES8_
   fun:_ZN4llvm12DebugCounter15registerCounterENS_9StringRefES1_
   fun:UnknownInlinedFun
   fun:_GLOBAL__sub_I_InstructionCombining.cpp
   fun:call_init
   fun:call_init
   fun:_dl_init
   fun:_dl_catch_exception
   fun:dl_open_worker
   fun:_dl_catch_exception
   fun:_dl_open
   fun:dlopen_doit
}
{
   <insert_a_suppression_name_here>
   Memcheck:Leak
   match-leak-kinds: reachable
   fun:_Znwm
   fun:UnknownInlinedFun
   fun:UnknownInlinedFun
   fun:allocateWithKey<llvm::MallocAllocator>
   fun:Create<llvm::MallocAllocator, llvm::cl::Option *>
   fun:try_emplace<llvm::cl::Option *>
   fun:insert
   fun:_ZN12_GLOBAL__N_117CommandLineParser9addOptionEPN4llvm2cl6OptionEPNS2_10SubCommandE
   fun:addArgument
   fun:_ZN4llvm2cl5alias4doneEv
   fun:_ZN4llvm2cl5aliasC2IJA2_cNS0_4descENS0_8aliasoptEEEEDpRKT_
   fun:_ZN4llvm2mc28RegisterMCTargetOptionsFlagsC1Ev
   fun:call_init
   fun:call_init
   fun:_dl_init
   fun:_dl_catch_exception
   fun:dl_open_worker
   fun:_dl_catch_exception
   fun:_dl_open
   fun:dlopen_doit
}
{
   <insert_a_suppression_name_here>
   Memcheck:Leak
   match-leak-kinds: reachable
   fun:_Znwm
   fun:UnknownInlinedFun
   fun:UnknownInlinedFun
   fun:allocateWithKey<llvm::MallocAllocator>
   fun:Create<llvm::MallocAllocator, llvm::cl::Option *>
   fun:try_emplace<llvm::cl::Option *>
   fun:insert
   fun:_ZN12_GLOBAL__N_117CommandLineParser9addOptionEPN4llvm2cl6OptionEPNS2_10SubCommandE
   fun:_ZN12_GLOBAL__N_117CommandLineParser9addOptionEPN4llvm2cl6OptionEb.llvm.9260085712697943389
   fun:ParseCommandLineOptions
   fun:_ZN4llvm2cl23ParseCommandLineOptionsEiPKPKcNS_9StringRefEPNS_11raw_ostreamES2_b
   fun:LLVMParseCommandLineOptions
   fun:ac_init_llvm_target
   fun:__pthread_once_slow
   fun:si_init_compiler
   fun:radeonsi_screen_create_impl
   fun:amdgpu_winsys_create
   fun:radeonsi_screen_create
   fun:pipe_radeonsi_create_screen
}
{
   <insert_a_suppression_name_here>
   Memcheck:Leak
   match-leak-kinds: reachable
   fun:_Znwm
   fun:UnknownInlinedFun
   fun:UnknownInlinedFun
   fun:allocateWithKey<llvm::MallocAllocator>
   fun:Create<llvm::MallocAllocator, llvm::cl::Option *>
   fun:try_emplace<llvm::cl::Option *>
   fun:insert
   fun:_ZN12_GLOBAL__N_117CommandLineParser9addOptionEPN4llvm2cl6OptionEPNS2_10SubCommandE
   fun:_ZN12_GLOBAL__N_117CommandLineParser9addOptionEPN4llvm2cl6OptionEPNS2_10SubCommandE
   fun:_ZN12_GLOBAL__N_117CommandLineParser9addOptionEPN4llvm2cl6OptionEb.llvm.9260085712697943389
   fun:ParseCommandLineOptions
   fun:_ZN4llvm2cl23ParseCommandLineOptionsEiPKPKcNS_9StringRefEPNS_11raw_ostreamES2_b
   fun:LLVMParseCommandLineOptions
   fun:ac_init_llvm_target
   fun:__pthread_once_slow
   fun:si_init_compiler
   fun:radeonsi_screen_create_impl
   fun:amdgpu_winsys_create
   fun:radeonsi_screen_create
}
{
   <insert_a_suppression_name_here>
   Memcheck:Leak
   match-leak-kinds: reachable
   fun:_Znwm
   fun:UnknownInlinedFun
   fun:UnknownInlinedFun
   fun:allocateWithKey<llvm::MallocAllocator>
   fun:Create<llvm::MallocAllocator>
   fun:try_emplace<>
   fun:operator[]
   fun:_ZN4llvm12PassRegistry12registerPassERKNS_8PassInfoEb
   fun:_ZL38initializeAAResultsWrapperPassPassOnceRN4llvm12PassRegistryE.llvm.3986720190912680915
   fun:__pthread_once_slow
   fun:UnknownInlinedFun
   fun:UnknownInlinedFun
   fun:UnknownInlinedFun
   fun:UnknownInlinedFun
   fun:_ZL38initializeSILoadStoreOptimizerPassOnceRN4llvm12PassRegistryE.llvm.375695131650757695
   fun:__pthread_once_slow
   fun:UnknownInlinedFun
   fun:UnknownInlinedFun
   fun:UnknownInlinedFun
   fun:UnknownInlinedFun
   fun:LLVMInitializeAMDGPUTarget
   fun:ac_init_llvm_target
   fun:__pthread_once_slow
   fun:si_init_compiler
   fun:radeonsi_screen_create_impl
   fun:amdgpu_winsys_create
}
{
   <insert_a_suppression_name_here>
   Memcheck:Leak
   match-leak-kinds: reachable
   fun:malloc
   fun:strdup
   fun:__glvndWinsysDispatchAllocIndex
   fun:UnknownInlinedFun
   fun:UnknownInlinedFun
   fun:glXGetProcAddress
   fun:_ZN3olc14Renderer_OGL1012CreateDeviceESt6vectorIPvSaIS2_EEbb
   fun:_ZN3olc14Platform_Linux14CreateGraphicsEbbRKNS_11v2d_genericIiEES4_
   fun:_ZN3olc15PixelGameEngine17olc_PrepareEngineEv
   fun:_ZN3olc15PixelGameEngine12EngineThreadEv
   fun:_ZSt13__invoke_implIvMN3olc15PixelGameEngineEFvvEPS1_JEET_St21__invoke_memfun_derefOT0_OT1_DpOT2_
   fun:_ZSt8__invokeIMN3olc15PixelGameEngineEFvvEJPS1_EENSt15__invoke_resultIT_JDpT0_EE4typeEOS6_DpOS7_
   fun:_ZNSt6thread8_InvokerISt5tupleIJMN3olc15PixelGameEngineEFvvEPS3_EEE9_M_invokeIJLm0ELm1EEEEvSt12_Index_tupleIJXspT_EEE
   fun:_ZNSt6thread8_InvokerISt5tupleIJMN3olc15PixelGameEngineEFvvEPS3_EEEclEv
}
{
   <insert_a_suppression_name_here>
   Memcheck:Leak
   match-leak-kinds: reachable
   fun:_Znwm
   fun:UnknownInlinedFun
   fun:UnknownInlinedFun
   fun:UnknownInlinedFun
   fun:UnknownInlinedFun
   fun:UnknownInlinedFun
   fun:pair<const std::__cxx11::basic_string<char, std::char_traits<char>, std::allocator<char> > &, 0UL>
   fun:pair<const std::__cxx11::basic_string<char, std::char_traits<char>, std::allocator<char> > &>
   fun:construct<std::pair<const std::__cxx11::basic_string<char, std::char_traits<char>, std::allocator<char> >, unsigned int>, const std::piecewise_construct_t &, std::tuple<const std::__cxx11::basic_string<char, std::char_traits<char>, std::allocator<char> > &>, std::tuple<> >
   fun:construct<std::pair<const std::__cxx11::basic_string<char, std::char_traits<char>, std::allocator<char> >, unsigned int>, const std::piecewise_construct_t &, std::tuple<const std::__cxx11::basic_string<char, std::char_traits<char>, std::allocator<char> > &>, std::tuple<> >
   fun:_M_construct_node<const std::piecewise_construct_t &, std::tuple<const std::__cxx11::basic_string<char, std::char_traits<char>, std::allocator<char> > &>, std::tuple<> >
   fun:_M_create_node<const std::piecewise_construct_t &, std::tuple<const std::__cxx11::basic_string<char, std::char_traits<char>, std::allocator<char> > &>, std::tuple<> >
   fun:_Auto_node<const std::piecewise_construct_t &, std::tuple<const std::__cxx11::basic_string<char, std::char_traits<char>, std::allocator<char> > &>, std::tuple<> >
   fun:_ZNSt8_Rb_treeINSt7__cxx1112basic_stringIcSt11char_traitsIcESaIcEEESt4pairIKS5_jESt10_Select1stIS8_ESt4lessIS5_ESaIS8_EE22_M_emplace_hint_uniqueIJRKSt21piecewise_construct_tSt5tupleIJRS7_EESJ_IJEEEEESt17_Rb_tree_iteratorIS8_ESt23_Rb_tree_const_iteratorIS8_EDpOT_
   fun:_ZNSt3mapINSt7__cxx1112basic_stringIcSt11char_traitsIcESaIcEEEjSt4lessIS5_ESaISt4pairIKS5_jEEEixERS9_
   fun:_ZN4llvm12UniqueVectorINSt7__cxx1112basic_stringIcSt11char_traitsIcESaIcEEEE6insertERKS6_
   fun:_ZN4llvm12DebugCounter10addCounterERKNSt7__cxx1112basic_stringIcSt11char_traitsIcESaIcEEES8_
   fun:_ZN4llvm12DebugCounter15registerCounterENS_9StringRefES1_
   fun:UnknownInlinedFun
   fun:_GLOBAL__sub_I_InstCombineNegator.cpp
   fun:call_init
   fun:call_init
   fun:_dl_init
   fun:_dl_catch_exception
   fun:dl_open_worker
   fun:_dl_catch_exception
}
{
   <insert_a_suppression_name_here>
   Memcheck:Leak
   match-leak-kinds: reachable
   fun:_Znwm
   fun:UnknownInlinedFun
   fun:UnknownInlinedFun
   fun:UnknownInlinedFun
   fun:UnknownInlinedFun
   fun:UnknownInlinedFun
   fun:construct<std::__cxx11::basic_string<char, std::char_traits<char>, std::allocator<char> >, const std::__cxx11::basic_string<char, std::char_traits<char>, std::allocator<char> > &>
   fun:construct<std::__cxx11::basic_string<char, std::char_traits<char>, std::allocator<char> >, const std::__cxx11::basic_string<char, std::char_traits<char>, std::allocator<char> > &>
   fun:_ZNSt6vectorINSt7__cxx1112basic_stringIcSt11char_traitsIcESaIcEEESaIS5_EE17_M_realloc_insertIJRKS5_EEEvN9__gnu_cxx17__normal_iteratorIPS5_S7_EEDpOT_
   fun:push_back
   fun:_ZN4llvm12UniqueVectorINSt7__cxx1112basic_stringIcSt11char_traitsIcESaIcEEEE6insertERKS6_
   fun:_ZN4llvm12DebugCounter10addCounterERKNSt7__cxx1112basic_stringIcSt11char_traitsIcESaIcEEES8_
   fun:_ZN4llvm12DebugCounter15registerCounterENS_9StringRefES1_
   fun:UnknownInlinedFun
   fun:_GLOBAL__sub_I_InstCombineNegator.cpp
   fun:call_init
   fun:call_init
   fun:_dl_init
   fun:_dl_catch_exception
   fun:dl_open_worker
   fun:_dl_catch_exception
   fun:_dl_open
}
{
   <insert_a_suppression_name_here>
   Memcheck:Leak
   match-leak-kinds: reachable
   fun:_Znwm
   fun:UnknownInlinedFun
   fun:UnknownInlinedFun
   fun:UnknownInlinedFun
   fun:UnknownInlinedFun
   fun:UnknownInlinedFun
   fun:pair<const std::__cxx11::basic_string<char, std::char_traits<char>, std::allocator<char> > &, 0UL>
   fun:pair<const std::__cxx11::basic_string<char, std::char_traits<char>, std::allocator<char> > &>
   fun:construct<std::pair<const std::__cxx11::basic_string<char, std::char_traits<char>, std::allocator<char> >, unsigned int>, const std::piecewise_construct_t &, std::tuple<const std::__cxx11::basic_string<char, std::char_traits<char>, std::allocator<char> > &>, std::tuple<> >
   fun:construct<std::pair<const std::__cxx11::basic_string<char, std::char_traits<char>, std::allocator<char> >, unsigned int>, const std::piecewise_construct_t &, std::tuple<const std::__cxx11::basic_string<char, std::char_traits<char>, std::allocator<char> > &>, std::tuple<> >
   fun:_M_construct_node<const std::piecewise_construct_t &, std::tuple<const std::__cxx11::basic_string<char, std::char_traits<char>, std::allocator<char> > &>, std::tuple<> >
   fun:_M_create_node<const std::piecewise_construct_t &, std::tuple<const std::__cxx11::basic_string<char, std::char_traits<char>, std::allocator<char> > &>, std::tuple<> >
   fun:_Auto_node<const std::piecewise_construct_t &, std::tuple<const std::__cxx11::basic_string<char, std::char_traits<char>, std::allocator<char> > &>, std::tuple<> >
   fun:_ZNSt8_Rb_treeINSt7__cxx1112basic_stringIcSt11char_traitsIcESaIcEEESt4pairIKS5_jESt10_Select1stIS8_ESt4lessIS5_ESaIS8_EE22_M_emplace_hint_uniqueIJRKSt21piecewise_construct_tSt5tupleIJRS7_EESJ_IJEEEEESt17_Rb_tree_iteratorIS8_ESt23_Rb_tree_const_iteratorIS8_EDpOT_
   fun:_ZNSt3mapINSt7__cxx1112basic_stringIcSt11char_traitsIcESaIcEEEjSt4lessIS5_ESaISt4pairIKS5_jEEEixERS9_
   fun:_ZN4llvm12UniqueVectorINSt7__cxx1112basic_stringIcSt11char_traitsIcESaIcEEEE6insertERKS6_
   fun:_ZN4llvm12DebugCounter10addCounterERKNSt7__cxx1112basic_stringIcSt11char_traitsIcESaIcEEES8_
   fun:_ZN4llvm12DebugCounter15registerCounterENS_9StringRefES1_
   fun:UnknownInlinedFun
   fun:_GLOBAL__sub_I_Attributor.cpp
   fun:call_init
   fun:call_init
   fun:_dl_init
   fun:_dl_catch_exception
   fun:dl_open_worker
   fun:_dl_catch_exception
}
{
   <insert_a_suppression_name_here>
   Memcheck:Leak
   match-leak-kinds: reachable
   fun:_Znwm
   fun:UnknownInlinedFun
   fun:UnknownInlinedFun
   fun:UnknownInlinedFun
   fun:UnknownInlinedFun
   fun:UnknownInlinedFun
   fun:construct<std::__cxx11::basic_string<char, std::char_traits<char>, std::allocator<char> >, const std::__cxx11::basic_string<char, std::char_traits<char>, std::allocator<char> > &>
   fun:construct<std::__cxx11::basic_string<char, std::char_traits<char>, std::allocator<char> >, const std::__cxx11::basic_string<char, std::char_traits<char>, std::allocator<char> > &>
   fun:push_back
   fun:_ZN4llvm12UniqueVectorINSt7__cxx1112basic_stringIcSt11char_traitsIcESaIcEEEE6insertERKS6_
   fun:_ZN4llvm12DebugCounter10addCounterERKNSt7__cxx1112basic_stringIcSt11char_traitsIcESaIcEEES8_
   fun:_ZN4llvm12DebugCounter15registerCounterENS_9StringRefES1_
   fun:UnknownInlinedFun
   fun:_GLOBAL__sub_I_Attributor.cpp
   fun:call_init
   fun:call_init
   fun:_dl_init
   fun:_dl_catch_exception
   fun:dl_open_worker
   fun:_dl_catch_exception
   fun:_dl_open
   fun:dlopen_doit
}
{
   <insert_a_suppression_name_here>
   Memcheck:Leak
   match-leak-kinds: reachable
   fun:_Znwm
   fun:UnknownInlinedFun
   fun:UnknownInlinedFun
   fun:allocateWithKey<llvm::MallocAllocator>
   fun:Create<llvm::MallocAllocator, llvm::cl::Option *>
   fun:try_emplace<llvm::cl::Option *>
   fun:insert
   fun:_ZN12_GLOBAL__N_117CommandLineParser9addOptionEPN4llvm2cl6OptionEPNS2_10SubCommandE
   fun:_ZN4llvm2cl6Option11addArgumentEv
   fun:done
   fun:opt<char[4], llvm::cl::OptionHidden, llvm::cl::desc, llvm::cl::initializer<bool> >
   fun:UnknownInlinedFun
   fun:_GLOBAL__sub_I_HexagonMCTargetDesc.cpp
   fun:call_init
   fun:call_init
   fun:_dl_init
   fun:_dl_catch_exception
   fun:dl_open_worker
   fun:_dl_catch_exception
   fun:_dl_open
   fun:dlopen_doit
   fun:_dl_catch_exception
}
{
   <insert_a_suppression_name_here>
   Memcheck:Leak
   match-leak-kinds: reachable
   fun:_Znwm
   fun:UnknownInlinedFun
   fun:UnknownInlinedFun
   fun:allocateWithKey<llvm::MallocAllocator>
   fun:Create<llvm::MallocAllocator>
   fun:try_emplace<>
   fun:operator[]
   fun:_ZN4llvm12PassRegistry12registerPassERKNS_8PassInfoEb
   fun:_ZL48initializeTargetTransformInfoWrapperPassPassOnceRN4llvm12PassRegistryE.llvm.5947267840174995134
   fun:__pthread_once_slow
   fun:UnknownInlinedFun
   fun:UnknownInlinedFun
   fun:UnknownInlinedFun
   fun:UnknownInlinedFun
   fun:_ZL27initializeLocalizerPassOnceRN4llvm12PassRegistryE.llvm.9203481187055558208
   fun:__pthread_once_slow
   fun:UnknownInlinedFun
   fun:UnknownInlinedFun
   fun:UnknownInlinedFun
   fun:UnknownInlinedFun
   fun:_ZN4llvm20initializeGlobalISelERNS_12PassRegistryE
   fun:LLVMInitializeAMDGPUTarget
   fun:ac_init_llvm_target
   fun:__pthread_once_slow
   fun:si_init_compiler
   fun:radeonsi_screen_create_impl
}
{
   <insert_a_suppression_name_here>
   Memcheck:Leak
   match-leak-kinds: reachable
   fun:malloc
   fun:XOpenDisplay
   fun:_ZN3olc14Platform_Linux16CreateWindowPaneERKNS_11v2d_genericIiEERS2_b
   fun:_ZN3olc15PixelGameEngine5StartEv
   fun:main
}
{
   <insert_a_suppression_name_here>
   Memcheck:Leak
   match-leak-kinds: reachable
   fun:_Znwm
   fun:UnknownInlinedFun
   fun:UnknownInlinedFun
   fun:UnknownInlinedFun
   fun:UnknownInlinedFun
   fun:UnknownInlinedFun
   fun:pair<const std::__cxx11::basic_string<char, std::char_traits<char>, std::allocator<char> > &, 0UL>
   fun:pair<const std::__cxx11::basic_string<char, std::char_traits<char>, std::allocator<char> > &>
   fun:construct<std::pair<const std::__cxx11::basic_string<char, std::char_traits<char>, std::allocator<char> >, unsigned int>, const std::piecewise_construct_t &, std::tuple<const std::__cxx11::basic_string<char, std::char_traits<char>, std::allocator<char> > &>, std::tuple<> >
   fun:construct<std::pair<const std::__cxx11::basic_string<char, std::char_traits<char>, std::allocator<char> >, unsigned int>, const std::piecewise_construct_t &, std::tuple<const std::__cxx11::basic_string<char, std::char_traits<char>, std::allocator<char> > &>, std::tuple<> >
   fun:_M_construct_node<const std::piecewise_construct_t &, std::tuple<const std::__cxx11::basic_string<char, std::char_traits<char>, std::allocator<char> > &>, std::tuple<> >
   fun:_M_create_node<const std::piecewise_construct_t &, std::tuple<const std::__cxx11::basic_string<char, std::char_traits<char>, std::allocator<char> > &>, std::tuple<> >
   fun:_Auto_node<const std::piecewise_construct_t &, std::tuple<const std::__cxx11::basic_string<char, std::char_traits<char>, std::allocator<char> > &>, std::tuple<> >
   fun:_ZNSt8_Rb_treeINSt7__cxx1112basic_stringIcSt11char_traitsIcESaIcEEESt4pairIKS5_jESt10_Select1stIS8_ESt4lessIS5_ESaIS8_EE22_M_emplace_hint_uniqueIJRKSt21piecewise_construct_tSt5tupleIJRS7_EESJ_IJEEEEESt17_Rb_tree_iteratorIS8_ESt23_Rb_tree_const_iteratorIS8_EDpOT_
   fun:_ZNSt3mapINSt7__cxx1112basic_stringIcSt11char_traitsIcESaIcEEEjSt4lessIS5_ESaISt4pairIKS5_jEEEixERS9_
   fun:_ZN4llvm12UniqueVectorINSt7__cxx1112basic_stringIcSt11char_traitsIcESaIcEEEE6insertERKS6_
   fun:_ZN4llvm12DebugCounter10addCounterERKNSt7__cxx1112basic_stringIcSt11char_traitsIcESaIcEEES8_
   fun:_ZN4llvm12DebugCounter15registerCounterENS_9StringRefES1_
   fun:UnknownInlinedFun
   fun:_GLOBAL__sub_I_PredicateInfo.cpp
   fun:call_init
   fun:call_init
   fun:_dl_init
   fun:_dl_catch_exception
   fun:dl_open_worker
   fun:_dl_catch_exception
}
{
   <insert_a_suppression_name_here>
   Memcheck:Leak
   match-leak-kinds: reachable
   fun:_Znwm
   fun:UnknownInlinedFun
   fun:UnknownInlinedFun
   fun:UnknownInlinedFun
   fun:UnknownInlinedFun
   fun:UnknownInlinedFun
   fun:construct<std::__cxx11::basic_string<char, std::char_traits<char>, std::allocator<char> >, const std::__cxx11::basic_string<char, std::char_traits<char>, std::allocator<char> > &>
   fun:construct<std::__cxx11::basic_string<char, std::char_traits<char>, std::allocator<char> >, const std::__cxx11::basic_string<char, std::char_traits<char>, std::allocator<char> > &>
   fun:_ZNSt6vectorINSt7__cxx1112basic_stringIcSt11char_traitsIcESaIcEEESaIS5_EE17_M_realloc_insertIJRKS5_EEEvN9__gnu_cxx17__normal_iteratorIPS5_S7_EEDpOT_
   fun:push_back
   fun:_ZN4llvm12UniqueVectorINSt7__cxx1112basic_stringIcSt11char_traitsIcESaIcEEEE6insertERKS6_
   fun:_ZN4llvm12DebugCounter10addCounterERKNSt7__cxx1112basic_stringIcSt11char_traitsIcESaIcEEES8_
   fun:_ZN4llvm12DebugCounter15registerCounterENS_9StringRefES1_
   fun:UnknownInlinedFun
   fun:_GLOBAL__sub_I_PredicateInfo.cpp
   fun:call_init
   fun:call_init
   fun:_dl_init
   fun:_dl_catch_exception
   fun:dl_open_worker
   fun:_dl_catch_exception
   fun:_dl_open
}
{
   <insert_a_suppression_name_here>
   Memcheck:Leak
   match-leak-kinds: reachable
   fun:_Znwm
   fun:UnknownInlinedFun
   fun:UnknownInlinedFun
   fun:allocateWithKey<llvm::MallocAllocator>
   fun:Create<llvm::MallocAllocator, llvm::cl::Option *>
   fun:try_emplace<llvm::cl::Option *>
   fun:insert
   fun:_ZN12_GLOBAL__N_117CommandLineParser9addOptionEPN4llvm2cl6OptionEPNS2_10SubCommandE
   fun:_ZN4llvm2cl6Option11addArgumentEv
   fun:done
   fun:opt<char[5], llvm::cl::OptionHidden, llvm::cl::initializer<bool>, llvm::cl::desc>
   fun:UnknownInlinedFun
   fun:_GLOBAL__sub_I_SizeOpts.cpp
   fun:call_init
   fun:call_init
   fun:_dl_init
   fun:_dl_catch_exception
   fun:dl_open_worker
   fun:_dl_catch_exception
   fun:_dl_open
   fun:dlopen_doit
   fun:_dl_catch_exception
}
{
   <insert_a_suppression_name_here>
   Memcheck:Leak
   match-leak-kinds: reachable
   fun:_Znwm
   fun:UnknownInlinedFun
   fun:UnknownInlinedFun
   fun:allocateWithKey<llvm::MallocAllocator>
   fun:Create<llvm::MallocAllocator, llvm::cl::Option *>
   fun:try_emplace<llvm::cl::Option *>
   fun:insert
   fun:_ZN12_GLOBAL__N_117CommandLineParser9addOptionEPN4llvm2cl6OptionEPNS2_10SubCommandE
   fun:_ZN4llvm2cl6Option11addArgumentEv
   fun:UnknownInlinedFun
   fun:_GLOBAL__sub_I_HexagonMCTargetDesc.cpp
   fun:call_init
   fun:call_init
   fun:_dl_init
   fun:_dl_catch_exception
   fun:dl_open_worker
   fun:_dl_catch_exception
   fun:_dl_open
   fun:dlopen_doit
   fun:_dl_catch_exception
}
{
   <insert_a_suppression_name_here>
   Memcheck:Leak
   match-leak-kinds: reachable
   fun:_Znwm
   fun:UnknownInlinedFun
   fun:UnknownInlinedFun
   fun:allocateWithKey<llvm::MallocAllocator>
   fun:Create<llvm::MallocAllocator, llvm::cl::Option *>
   fun:try_emplace<llvm::cl::Option *>
   fun:insert
   fun:_ZN12_GLOBAL__N_117CommandLineParser9addOptionEPN4llvm2cl6OptionEPNS2_10SubCommandE
   fun:_ZN4llvm2cl6Option11addArgumentEv
   fun:__cxx_global_var_init.111
   fun:_GLOBAL__sub_I_HexagonMCTargetDesc.cpp
   fun:call_init
   fun:call_init
   fun:_dl_init
   fun:_dl_catch_exception
   fun:dl_open_worker
   fun:_dl_catch_exception
   fun:_dl_open
   fun:dlopen_doit
   fun:_dl_catch_exception
}
{
   <insert_a_suppression_name_here>
   Memcheck:Leak
   match-leak-kinds: reachable
   fun:_Znwm
   fun:UnknownInlinedFun
   fun:UnknownInlinedFun
   fun:allocateWithKey<llvm::MallocAllocator>
   fun:Create<llvm::MallocAllocator, llvm::cl::Option *>
   fun:try_emplace<llvm::cl::Option *>
   fun:insert
   fun:_ZN12_GLOBAL__N_117CommandLineParser9addOptionEPN4llvm2cl6OptionEPNS2_10SubCommandE
   fun:_ZN4llvm2cl6Option11addArgumentEv
   fun:done
   fun:opt<char[5], llvm::cl::desc, llvm::cl::ValuesClass, llvm::cl::initializer<llvm::Hexagon::ArchEnum>, llvm::cl::ValueExpected>
   fun:UnknownInlinedFun
   fun:_GLOBAL__sub_I_HexagonMCTargetDesc.cpp
   fun:call_init
   fun:call_init
   fun:_dl_init
   fun:_dl_catch_exception
   fun:dl_open_worker
   fun:_dl_catch_exception
   fun:_dl_open
   fun:dlopen_doit
   fun:_dl_catch_exception
}
{
   <insert_a_suppression_name_here>
   Memcheck:Leak
   match-leak-kinds: reachable
   fun:_Znwm
   fun:UnknownInlinedFun
   fun:UnknownInlinedFun
   fun:allocateWithKey<llvm::MallocAllocator>
   fun:Create<llvm::MallocAllocator>
   fun:try_emplace<>
   fun:operator[]
   fun:_ZN4llvm12PassRegistry12registerPassERKNS_8PassInfoEb
   fun:_ZL40initializeTypeBasedAAWrapperPassPassOnceRN4llvm12PassRegistryE.llvm.127859671095899960
   fun:__pthread_once_slow
   fun:UnknownInlinedFun
   fun:UnknownInlinedFun
   fun:UnknownInlinedFun
   fun:UnknownInlinedFun
   fun:_ZL38initializeAAResultsWrapperPassPassOnceRN4llvm12PassRegistryE.llvm.3986720190912680915
   fun:__pthread_once_slow
   fun:UnknownInlinedFun
   fun:UnknownInlinedFun
   fun:UnknownInlinedFun
   fun:UnknownInlinedFun
   fun:_ZL38initializeSILoadStoreOptimizerPassOnceRN4llvm12PassRegistryE.llvm.375695131650757695
   fun:__pthread_once_slow
   fun:UnknownInlinedFun
   fun:UnknownInlinedFun
   fun:UnknownInlinedFun
   fun:UnknownInlinedFun
   fun:LLVMInitializeAMDGPUTarget
   fun:ac_init_llvm_target
   fun:__pthread_once_slow
   fun:si_init_compiler
}
{
   <insert_a_suppression_name_here>
   Memcheck:Leak
   match-leak-kinds: reachable
   fun:_Znwm
   fun:UnknownInlinedFun
   fun:UnknownInlinedFun
   fun:allocateWithKey<llvm::MallocAllocator>
   fun:Create<llvm::MallocAllocator, llvm::cl::Option *>
   fun:try_emplace<llvm::cl::Option *>
   fun:insert
   fun:_ZN12_GLOBAL__N_117CommandLineParser9addOptionEPN4llvm2cl6OptionEPNS2_10SubCommandE
   fun:_ZN12_GLOBAL__N_117CommandLineParser9addOptionEPN4llvm2cl6OptionEb.llvm.9260085712697943389
   fun:addArgument
   fun:done
   fun:opt<char[5], llvm::cl::desc, llvm::cl::LocationClass<(anonymous namespace)::HelpPrinterWrapper>, llvm::cl::ValueExpected, llvm::cl::cat, llvm::cl::sub>
   fun:CommandLineCommonOptions
   fun:_ZN4llvm14object_creatorIN12_GLOBAL__N_124CommandLineCommonOptionsEE4callEv
   fun:UnknownInlinedFun
   fun:operator*
   fun:_ZL17initCommonOptionsv
   fun:_ZN4llvm2cl23ParseCommandLineOptionsEiPKPKcNS_9StringRefEPNS_11raw_ostreamES2_b
   fun:LLVMParseCommandLineOptions
   fun:ac_init_llvm_target
   fun:__pthread_once_slow
   fun:si_init_compiler
   fun:radeonsi_screen_create_impl
   fun:amdgpu_winsys_create
}
{
   <insert_a_suppression_name_here>
   Memcheck:Leak
   match-leak-kinds: reachable
   fun:_Znwm
   fun:UnknownInlinedFun
   fun:UnknownInlinedFun
   fun:allocateWithKey<llvm::MallocAllocator>
   fun:Create<llvm::MallocAllocator, llvm::cl::Option *>
   fun:try_emplace<llvm::cl::Option *>
   fun:insert
   fun:_ZN12_GLOBAL__N_117CommandLineParser9addOptionEPN4llvm2cl6OptionEPNS2_10SubCommandE
   fun:_ZN12_GLOBAL__N_117CommandLineParser9addOptionEPN4llvm2cl6OptionEPNS2_10SubCommandE
   fun:_ZN12_GLOBAL__N_117CommandLineParser9addOptionEPN4llvm2cl6OptionEb.llvm.9260085712697943389
   fun:addArgument
   fun:done
   fun:opt<char[5], llvm::cl::desc, llvm::cl::LocationClass<(anonymous namespace)::HelpPrinterWrapper>, llvm::cl::ValueExpected, llvm::cl::cat, llvm::cl::sub>
   fun:CommandLineCommonOptions
   fun:_ZN4llvm14object_creatorIN12_GLOBAL__N_124CommandLineCommonOptionsEE4callEv
   fun:UnknownInlinedFun
   fun:operator*
   fun:_ZL17initCommonOptionsv
   fun:_ZN4llvm2cl23ParseCommandLineOptionsEiPKPKcNS_9StringRefEPNS_11raw_ostreamES2_b
   fun:LLVMParseCommandLineOptions
   fun:ac_init_llvm_target
   fun:__pthread_once_slow
   fun:si_init_compiler
   fun:radeonsi_screen_create_impl
}
{
   <insert_a_suppression_name_here>
   Memcheck:Leak
   match-leak-kinds: reachable
   fun:_Znwm
   fun:UnknownInlinedFun
   fun:UnknownInlinedFun
   fun:allocateWithKey<llvm::MallocAllocator>
   fun:Create<llvm::MallocAllocator>
   fun:try_emplace<>
   fun:operator[]
   fun:_ZN4llvm12PassRegistry12registerPassERKNS_8PassInfoEb
   fun:_ZL32initializeSROALegacyPassPassOnceRN4llvm12PassRegistryE.llvm.12150559369043237908
   fun:__pthread_once_slow
   fun:UnknownInlinedFun
   fun:UnknownInlinedFun
   fun:UnknownInlinedFun
   fun:initializeSROALegacyPassPass
   fun:_ZN4llvm4sroa14SROALegacyPassC2Ev
   fun:UnknownInlinedFun
   fun:LLVMAddScalarReplAggregatesPass
   fun:ac_create_passmgr
   fun:ac_init_llvm_compiler
   fun:si_init_compiler
   fun:radeonsi_screen_create_impl
   fun:amdgpu_winsys_create
   fun:radeonsi_screen_create
   fun:pipe_radeonsi_create_screen
}
{
   <insert_a_suppression_name_here>
   Memcheck:Leak
   match-leak-kinds: reachable
   fun:_Znwm
   fun:UnknownInlinedFun
   fun:UnknownInlinedFun
   fun:allocateWithKey<llvm::MallocAllocator>
   fun:Create<llvm::MallocAllocator>
   fun:try_emplace<>
   fun:operator[]
   fun:_ZN4llvm12PassRegistry12registerPassERKNS_8PassInfoEb
   fun:_ZL32initializeLegacyLICMPassPassOnceRN4llvm12PassRegistryE.llvm.1358161256474175904
   fun:__pthread_once_slow
   fun:UnknownInlinedFun
   fun:UnknownInlinedFun
   fun:UnknownInlinedFun
   fun:initializeLegacyLICMPassPass
   fun:LegacyLICMPass
   fun:_ZN4llvm14createLICMPassEv
   fun:LLVMAddLICMPass
   fun:ac_create_passmgr
   fun:ac_init_llvm_compiler
   fun:si_init_compiler
   fun:radeonsi_screen_create_impl
   fun:amdgpu_winsys_create
   fun:radeonsi_screen_create
   fun:pipe_radeonsi_create_screen
}
{
   <insert_a_suppression_name_here>
   Memcheck:Leak
   match-leak-kinds: reachable
   fun:_Znwm
   fun:UnknownInlinedFun
   fun:UnknownInlinedFun
   fun:allocateWithKey<llvm::MallocAllocator>
   fun:Create<llvm::MallocAllocator>
   fun:try_emplace<>
   fun:operator[]
   fun:_ZN4llvm12PassRegistry12registerPassERKNS_8PassInfoEb
   fun:_ZL32initializeADCELegacyPassPassOnceRN4llvm12PassRegistryE.llvm.6728270287382313459
   fun:__pthread_once_slow
   fun:UnknownInlinedFun
   fun:UnknownInlinedFun
   fun:UnknownInlinedFun
   fun:initializeADCELegacyPassPass
   fun:ADCELegacyPass
   fun:_ZN4llvm23createAggressiveDCEPassEv
   fun:LLVMAddAggressiveDCEPass
   fun:ac_create_passmgr
   fun:ac_init_llvm_compiler
   fun:si_init_compiler
   fun:radeonsi_screen_create_impl
   fun:amdgpu_winsys_create
   fun:radeonsi_screen_create
   fun:pipe_radeonsi_create_screen
}
{
   <insert_a_suppression_name_here>
   Memcheck:Leak
   match-leak-kinds: reachable
   fun:_Znwm
   fun:UnknownInlinedFun
   fun:UnknownInlinedFun
   fun:allocateWithKey<llvm::MallocAllocator>
   fun:Create<llvm::MallocAllocator>
   fun:try_emplace<>
   fun:operator[]
   fun:_ZN4llvm12PassRegistry12registerPassERKNS_8PassInfoEb
   fun:_ZL54initializeStraightLineStrengthReduceLegacyPassPassOnceRN4llvm12PassRegistryE.llvm.3799415644786056464
   fun:__pthread_once_slow
   fun:UnknownInlinedFun
   fun:UnknownInlinedFun
   fun:UnknownInlinedFun
   fun:initializeStraightLineStrengthReduceLegacyPassPass
   fun:StraightLineStrengthReduceLegacyPass
   fun:_ZN4llvm36createStraightLineStrengthReducePassEv
   fun:addStraightLineScalarOptimizationPasses
   fun:_ZN4llvm16AMDGPUPassConfig11addIRPassesEv
   fun:_ZN4llvm16TargetPassConfig13addISelPassesEv
   fun:addPassesToGenerateCode
   fun:_ZN4llvm17LLVMTargetMachine19addPassesToEmitFileERNS_6legacy15PassManagerBaseERNS_17raw_pwrite_streamEPS4_NS_15CodeGenFileTypeEbPNS_28MachineModuleInfoWrapperPassE
   fun:ac_create_llvm_passes
   fun:si_init_compiler
   fun:radeonsi_screen_create_impl
   fun:amdgpu_winsys_create
}
{
   <insert_a_suppression_name_here>
   Memcheck:Leak
   match-leak-kinds: reachable
   fun:_Znwm
   fun:UnknownInlinedFun
   fun:UnknownInlinedFun
   fun:allocateWithKey<llvm::MallocAllocator>
   fun:Create<llvm::MallocAllocator>
   fun:try_emplace<>
   fun:operator[]
   fun:_ZN4llvm12PassRegistry12registerPassERKNS_8PassInfoEb
   fun:_ZL35initializeSinkingLegacyPassPassOnceRN4llvm12PassRegistryE.llvm.12978694209019520102
   fun:__pthread_once_slow
   fun:UnknownInlinedFun
   fun:UnknownInlinedFun
   fun:UnknownInlinedFun
   fun:initializeSinkingLegacyPassPass
   fun:SinkingLegacyPass
   fun:_ZN4llvm17createSinkingPassEv
   fun:_ZN12_GLOBAL__N_113GCNPassConfig10addPreISelEv
   fun:_ZN4llvm16TargetPassConfig14addISelPrepareEv
   fun:_ZN4llvm16TargetPassConfig13addISelPassesEv
   fun:addPassesToGenerateCode
   fun:_ZN4llvm17LLVMTargetMachine19addPassesToEmitFileERNS_6legacy15PassManagerBaseERNS_17raw_pwrite_streamEPS4_NS_15CodeGenFileTypeEbPNS_28MachineModuleInfoWrapperPassE
   fun:ac_create_llvm_passes
   fun:si_init_compiler
   fun:radeonsi_screen_create_impl
}
{
   <insert_a_suppression_name_here>
   Memcheck:Leak
   match-leak-kinds: reachable
   fun:_Znwm
   fun:UnknownInlinedFun
   fun:UnknownInlinedFun
   fun:allocateWithKey<llvm::MallocAllocator>
   fun:Create<llvm::MallocAllocator>
   fun:_ZN4llvm9StringMapINS_8NoneTypeENS_15MallocAllocatorEE11try_emplaceIJEEESt4pairINS_17StringMapIteratorIS1_EEbENS_9StringRefEDpOT_
   fun:insert
   fun:StringSet
   fun:UnknownInlinedFun
   fun:_GLOBAL__sub_I_Assumptions.cpp
   fun:call_init
   fun:call_init
   fun:_dl_init
   fun:_dl_catch_exception
   fun:dl_open_worker
   fun:_dl_catch_exception
   fun:_dl_open
   fun:dlopen_doit
   fun:_dl_catch_exception
   fun:_dl_catch_error
}
{
   <insert_a_suppression_name_here>
   Memcheck:Leak
   match-leak-kinds: reachable
   fun:_Znwm
   fun:UnknownInlinedFun
   fun:UnknownInlinedFun
   fun:allocateWithKey<llvm::MallocAllocator>
   fun:Create<llvm::MallocAllocator, llvm::cl::Option *>
   fun:try_emplace<llvm::cl::Option *>
   fun:insert
   fun:_ZN12_GLOBAL__N_117CommandLineParser9addOptionEPN4llvm2cl6OptionEPNS2_10SubCommandE
   fun:_ZN4llvm2cl6Option11addArgumentEv
   fun:done
   fun:opt<char[6], llvm::cl::OptionHidden, llvm::cl::desc, llvm::cl::initializer<bool> >
   fun:UnknownInlinedFun
   fun:_GLOBAL__sub_I_HexagonMCTargetDesc.cpp
   fun:call_init
   fun:call_init
   fun:_dl_init
   fun:_dl_catch_exception
   fun:dl_open_worker
   fun:_dl_catch_exception
   fun:_dl_open
   fun:dlopen_doit
   fun:_dl_catch_exception
}
{
   <insert_a_suppression_name_here>
   Memcheck:Leak
   match-leak-kinds: reachable
   fun:_Znwm
   fun:UnknownInlinedFun
   fun:UnknownInlinedFun
   fun:allocateWithKey<llvm::MallocAllocator>
   fun:Create<llvm::MallocAllocator>
   fun:try_emplace<>
   fun:operator[]
   fun:_ZN4llvm12PassRegistry12registerPassERKNS_8PassInfoEb
   fun:_ZL37initializeLoopInfoWrapperPassPassOnceRN4llvm12PassRegistryE.llvm.14139684847973238224
   fun:__pthread_once_slow
   fun:UnknownInlinedFun
   fun:UnknownInlinedFun
   fun:UnknownInlinedFun
   fun:UnknownInlinedFun
   fun:_ZL50initializeBranchProbabilityInfoWrapperPassPassOnceRN4llvm12PassRegistryE.llvm.3079600055323173122
   fun:__pthread_once_slow
   fun:UnknownInlinedFun
   fun:UnknownInlinedFun
   fun:UnknownInlinedFun
   fun:UnknownInlinedFun
   fun:_ZL47initializeBlockFrequencyInfoWrapperPassPassOnceRN4llvm12PassRegistryE.llvm.2361570520918676161
   fun:__pthread_once_slow
   fun:UnknownInlinedFun
   fun:UnknownInlinedFun
   fun:UnknownInlinedFun
   fun:UnknownInlinedFun
   fun:_ZL30initializeIRTranslatorPassOnceRN4llvm12PassRegistryE.llvm.9446234758661035977
   fun:__pthread_once_slow
   fun:UnknownInlinedFun
   fun:UnknownInlinedFun
   fun:UnknownInlinedFun
   fun:UnknownInlinedFun
   fun:_ZN4llvm20initializeGlobalISelERNS_12PassRegistryE
   fun:LLVMInitializeAMDGPUTarget
}
{
   <insert_a_suppression_name_here>
   Memcheck:Leak
   match-leak-kinds: reachable
   fun:_Znwm
   fun:UnknownInlinedFun
   fun:UnknownInlinedFun
   fun:allocateWithKey<llvm::MallocAllocator>
   fun:Create<llvm::MallocAllocator, llvm::cl::Option *>
   fun:try_emplace<llvm::cl::Option *>
   fun:insert
   fun:_ZN12_GLOBAL__N_117CommandLineParser9addOptionEPN4llvm2cl6OptionEPNS2_10SubCommandE
   fun:_ZN4llvm2cl6Option11addArgumentEv
   fun:_ZN4llvm20initStatisticOptionsEv
   fun:_ZL17initCommonOptionsv
   fun:_ZN4llvm2cl23ParseCommandLineOptionsEiPKPKcNS_9StringRefEPNS_11raw_ostreamES2_b
   fun:LLVMParseCommandLineOptions
   fun:ac_init_llvm_target
   fun:__pthread_once_slow
   fun:si_init_compiler
   fun:radeonsi_screen_create_impl
   fun:amdgpu_winsys_create
}
{
   <insert_a_suppression_name_here>
   Memcheck:Leak
   match-leak-kinds: reachable
   fun:_Znwm
   fun:UnknownInlinedFun
   fun:UnknownInlinedFun
   fun:allocateWithKey<llvm::MallocAllocator>
   fun:Create<llvm::MallocAllocator, llvm::cl::Option *>
   fun:try_emplace<llvm::cl::Option *>
   fun:insert
   fun:_ZN12_GLOBAL__N_117CommandLineParser9addOptionEPN4llvm2cl6OptionEPNS2_10SubCommandE
   fun:_ZN4llvm2cl6Option11addArgumentEv
   fun:UnknownInlinedFun
   fun:UnknownInlinedFun
   fun:_ZN12_GLOBAL__N_114CreateUseColor4callEv.llvm.15199934562096280263
   fun:UnknownInlinedFun
   fun:UnknownInlinedFun
   fun:UnknownInlinedFun
   fun:_ZL17initCommonOptionsv
   fun:_ZN4llvm2cl23ParseCommandLineOptionsEiPKPKcNS_9StringRefEPNS_11raw_ostreamES2_b
   fun:LLVMParseCommandLineOptions
   fun:ac_init_llvm_target
   fun:__pthread_once_slow
   fun:si_init_compiler
   fun:radeonsi_screen_create_impl
   fun:amdgpu_winsys_create
}
{
   <insert_a_suppression_name_here>
   Memcheck:Leak
   match-leak-kinds: reachable
   fun:_Znwm
   fun:UnknownInlinedFun
   fun:UnknownInlinedFun
   fun:allocateWithKey<llvm::MallocAllocator>
   fun:Create<llvm::MallocAllocator>
   fun:try_emplace<>
   fun:operator[]
   fun:_ZN4llvm12PassRegistry12registerPassERKNS_8PassInfoEb
   fun:_ZL34initializeLCSSAWrapperPassPassOnceRN4llvm12PassRegistryE.llvm.12414903755566159257
   fun:__pthread_once_slow
   fun:UnknownInlinedFun
   fun:UnknownInlinedFun
   fun:UnknownInlinedFun
   fun:UnknownInlinedFun
   fun:_ZN4llvm22initializeLoopPassPassERNS_12PassRegistryE
   fun:_ZL32initializeLegacyLICMPassPassOnceRN4llvm12PassRegistryE.llvm.1358161256474175904
   fun:__pthread_once_slow
   fun:UnknownInlinedFun
   fun:UnknownInlinedFun
   fun:UnknownInlinedFun
   fun:initializeLegacyLICMPassPass
   fun:LegacyLICMPass
   fun:_ZN4llvm14createLICMPassEv
   fun:LLVMAddLICMPass
   fun:ac_create_passmgr
   fun:ac_init_llvm_compiler
   fun:si_init_compiler
   fun:radeonsi_screen_create_impl
}
{
   <insert_a_suppression_name_here>
   Memcheck:Leak
   match-leak-kinds: reachable
   fun:malloc
   fun:__vasprintf_internal
   fun:__asprintf_chk
   fun:UnknownInlinedFun
   fun:init_selinux_config.lto_priv.0
   fun:__pthread_once_slow
   fun:UnknownInlinedFun
   fun:UnknownInlinedFun
   fun:selinux_boolean_sub
   fun:bool_open
   fun:get_bool_value
   fun:security_get_boolean_active
   fun:init_map
   fun:u_execmem_init_once
   fun:__pthread_once_slow
   fun:util_call_once
   fun:u_execmem_alloc
}
{
   <insert_a_suppression_name_here>
   Memcheck:Leak
   match-leak-kinds: reachable
   fun:_Znwm
   fun:UnknownInlinedFun
   fun:UnknownInlinedFun
   fun:UnknownInlinedFun
   fun:UnknownInlinedFun
   fun:UnknownInlinedFun
   fun:pair<const std::__cxx11::basic_string<char, std::char_traits<char>, std::allocator<char> > &, 0UL>
   fun:pair<const std::__cxx11::basic_string<char, std::char_traits<char>, std::allocator<char> > &>
   fun:construct<std::pair<const std::__cxx11::basic_string<char, std::char_traits<char>, std::allocator<char> >, unsigned int>, const std::piecewise_construct_t &, std::tuple<const std::__cxx11::basic_string<char, std::char_traits<char>, std::allocator<char> > &>, std::tuple<> >
   fun:construct<std::pair<const std::__cxx11::basic_string<char, std::char_traits<char>, std::allocator<char> >, unsigned int>, const std::piecewise_construct_t &, std::tuple<const std::__cxx11::basic_string<char, std::char_traits<char>, std::allocator<char> > &>, std::tuple<> >
   fun:_M_construct_node<const std::piecewise_construct_t &, std::tuple<const std::__cxx11::basic_string<char, std::char_traits<char>, std::allocator<char> > &>, std::tuple<> >
   fun:_M_create_node<const std::piecewise_construct_t &, std::tuple<const std::__cxx11::basic_string<char, std::char_traits<char>, std::allocator<char> > &>, std::tuple<> >
   fun:_Auto_node<const std::piecewise_construct_t &, std::tuple<const std::__cxx11::basic_string<char, std::char_traits<char>, std::allocator<char> > &>, std::tuple<> >
   fun:_ZNSt8_Rb_treeINSt7__cxx1112basic_stringIcSt11char_traitsIcESaIcEEESt4pairIKS5_jESt10_Select1stIS8_ESt4lessIS5_ESaIS8_EE22_M_emplace_hint_uniqueIJRKSt21piecewise_construct_tSt5tupleIJRS7_EESJ_IJEEEEESt17_Rb_tree_iteratorIS8_ESt23_Rb_tree_const_iteratorIS8_EDpOT_
   fun:_ZNSt3mapINSt7__cxx1112basic_stringIcSt11char_traitsIcESaIcEEEjSt4lessIS5_ESaISt4pairIKS5_jEEEixERS9_
   fun:_ZN4llvm12UniqueVectorINSt7__cxx1112basic_stringIcSt11char_traitsIcESaIcEEEE6insertERKS6_
   fun:_ZN4llvm12DebugCounter10addCounterERKNSt7__cxx1112basic_stringIcSt11char_traitsIcESaIcEEES8_
   fun:_ZN4llvm12DebugCounter15registerCounterENS_9StringRefES1_
   fun:UnknownInlinedFun
   fun:_GLOBAL__sub_I_AssumeBundleBuilder.cpp
   fun:call_init
   fun:call_init
   fun:_dl_init
   fun:_dl_catch_exception
   fun:dl_open_worker
   fun:_dl_catch_exception
}
{
   <insert_a_suppression_name_here>
   Memcheck:Leak
   match-leak-kinds: reachable
   fun:_Znwm
   fun:UnknownInlinedFun
   fun:UnknownInlinedFun
   fun:UnknownInlinedFun
   fun:UnknownInlinedFun
   fun:UnknownInlinedFun
   fun:construct<std::__cxx11::basic_string<char, std::char_traits<char>, std::allocator<char> >, const std::__cxx11::basic_string<char, std::char_traits<char>, std::allocator<char> > &>
   fun:construct<std::__cxx11::basic_string<char, std::char_traits<char>, std::allocator<char> >, const std::__cxx11::basic_string<char, std::char_traits<char>, std::allocator<char> > &>
   fun:_ZNSt6vectorINSt7__cxx1112basic_stringIcSt11char_traitsIcESaIcEEESaIS5_EE17_M_realloc_insertIJRKS5_EEEvN9__gnu_cxx17__normal_iteratorIPS5_S7_EEDpOT_
   fun:push_back
   fun:_ZN4llvm12UniqueVectorINSt7__cxx1112basic_stringIcSt11char_traitsIcESaIcEEEE6insertERKS6_
   fun:_ZN4llvm12DebugCounter10addCounterERKNSt7__cxx1112basic_stringIcSt11char_traitsIcESaIcEEES8_
   fun:_ZN4llvm12DebugCounter15registerCounterENS_9StringRefES1_
   fun:UnknownInlinedFun
   fun:_GLOBAL__sub_I_AssumeBundleBuilder.cpp
   fun:call_init
   fun:call_init
   fun:_dl_init
   fun:_dl_catch_exception
   fun:dl_open_worker
   fun:_dl_catch_exception
   fun:_dl_open
}
{
   <insert_a_suppression_name_here>
   Memcheck:Leak
   match-leak-kinds: reachable
   fun:_Znwm
   fun:UnknownInlinedFun
   fun:UnknownInlinedFun
   fun:UnknownInlinedFun
   fun:UnknownInlinedFun
   fun:UnknownInlinedFun
   fun:pair<const std::__cxx11::basic_string<char, std::char_traits<char>, std::allocator<char> > &, 0UL>
   fun:pair<const std::__cxx11::basic_string<char, std::char_traits<char>, std::allocator<char> > &>
   fun:construct<std::pair<const std::__cxx11::basic_string<char, std::char_traits<char>, std::allocator<char> >, unsigned int>, const std::piecewise_construct_t &, std::tuple<const std::__cxx11::basic_string<char, std::char_traits<char>, std::allocator<char> > &>, std::tuple<> >
   fun:construct<std::pair<const std::__cxx11::basic_string<char, std::char_traits<char>, std::allocator<char> >, unsigned int>, const std::piecewise_construct_t &, std::tuple<const std::__cxx11::basic_string<char, std::char_traits<char>, std::allocator<char> > &>, std::tuple<> >
   fun:_M_construct_node<const std::piecewise_construct_t &, std::tuple<const std::__cxx11::basic_string<char, std::char_traits<char>, std::allocator<char> > &>, std::tuple<> >
   fun:_M_create_node<const std::piecewise_construct_t &, std::tuple<const std::__cxx11::basic_string<char, std::char_traits<char>, std::allocator<char> > &>, std::tuple<> >
   fun:_Auto_node<const std::piecewise_construct_t &, std::tuple<const std::__cxx11::basic_string<char, std::char_traits<char>, std::allocator<char> > &>, std::tuple<> >
   fun:_ZNSt8_Rb_treeINSt7__cxx1112basic_stringIcSt11char_traitsIcESaIcEEESt4pairIKS5_jESt10_Select1stIS8_ESt4lessIS5_ESaIS8_EE22_M_emplace_hint_uniqueIJRKSt21piecewise_construct_tSt5tupleIJRS7_EESJ_IJEEEEESt17_Rb_tree_iteratorIS8_ESt23_Rb_tree_const_iteratorIS8_EDpOT_
   fun:_ZNSt3mapINSt7__cxx1112basic_stringIcSt11char_traitsIcESaIcEEEjSt4lessIS5_ESaISt4pairIKS5_jEEEixERS9_
   fun:_ZN4llvm12UniqueVectorINSt7__cxx1112basic_stringIcSt11char_traitsIcESaIcEEEE6insertERKS6_
   fun:_ZN4llvm12DebugCounter10addCounterERKNSt7__cxx1112basic_stringIcSt11char_traitsIcESaIcEEES8_
   fun:_ZN4llvm12DebugCounter15registerCounterENS_9StringRefES1_
   fun:UnknownInlinedFun
   fun:_GLOBAL__sub_I_AssumeBundleQueries.cpp
   fun:call_init
   fun:call_init
   fun:_dl_init
   fun:_dl_catch_exception
   fun:dl_open_worker
   fun:_dl_catch_exception
}
{
   <insert_a_suppression_name_here>
   Memcheck:Leak
   match-leak-kinds: reachable
   fun:_Znwm
   fun:UnknownInlinedFun
   fun:UnknownInlinedFun
   fun:UnknownInlinedFun
   fun:UnknownInlinedFun
   fun:UnknownInlinedFun
   fun:construct<std::__cxx11::basic_string<char, std::char_traits<char>, std::allocator<char> >, const std::__cxx11::basic_string<char, std::char_traits<char>, std::allocator<char> > &>
   fun:construct<std::__cxx11::basic_string<char, std::char_traits<char>, std::allocator<char> >, const std::__cxx11::basic_string<char, std::char_traits<char>, std::allocator<char> > &>
   fun:push_back
   fun:_ZN4llvm12UniqueVectorINSt7__cxx1112basic_stringIcSt11char_traitsIcESaIcEEEE6insertERKS6_
   fun:_ZN4llvm12DebugCounter10addCounterERKNSt7__cxx1112basic_stringIcSt11char_traitsIcESaIcEEES8_
   fun:_ZN4llvm12DebugCounter15registerCounterENS_9StringRefES1_
   fun:UnknownInlinedFun
   fun:_GLOBAL__sub_I_AssumeBundleQueries.cpp
   fun:call_init
   fun:call_init
   fun:_dl_init
   fun:_dl_catch_exception
   fun:dl_open_worker
   fun:_dl_catch_exception
   fun:_dl_open
   fun:dlopen_doit
}
{
   <insert_a_suppression_name_here>
   Memcheck:Leak
   match-leak-kinds: reachable
   fun:_Znwm
   fun:UnknownInlinedFun
   fun:UnknownInlinedFun
   fun:allocateWithKey<llvm::MallocAllocator>
   fun:Create<llvm::MallocAllocator, llvm::cl::Option *>
   fun:try_emplace<llvm::cl::Option *>
   fun:insert
   fun:_ZN12_GLOBAL__N_117CommandLineParser9addOptionEPN4llvm2cl6OptionEPNS2_10SubCommandE
   fun:_ZN4llvm2cl6Option11addArgumentEv
   fun:done
   fun:opt<char[7], llvm::cl::OptionHidden, llvm::cl::desc, llvm::cl::FormattingFlags, llvm::cl::initializer<int> >
   fun:UnknownInlinedFun
   fun:_GLOBAL__sub_I_HexagonMCELFStreamer.cpp
   fun:call_init
   fun:call_init
   fun:_dl_init
   fun:_dl_catch_exception
   fun:dl_open_worker
   fun:_dl_catch_exception
   fun:_dl_open
   fun:dlopen_doit
   fun:_dl_catch_exception
}
{
   <insert_a_suppression_name_here>
   Memcheck:Leak
   match-leak-kinds: reachable
   fun:_Znwm
   fun:UnknownInlinedFun
   fun:UnknownInlinedFun
   fun:allocateWithKey<llvm::MallocAllocator>
   fun:Create<llvm::MallocAllocator, llvm::cl::Option *>
   fun:try_emplace<llvm::cl::Option *>
   fun:insert
   fun:_ZN12_GLOBAL__N_117CommandLineParser9addOptionEPN4llvm2cl6OptionEPNS2_10SubCommandE
   fun:_ZN4llvm2cl6Option11addArgumentEv
   fun:done
   fun:opt<char[7], llvm::cl::desc, llvm::cl::initializer<bool> >
   fun:__cxx_global_var_init.134
   fun:_GLOBAL__sub_I_HexagonMCTargetDesc.cpp
   fun:call_init
   fun:call_init
   fun:_dl_init
   fun:_dl_catch_exception
   fun:dl_open_worker
   fun:_dl_catch_exception
   fun:_dl_open
   fun:dlopen_doit
   fun:_dl_catch_exception
}
{
   <insert_a_suppression_name_here>
   Memcheck:Leak
   match-leak-kinds: reachable
   fun:_Znwm
   fun:UnknownInlinedFun
   fun:UnknownInlinedFun
   fun:allocateWithKey<llvm::MallocAllocator>
   fun:Create<llvm::MallocAllocator, llvm::cl::Option *>
   fun:try_emplace<llvm::cl::Option *>
   fun:insert
   fun:_ZN12_GLOBAL__N_117CommandLineParser9addOptionEPN4llvm2cl6OptionEPNS2_10SubCommandE
   fun:_ZN4llvm2cl6Option11addArgumentEv
   fun:done
   fun:opt<char[7], llvm::cl::OptionHidden, llvm::cl::desc>
   fun:UnknownInlinedFun
   fun:_GLOBAL__sub_I_MipsSubtarget.cpp
   fun:call_init
   fun:call_init
   fun:_dl_init
   fun:_dl_catch_exception
   fun:dl_open_worker
   fun:_dl_catch_exception
   fun:_dl_open
   fun:dlopen_doit
   fun:_dl_catch_exception
}
{
   <insert_a_suppression_name_here>
   Memcheck:Leak
   match-leak-kinds: reachable
   fun:_Znwm
   fun:UnknownInlinedFun
   fun:UnknownInlinedFun
   fun:allocateWithKey<llvm::MallocAllocator>
   fun:Create<llvm::MallocAllocator>
   fun:try_emplace<>
   fun:operator[]
   fun:_ZN4llvm12PassRegistry12registerPassERKNS_8PassInfoEb
   fun:_ZL42initializeR600ControlFlowFinalizerPassOnceRN4llvm12PassRegistryE.llvm.17656090954769079808
   fun:__pthread_once_slow
   fun:UnknownInlinedFun
   fun:UnknownInlinedFun
   fun:UnknownInlinedFun
   fun:UnknownInlinedFun
   fun:LLVMInitializeAMDGPUTarget
   fun:ac_init_llvm_target
   fun:__pthread_once_slow
   fun:si_init_compiler
   fun:radeonsi_screen_create_impl
   fun:amdgpu_winsys_create
   fun:radeonsi_screen_create
   fun:pipe_radeonsi_create_screen
}
{
   <insert_a_suppression_name_here>
   Memcheck:Leak
   match-leak-kinds: reachable
   fun:_Znwm
   fun:UnknownInlinedFun
   fun:UnknownInlinedFun
   fun:allocateWithKey<llvm::MallocAllocator>
   fun:Create<llvm::MallocAllocator>
   fun:try_emplace<>
   fun:operator[]
   fun:_ZN4llvm12PassRegistry12registerPassERKNS_8PassInfoEb
   fun:_ZL45initializeMemoryDependenceWrapperPassPassOnceRN4llvm12PassRegistryE.llvm.10626061080286291838
   fun:__pthread_once_slow
   fun:UnknownInlinedFun
   fun:UnknownInlinedFun
   fun:UnknownInlinedFun
   fun:UnknownInlinedFun
   fun:_ZL43initializeAMDGPURewriteOutArgumentsPassOnceRN4llvm12PassRegistryE.llvm.8504342169689319072
   fun:__pthread_once_slow
   fun:UnknownInlinedFun
   fun:UnknownInlinedFun
   fun:UnknownInlinedFun
   fun:UnknownInlinedFun
   fun:LLVMInitializeAMDGPUTarget
   fun:ac_init_llvm_target
   fun:__pthread_once_slow
   fun:si_init_compiler
   fun:radeonsi_screen_create_impl
   fun:amdgpu_winsys_create
}
{
   <insert_a_suppression_name_here>
   Memcheck:Leak
   match-leak-kinds: reachable
   fun:_Znwm
   fun:UnknownInlinedFun
   fun:UnknownInlinedFun
   fun:allocateWithKey<llvm::MallocAllocator>
   fun:Create<llvm::MallocAllocator>
   fun:try_emplace<>
   fun:operator[]
   fun:_ZN4llvm12PassRegistry12registerPassERKNS_8PassInfoEb
   fun:_ZL33initializeSIWholeQuadModePassOnceRN4llvm12PassRegistryE.llvm.12773663796858733304
   fun:__pthread_once_slow
   fun:UnknownInlinedFun
   fun:UnknownInlinedFun
   fun:UnknownInlinedFun
   fun:UnknownInlinedFun
   fun:LLVMInitializeAMDGPUTarget
   fun:ac_init_llvm_target
   fun:__pthread_once_slow
   fun:si_init_compiler
   fun:radeonsi_screen_create_impl
   fun:amdgpu_winsys_create
   fun:radeonsi_screen_create
   fun:pipe_radeonsi_create_screen
}
{
   <insert_a_suppression_name_here>
   Memcheck:Leak
   match-leak-kinds: reachable
   fun:_Znwm
   fun:UnknownInlinedFun
   fun:UnknownInlinedFun
   fun:allocateWithKey<llvm::MallocAllocator>
   fun:Create<llvm::MallocAllocator>
   fun:try_emplace<>
   fun:operator[]
   fun:_ZN4llvm12PassRegistry12registerPassERKNS_8PassInfoEb
   fun:_ZL26initializeRAGreedyPassOnceRN4llvm12PassRegistryE.llvm.3047201845550902386
   fun:__pthread_once_slow
   fun:UnknownInlinedFun
   fun:UnknownInlinedFun
   fun:UnknownInlinedFun
   fun:UnknownInlinedFun
   fun:_ZN4llvm17initializeCodeGenERNS_12PassRegistryE
   fun:_ZN4llvm16TargetPassConfigC1ERNS_17LLVMTargetMachineERNS_6legacy15PassManagerBaseE
   fun:AMDGPUPassConfig
   fun:GCNPassConfig
   fun:_ZN4llvm16GCNTargetMachine16createPassConfigERNS_6legacy15PassManagerBaseE
   fun:addPassesToGenerateCode
   fun:_ZN4llvm17LLVMTargetMachine19addPassesToEmitFileERNS_6legacy15PassManagerBaseERNS_17raw_pwrite_streamEPS4_NS_15CodeGenFileTypeEbPNS_28MachineModuleInfoWrapperPassE
   fun:ac_create_llvm_passes
   fun:si_init_compiler
   fun:radeonsi_screen_create_impl
   fun:amdgpu_winsys_create
}
{
   <insert_a_suppression_name_here>
   Memcheck:Leak
   match-leak-kinds: reachable
   fun:_Znwm
   fun:UnknownInlinedFun
   fun:UnknownInlinedFun
   fun:allocateWithKey<llvm::MallocAllocator>
   fun:Create<llvm::MallocAllocator>
   fun:try_emplace<>
   fun:operator[]
   fun:_ZNK4llvm16GCNTargetMachine16getSubtargetImplERKNS_8FunctionE
   fun:getSubtarget<llvm::GCNSubtarget>
   fun:_ZN4llvm16AMDGPUAsmPrinter18initializeTargetIDERKNS_6ModuleE
   fun:_ZN4llvm16AMDGPUAsmPrinter18initTargetStreamerERNS_6ModuleE
   fun:_ZN4llvm16AMDGPUAsmPrinter20runOnMachineFunctionERNS_15MachineFunctionE
   fun:_ZN4llvm19MachineFunctionPass13runOnFunctionERNS_8FunctionE
   fun:_ZN4llvm13FPPassManager13runOnFunctionERNS_8FunctionE
   fun:_ZN4llvm13FPPassManager11runOnModuleERNS_6ModuleE
   fun:runOnModule
   fun:_ZN4llvm6legacy15PassManagerImpl3runERNS_6ModuleE
   fun:ac_compile_module_to_elf
   fun:si_compile_llvm
   fun:si_get_shader_part
}
{
   <insert_a_suppression_name_here>
   Memcheck:Leak
   match-leak-kinds: reachable
   fun:malloc
   fun:malloc
   fun:strdup
   fun:_dl_load_cache_lookup
   fun:_dl_map_object
   fun:dl_open_worker_begin
   fun:_dl_catch_exception
   fun:dl_open_worker
   fun:_dl_catch_exception
   fun:_dl_open
   fun:dlopen_doit
   fun:_dl_catch_exception
   fun:_dl_catch_error
}
{
   <insert_a_suppression_name_here>
   Memcheck:Leak
   match-leak-kinds: reachable
   fun:malloc
   fun:driswCreateDisplay
   fun:__glXInitialize
   fun:GetGLXPrivScreenConfig
   fun:glXChooseVisual
   fun:_ZN3olc14Platform_Linux16CreateWindowPaneERKNS_11v2d_genericIiEERS2_b
   fun:_ZN3olc15PixelGameEngine5StartEv
   fun:main
}
{
   <insert_a_suppression_name_here>
   Memcheck:Leak
   match-leak-kinds: reachable
   fun:_Znwm
   fun:UnknownInlinedFun
   fun:UnknownInlinedFun
   fun:allocateWithKey<llvm::MallocAllocator>
   fun:Create<llvm::MallocAllocator, llvm::cl::Option *>
   fun:try_emplace<llvm::cl::Option *>
   fun:insert
   fun:_ZN12_GLOBAL__N_117CommandLineParser9addOptionEPN4llvm2cl6OptionEPNS2_10SubCommandE
   fun:_ZN4llvm2cl6Option11addArgumentEv
   fun:done
   fun:opt<char[8], llvm::cl::initializer<llvm::ScheduleDAGInstrs *(*)(llvm::MachineSchedContext *)>, llvm::cl::OptionHidden, llvm::cl::desc>
   fun:UnknownInlinedFun
   fun:_GLOBAL__sub_I_MachineScheduler.cpp
   fun:call_init
   fun:call_init
   fun:_dl_init
   fun:_dl_catch_exception
   fun:dl_open_worker
   fun:_dl_catch_exception
   fun:_dl_open
   fun:dlopen_doit
   fun:_dl_catch_exception
}
{
   <insert_a_suppression_name_here>
   Memcheck:Leak
   match-leak-kinds: reachable
   fun:_Znwm
   fun:UnknownInlinedFun
   fun:UnknownInlinedFun
   fun:allocateWithKey<llvm::MallocAllocator>
   fun:Create<llvm::MallocAllocator, llvm::cl::Option *>
   fun:try_emplace<llvm::cl::Option *>
   fun:insert
   fun:_ZN12_GLOBAL__N_117CommandLineParser9addOptionEPN4llvm2cl6OptionEPNS2_10SubCommandE
   fun:_ZN4llvm2cl6Option11addArgumentEv
   fun:done
   fun:opt<char[8], llvm::cl::initializer<bool>, llvm::cl::OptionHidden, llvm::cl::desc>
   fun:UnknownInlinedFun
   fun:_GLOBAL__sub_I_IndirectCallPromotion.cpp
   fun:call_init
   fun:call_init
   fun:_dl_init
   fun:_dl_catch_exception
   fun:dl_open_worker
   fun:_dl_catch_exception
   fun:_dl_open
   fun:dlopen_doit
   fun:_dl_catch_exception
}
{
   <insert_a_suppression_name_here>
   Memcheck:Leak
   match-leak-kinds: reachable
   fun:_Znwm
   fun:UnknownInlinedFun
   fun:UnknownInlinedFun
   fun:UnknownInlinedFun
   fun:UnknownInlinedFun
   fun:UnknownInlinedFun
   fun:pair<const std::__cxx11::basic_string<char, std::char_traits<char>, std::allocator<char> > &, 0UL>
   fun:pair<const std::__cxx11::basic_string<char, std::char_traits<char>, std::allocator<char> > &>
   fun:construct<std::pair<const std::__cxx11::basic_string<char, std::char_traits<char>, std::allocator<char> >, unsigned int>, const std::piecewise_construct_t &, std::tuple<const std::__cxx11::basic_string<char, std::char_traits<char>, std::allocator<char> > &>, std::tuple<> >
   fun:construct<std::pair<const std::__cxx11::basic_string<char, std::char_traits<char>, std::allocator<char> >, unsigned int>, const std::piecewise_construct_t &, std::tuple<const std::__cxx11::basic_string<char, std::char_traits<char>, std::allocator<char> > &>, std::tuple<> >
   fun:_M_construct_node<const std::piecewise_construct_t &, std::tuple<const std::__cxx11::basic_string<char, std::char_traits<char>, std::allocator<char> > &>, std::tuple<> >
   fun:_M_create_node<const std::piecewise_construct_t &, std::tuple<const std::__cxx11::basic_string<char, std::char_traits<char>, std::allocator<char> > &>, std::tuple<> >
   fun:_Auto_node<const std::piecewise_construct_t &, std::tuple<const std::__cxx11::basic_string<char, std::char_traits<char>, std::allocator<char> > &>, std::tuple<> >
   fun:_ZNSt8_Rb_treeINSt7__cxx1112basic_stringIcSt11char_traitsIcESaIcEEESt4pairIKS5_jESt10_Select1stIS8_ESt4lessIS5_ESaIS8_EE22_M_emplace_hint_uniqueIJRKSt21piecewise_construct_tSt5tupleIJRS7_EESJ_IJEEEEESt17_Rb_tree_iteratorIS8_ESt23_Rb_tree_const_iteratorIS8_EDpOT_
   fun:_ZNSt3mapINSt7__cxx1112basic_stringIcSt11char_traitsIcESaIcEEEjSt4lessIS5_ESaISt4pairIKS5_jEEEixERS9_
   fun:_ZN4llvm12UniqueVectorINSt7__cxx1112basic_stringIcSt11char_traitsIcESaIcEEEE6insertERKS6_
   fun:_ZN4llvm12DebugCounter10addCounterERKNSt7__cxx1112basic_stringIcSt11char_traitsIcESaIcEEES8_
   fun:_ZN4llvm12DebugCounter15registerCounterENS_9StringRefES1_
   fun:UnknownInlinedFun
   fun:_GLOBAL__sub_I_DivRemPairs.cpp
   fun:call_init
   fun:call_init
   fun:_dl_init
   fun:_dl_catch_exception
   fun:dl_open_worker
   fun:_dl_catch_exception
}
{
   <insert_a_suppression_name_here>
   Memcheck:Leak
   match-leak-kinds: reachable
   fun:_Znwm
   fun:UnknownInlinedFun
   fun:UnknownInlinedFun
   fun:UnknownInlinedFun
   fun:UnknownInlinedFun
   fun:UnknownInlinedFun
   fun:construct<std::__cxx11::basic_string<char, std::char_traits<char>, std::allocator<char> >, const std::__cxx11::basic_string<char, std::char_traits<char>, std::allocator<char> > &>
   fun:construct<std::__cxx11::basic_string<char, std::char_traits<char>, std::allocator<char> >, const std::__cxx11::basic_string<char, std::char_traits<char>, std::allocator<char> > &>
   fun:_ZNSt6vectorINSt7__cxx1112basic_stringIcSt11char_traitsIcESaIcEEESaIS5_EE17_M_realloc_insertIJRKS5_EEEvN9__gnu_cxx17__normal_iteratorIPS5_S7_EEDpOT_
   fun:push_back
   fun:_ZN4llvm12UniqueVectorINSt7__cxx1112basic_stringIcSt11char_traitsIcESaIcEEEE6insertERKS6_
   fun:_ZN4llvm12DebugCounter10addCounterERKNSt7__cxx1112basic_stringIcSt11char_traitsIcESaIcEEES8_
   fun:_ZN4llvm12DebugCounter15registerCounterENS_9StringRefES1_
   fun:UnknownInlinedFun
   fun:_GLOBAL__sub_I_DivRemPairs.cpp
   fun:call_init
   fun:call_init
   fun:_dl_init
   fun:_dl_catch_exception
   fun:dl_open_worker
   fun:_dl_catch_exception
   fun:_dl_open
}
{
   <insert_a_suppression_name_here>
   Memcheck:Leak
   match-leak-kinds: reachable
   fun:_Znwm
   fun:UnknownInlinedFun
   fun:UnknownInlinedFun
   fun:allocateWithKey<llvm::MallocAllocator>
   fun:Create<llvm::MallocAllocator, llvm::cl::Option *>
   fun:try_emplace<llvm::cl::Option *>
   fun:insert
   fun:_ZN12_GLOBAL__N_117CommandLineParser9addOptionEPN4llvm2cl6OptionEPNS2_10SubCommandE
   fun:_ZN4llvm2cl6Option11addArgumentEv
   fun:done
   fun:opt<char[8], llvm::cl::initializer<int> >
   fun:UnknownInlinedFun
   fun:_GLOBAL__sub_I_ThinLTOCodeGenerator.cpp
   fun:call_init
   fun:call_init
   fun:_dl_init
   fun:_dl_catch_exception
   fun:dl_open_worker
   fun:_dl_catch_exception
   fun:_dl_open
   fun:dlopen_doit
   fun:_dl_catch_exception
}
{
   <insert_a_suppression_name_here>
   Memcheck:Leak
   match-leak-kinds: reachable
   fun:_Znwm
   fun:UnknownInlinedFun
   fun:UnknownInlinedFun
   fun:allocateWithKey<llvm::MallocAllocator>
   fun:Create<llvm::MallocAllocator, llvm::cl::Option *>
   fun:try_emplace<llvm::cl::Option *>
   fun:insert
   fun:_ZN12_GLOBAL__N_117CommandLineParser9addOptionEPN4llvm2cl6OptionEPNS2_10SubCommandE
   fun:_ZN4llvm2cl6Option11addArgumentEv
   fun:_ZN4llvm2mc28RegisterMCTargetOptionsFlagsC1Ev
   fun:call_init
   fun:call_init
   fun:_dl_init
   fun:_dl_catch_exception
   fun:dl_open_worker
   fun:_dl_catch_exception
   fun:_dl_open
   fun:dlopen_doit
   fun:_dl_catch_exception
}
{
   <insert_a_suppression_name_here>
   Memcheck:Leak
   match-leak-kinds: reachable
   fun:_Znwm
   fun:UnknownInlinedFun
   fun:UnknownInlinedFun
   fun:allocateWithKey<llvm::MallocAllocator>
   fun:Create<llvm::MallocAllocator, llvm::cl::Option *>
   fun:try_emplace<llvm::cl::Option *>
   fun:insert
   fun:_ZN12_GLOBAL__N_117CommandLineParser9addOptionEPN4llvm2cl6OptionEPNS2_10SubCommandE
   fun:_ZN4llvm2cl6Option11addArgumentEv
   fun:done
   fun:opt<char[8], llvm::cl::OptionHidden, llvm::cl::initializer<bool>, llvm::cl::desc>
   fun:UnknownInlinedFun
   fun:_GLOBAL__sub_I_HexagonTargetMachine.cpp
   fun:call_init
   fun:call_init
   fun:_dl_init
   fun:_dl_catch_exception
   fun:dl_open_worker
   fun:_dl_catch_exception
   fun:_dl_open
   fun:dlopen_doit
   fun:_dl_catch_exception
}
{
   <insert_a_suppression_name_here>
   Memcheck:Leak
   match-leak-kinds: reachable
   fun:_Znwm
   fun:UnknownInlinedFun
   fun:UnknownInlinedFun
   fun:allocateWithKey<llvm::MallocAllocator>
   fun:Create<llvm::MallocAllocator, llvm::cl::Option *>
   fun:try_emplace<llvm::cl::Option *>
   fun:insert
   fun:_ZN12_GLOBAL__N_117CommandLineParser9addOptionEPN4llvm2cl6OptionEPNS2_10SubCommandE
   fun:_ZN4llvm2cl6Option11addArgumentEv
   fun:done
   fun:opt<char[8], llvm::cl::OptionHidden, llvm::cl::desc>
   fun:__cxx_global_var_init.128
   fun:_GLOBAL__sub_I_HexagonMCTargetDesc.cpp
   fun:call_init
   fun:call_init
   fun:_dl_init
   fun:_dl_catch_exception
   fun:dl_open_worker
   fun:_dl_catch_exception
   fun:_dl_open
   fun:dlopen_doit
   fun:_dl_catch_exception
}
{
   <insert_a_suppression_name_here>
   Memcheck:Leak
   match-leak-kinds: reachable
   fun:_Znwm
   fun:UnknownInlinedFun
   fun:UnknownInlinedFun
   fun:allocateWithKey<llvm::MallocAllocator>
   fun:Create<llvm::MallocAllocator, llvm::cl::Option *>
   fun:try_emplace<llvm::cl::Option *>
   fun:insert
   fun:_ZN12_GLOBAL__N_117CommandLineParser9addOptionEPN4llvm2cl6OptionEPNS2_10SubCommandE
   fun:_ZN4llvm2cl6Option11addArgumentEv
   fun:done
   fun:opt<char[8], llvm::cl::OptionHidden, llvm::cl::desc, llvm::cl::initializer<llvm::MSP430Subtarget::HWMultEnum>, llvm::cl::ValuesClass>
   fun:UnknownInlinedFun
   fun:_GLOBAL__sub_I_MSP430Subtarget.cpp
   fun:call_init
   fun:call_init
   fun:_dl_init
   fun:_dl_catch_exception
   fun:dl_open_worker
   fun:_dl_catch_exception
   fun:_dl_open
   fun:dlopen_doit
   fun:_dl_catch_exception
}
{
   <insert_a_suppression_name_here>
   Memcheck:Leak
   match-leak-kinds: reachable
   fun:_Znwm
   fun:UnknownInlinedFun
   fun:UnknownInlinedFun
   fun:allocateWithKey<llvm::MallocAllocator>
   fun:Create<llvm::MallocAllocator>
   fun:try_emplace<>
   fun:operator[]
   fun:_ZN4llvm12PassRegistry12registerPassERKNS_8PassInfoEb
   fun:_ZL32initializeR600PacketizerPassOnceRN4llvm12PassRegistryE.llvm.7429107899772383093
   fun:__pthread_once_slow
   fun:UnknownInlinedFun
   fun:UnknownInlinedFun
   fun:UnknownInlinedFun
   fun:UnknownInlinedFun
   fun:LLVMInitializeAMDGPUTarget
   fun:ac_init_llvm_target
   fun:__pthread_once_slow
   fun:si_init_compiler
   fun:radeonsi_screen_create_impl
   fun:amdgpu_winsys_create
   fun:radeonsi_screen_create
   fun:pipe_radeonsi_create_screen
}
{
   <insert_a_suppression_name_here>
   Memcheck:Leak
   match-leak-kinds: reachable
   fun:_Znwm
   fun:UnknownInlinedFun
   fun:UnknownInlinedFun
   fun:allocateWithKey<llvm::MallocAllocator>
   fun:Create<llvm::MallocAllocator>
   fun:try_emplace<>
   fun:operator[]
   fun:_ZN4llvm12PassRegistry12registerPassERKNS_8PassInfoEb
   fun:_ZL45initializeGISelCSEAnalysisWrapperPassPassOnceRN4llvm12PassRegistryE.llvm.9883613471466713949
   fun:__pthread_once_slow
   fun:UnknownInlinedFun
   fun:UnknownInlinedFun
   fun:UnknownInlinedFun
   fun:UnknownInlinedFun
   fun:_ZL30initializeIRTranslatorPassOnceRN4llvm12PassRegistryE.llvm.9446234758661035977
   fun:__pthread_once_slow
   fun:UnknownInlinedFun
   fun:UnknownInlinedFun
   fun:UnknownInlinedFun
   fun:UnknownInlinedFun
   fun:_ZN4llvm20initializeGlobalISelERNS_12PassRegistryE
   fun:LLVMInitializeAMDGPUTarget
   fun:ac_init_llvm_target
   fun:__pthread_once_slow
   fun:si_init_compiler
   fun:radeonsi_screen_create_impl
}
{
   <insert_a_suppression_name_here>
   Memcheck:Leak
   match-leak-kinds: reachable
   fun:_Znwm
   fun:UnknownInlinedFun
   fun:UnknownInlinedFun
   fun:allocateWithKey<llvm::MallocAllocator>
   fun:Create<llvm::MallocAllocator>
   fun:try_emplace<>
   fun:operator[]
   fun:_ZN4llvm12PassRegistry12registerPassERKNS_8PassInfoEb
   fun:_ZL42initializeDominatorTreeWrapperPassPassOnceRN4llvm12PassRegistryE.llvm.7462186890807660260
   fun:__pthread_once_slow
   fun:UnknownInlinedFun
   fun:UnknownInlinedFun
   fun:UnknownInlinedFun
   fun:UnknownInlinedFun
   fun:_ZL37initializeLoopInfoWrapperPassPassOnceRN4llvm12PassRegistryE.llvm.14139684847973238224
   fun:__pthread_once_slow
   fun:UnknownInlinedFun
   fun:UnknownInlinedFun
   fun:UnknownInlinedFun
   fun:UnknownInlinedFun
   fun:_ZL50initializeBranchProbabilityInfoWrapperPassPassOnceRN4llvm12PassRegistryE.llvm.3079600055323173122
   fun:__pthread_once_slow
   fun:UnknownInlinedFun
   fun:UnknownInlinedFun
   fun:UnknownInlinedFun
   fun:UnknownInlinedFun
   fun:_ZL47initializeBlockFrequencyInfoWrapperPassPassOnceRN4llvm12PassRegistryE.llvm.2361570520918676161
   fun:__pthread_once_slow
   fun:UnknownInlinedFun
   fun:UnknownInlinedFun
   fun:UnknownInlinedFun
   fun:UnknownInlinedFun
   fun:_ZL30initializeIRTranslatorPassOnceRN4llvm12PassRegistryE.llvm.9446234758661035977
   fun:__pthread_once_slow
}
{
   <insert_a_suppression_name_here>
   Memcheck:Leak
   match-leak-kinds: reachable
   fun:_Znwm
   fun:UnknownInlinedFun
   fun:UnknownInlinedFun
   fun:allocateWithKey<llvm::MallocAllocator>
   fun:Create<llvm::MallocAllocator>
   fun:try_emplace<>
   fun:operator[]
   fun:_ZN4llvm12PassRegistry12registerPassERKNS_8PassInfoEb
   fun:_ZL38initializeCallGraphWrapperPassPassOnceRN4llvm12PassRegistryE.llvm.16098454100742705210
   fun:__pthread_once_slow
   fun:UnknownInlinedFun
   fun:UnknownInlinedFun
   fun:UnknownInlinedFun
   fun:UnknownInlinedFun
   fun:_ZL38initializeGlobalsAAWrapperPassPassOnceRN4llvm12PassRegistryE.llvm.5188814384541076369
   fun:__pthread_once_slow
   fun:UnknownInlinedFun
   fun:UnknownInlinedFun
   fun:UnknownInlinedFun
   fun:UnknownInlinedFun
   fun:_ZL38initializeAAResultsWrapperPassPassOnceRN4llvm12PassRegistryE.llvm.3986720190912680915
   fun:__pthread_once_slow
   fun:UnknownInlinedFun
   fun:UnknownInlinedFun
   fun:UnknownInlinedFun
   fun:UnknownInlinedFun
   fun:_ZL38initializeSILoadStoreOptimizerPassOnceRN4llvm12PassRegistryE.llvm.375695131650757695
   fun:__pthread_once_slow
   fun:UnknownInlinedFun
   fun:UnknownInlinedFun
   fun:UnknownInlinedFun
   fun:UnknownInlinedFun
   fun:LLVMInitializeAMDGPUTarget
   fun:ac_init_llvm_target
}
{
   <insert_a_suppression_name_here>
   Memcheck:Leak
   match-leak-kinds: reachable
   fun:_Znwm
   fun:UnknownInlinedFun
   fun:UnknownInlinedFun
   fun:allocateWithKey<llvm::MallocAllocator>
   fun:Create<llvm::MallocAllocator>
   fun:try_emplace<>
   fun:operator[]
   fun:_ZN4llvm12PassRegistry12registerPassERKNS_8PassInfoEb
   fun:_ZL35initializeSCEVAAWrapperPassPassOnceRN4llvm12PassRegistryE.llvm.16549232759743393892
   fun:__pthread_once_slow
   fun:UnknownInlinedFun
   fun:UnknownInlinedFun
   fun:UnknownInlinedFun
   fun:UnknownInlinedFun
   fun:_ZL38initializeAAResultsWrapperPassPassOnceRN4llvm12PassRegistryE.llvm.3986720190912680915
   fun:__pthread_once_slow
   fun:UnknownInlinedFun
   fun:UnknownInlinedFun
   fun:UnknownInlinedFun
   fun:UnknownInlinedFun
   fun:_ZL38initializeSILoadStoreOptimizerPassOnceRN4llvm12PassRegistryE.llvm.375695131650757695
   fun:__pthread_once_slow
   fun:UnknownInlinedFun
   fun:UnknownInlinedFun
   fun:UnknownInlinedFun
   fun:UnknownInlinedFun
   fun:LLVMInitializeAMDGPUTarget
   fun:ac_init_llvm_target
   fun:__pthread_once_slow
   fun:si_init_compiler
}
{
   <insert_a_suppression_name_here>
   Memcheck:Leak
   match-leak-kinds: reachable
   fun:_Znwm
   fun:UnknownInlinedFun
   fun:UnknownInlinedFun
   fun:allocateWithKey<llvm::MallocAllocator>
   fun:Create<llvm::MallocAllocator, llvm::cl::Option *>
   fun:try_emplace<llvm::cl::Option *>
   fun:insert
   fun:_ZN12_GLOBAL__N_117CommandLineParser9addOptionEPN4llvm2cl6OptionEPNS2_10SubCommandE
   fun:addArgument
   fun:done
   fun:opt<char[8], llvm::cl::desc, llvm::cl::LocationClass<(anonymous namespace)::VersionPrinter>, llvm::cl::ValueExpected, llvm::cl::cat>
   fun:CommandLineCommonOptions
   fun:_ZN4llvm14object_creatorIN12_GLOBAL__N_124CommandLineCommonOptionsEE4callEv
   fun:UnknownInlinedFun
   fun:operator*
   fun:_ZL17initCommonOptionsv
   fun:_ZN4llvm2cl23ParseCommandLineOptionsEiPKPKcNS_9StringRefEPNS_11raw_ostreamES2_b
   fun:LLVMParseCommandLineOptions
   fun:ac_init_llvm_target
   fun:__pthread_once_slow
   fun:si_init_compiler
   fun:radeonsi_screen_create_impl
   fun:amdgpu_winsys_create
   fun:radeonsi_screen_create
}
{
   <insert_a_suppression_name_here>
   Memcheck:Leak
   match-leak-kinds: reachable
   fun:_Znwm
   fun:UnknownInlinedFun
   fun:UnknownInlinedFun
   fun:allocateWithKey<llvm::MallocAllocator>
   fun:Create<llvm::MallocAllocator>
   fun:try_emplace<>
   fun:operator[]
   fun:_ZN4llvm12PassRegistry12registerPassERKNS_8PassInfoEb
   fun:_ZL29initializeBarrierNoopPassOnceRN4llvm12PassRegistryE.llvm.14823646553327311964
   fun:__pthread_once_slow
   fun:UnknownInlinedFun
   fun:UnknownInlinedFun
   fun:UnknownInlinedFun
   fun:initializeBarrierNoopPass
   fun:BarrierNoop
   fun:_ZN4llvm21createBarrierNoopPassEv
   fun:ac_llvm_add_barrier_noop_pass
   fun:ac_create_passmgr
   fun:ac_init_llvm_compiler
   fun:si_init_compiler
   fun:radeonsi_screen_create_impl
   fun:amdgpu_winsys_create
   fun:radeonsi_screen_create
   fun:pipe_radeonsi_create_screen
}
{
   <insert_a_suppression_name_here>
   Memcheck:Leak
   match-leak-kinds: reachable
   fun:_Znwm
   fun:UnknownInlinedFun
   fun:UnknownInlinedFun
   fun:allocateWithKey<llvm::MallocAllocator>
   fun:Create<llvm::MallocAllocator>
   fun:try_emplace<>
   fun:operator[]
   fun:_ZN4llvm12PassRegistry12registerPassERKNS_8PassInfoEb
   fun:_ZL35initializePromoteLegacyPassPassOnceRN4llvm12PassRegistryE.llvm.15652282397699527933
   fun:__pthread_once_slow
   fun:UnknownInlinedFun
   fun:UnknownInlinedFun
   fun:UnknownInlinedFun
   fun:initializePromoteLegacyPassPass
   fun:PromoteLegacyPass
   fun:_ZN4llvm33createPromoteMemoryToRegisterPassEv
   fun:LLVMAddPromoteMemoryToRegisterPass
   fun:ac_create_passmgr
   fun:ac_init_llvm_compiler
   fun:si_init_compiler
   fun:radeonsi_screen_create_impl
   fun:amdgpu_winsys_create
   fun:radeonsi_screen_create
   fun:pipe_radeonsi_create_screen
}
{
   <insert_a_suppression_name_here>
   Memcheck:Leak
   match-leak-kinds: reachable
   fun:_Znwm
   fun:UnknownInlinedFun
   fun:UnknownInlinedFun
   fun:allocateWithKey<llvm::MallocAllocator>
   fun:Create<llvm::MallocAllocator>
   fun:try_emplace<>
   fun:operator[]
   fun:_ZN4llvm12PassRegistry12registerPassERKNS_8PassInfoEb
   fun:_ZL32initializeRegionInfoPassPassOnceRN4llvm12PassRegistryE.llvm.11416703369176574243
   fun:__pthread_once_slow
   fun:UnknownInlinedFun
   fun:UnknownInlinedFun
   fun:UnknownInlinedFun
   fun:UnknownInlinedFun
   fun:_ZL42initializeStructurizeCFGLegacyPassPassOnceRN4llvm12PassRegistryE.llvm.5155288106195394348
   fun:__pthread_once_slow
   fun:UnknownInlinedFun
   fun:UnknownInlinedFun
   fun:UnknownInlinedFun
   fun:initializeStructurizeCFGLegacyPassPass
   fun:StructurizeCFGLegacyPass
   fun:_ZN4llvm24createStructurizeCFGPassEb
   fun:_ZN12_GLOBAL__N_113GCNPassConfig10addPreISelEv
   fun:_ZN4llvm16TargetPassConfig14addISelPrepareEv
   fun:_ZN4llvm16TargetPassConfig13addISelPassesEv
   fun:addPassesToGenerateCode
   fun:_ZN4llvm17LLVMTargetMachine19addPassesToEmitFileERNS_6legacy15PassManagerBaseERNS_17raw_pwrite_streamEPS4_NS_15CodeGenFileTypeEbPNS_28MachineModuleInfoWrapperPassE
   fun:ac_create_llvm_passes
}
{
   <insert_a_suppression_name_here>
   Memcheck:Leak
   match-leak-kinds: reachable
   fun:_Znwm
   fun:_ZN4llvm21createSIMCCodeEmitterERKNS_11MCInstrInfoERNS_9MCContextE
   fun:createMCCodeEmitter
   fun:_ZN4llvm17LLVMTargetMachine16createMCStreamerERNS_17raw_pwrite_streamEPS1_NS_15CodeGenFileTypeERNS_9MCContextE
   fun:addAsmPrinter
   fun:_ZN4llvm17LLVMTargetMachine19addPassesToEmitFileERNS_6legacy15PassManagerBaseERNS_17raw_pwrite_streamEPS4_NS_15CodeGenFileTypeEbPNS_28MachineModuleInfoWrapperPassE
   fun:ac_create_llvm_passes
   fun:si_init_compiler
   fun:radeonsi_screen_create_impl
   fun:amdgpu_winsys_create
   fun:radeonsi_screen_create
   fun:pipe_radeonsi_create_screen
   fun:pipe_loader_create_screen_vk
   fun:dri2_init_screen
}
{
   <insert_a_suppression_name_here>
   Memcheck:Leak
   match-leak-kinds: reachable
   fun:calloc
   fun:_mesa_hash_table_u64_create
   fun:_mesa_init_shared_handles
   fun:_mesa_alloc_shared_state
   fun:_mesa_initialize_context
   fun:st_create_context
   fun:st_api_create_context
   fun:dri_create_context
   fun:driCreateContextAttribs
   fun:dri3_create_context_attribs
   fun:dri_common_create_context
   fun:CreateContext
}
{
   <insert_a_suppression_name_here>
   Memcheck:Leak
   match-leak-kinds: reachable
   fun:calloc
   fun:_mesa_new_program_cache
   fun:_mesa_init_program
   fun:init_attrib_groups
   fun:_mesa_initialize_context
   fun:st_create_context
   fun:st_api_create_context
   fun:dri_create_context
   fun:driCreateContextAttribs
   fun:dri3_create_context_attribs
   fun:dri_common_create_context
   fun:CreateContext
   fun:glXCreateContext
}
{
   <insert_a_suppression_name_here>
   Memcheck:Leak
   match-leak-kinds: reachable
   fun:calloc
   fun:_mesa_hash_table_u64_create
   fun:_mesa_init_resident_handles
   fun:init_attrib_groups
   fun:_mesa_initialize_context
   fun:st_create_context
   fun:st_api_create_context
   fun:dri_create_context
   fun:driCreateContextAttribs
   fun:dri3_create_context_attribs
   fun:dri_common_create_context
   fun:CreateContext
   fun:glXCreateContext
}
{
   <insert_a_suppression_name_here>
   Memcheck:Leak
   match-leak-kinds: reachable
   fun:malloc
   fun:__glxHashInsert
   fun:driFetchDrawable
   fun:dri3_bind_context
   fun:MakeContextCurrent
   fun:InternalMakeCurrentVendor
   fun:InternalMakeCurrentDispatch
   fun:CommonMakeCurrent
   fun:_ZN3olc14Renderer_OGL1012CreateDeviceESt6vectorIPvSaIS2_EEbb
   fun:_ZN3olc14Platform_Linux14CreateGraphicsEbbRKNS_11v2d_genericIiEES4_
   fun:_ZN3olc15PixelGameEngine17olc_PrepareEngineEv
   fun:_ZN3olc15PixelGameEngine12EngineThreadEv
}
{
   <insert_a_suppression_name_here>
   Memcheck:Leak
   match-leak-kinds: reachable
   fun:_Znwm
   fun:_ZN4llvm21createSIMCCodeEmitterERKNS_11MCInstrInfoERNS_9MCContextE
   fun:createMCCodeEmitter
   fun:_ZN4llvm17LLVMTargetMachine16createMCStreamerERNS_17raw_pwrite_streamEPS1_NS_15CodeGenFileTypeERNS_9MCContextE
   fun:addAsmPrinter
   fun:_ZN4llvm17LLVMTargetMachine19addPassesToEmitFileERNS_6legacy15PassManagerBaseERNS_17raw_pwrite_streamEPS4_NS_15CodeGenFileTypeEbPNS_28MachineModuleInfoWrapperPassE
   fun:ac_create_llvm_passes
   fun:si_init_compiler
   fun:si_shader_select_with_key<false, si_shader_key_ge>
   fun:si_shader_select
   fun:_Z17si_update_shadersIL13amd_gfx_level11EL11si_has_tess0EL9si_has_gs0EL10si_has_ngg0EEbP10si_context
   fun:si_draw<(amd_gfx_level)11, (si_has_tess)0, (si_has_gs)0, (si_has_ngg)0, (si_is_draw_vertex_state)0, (util_popcnt)0>
   fun:_Z11si_draw_vboIL13amd_gfx_level11EL11si_has_tess0EL9si_has_gs0EL10si_has_ngg0EEvP12pipe_contextPK14pipe_draw_infojPK23pipe_draw_indirect_infoPK26pipe_draw_start_count_biasj
   fun:_ZL17si_draw_rectangleP15blitter_contextPvPFS1_S0_Eiiiifj19blitter_attrib_typePK14blitter_attrib
   fun:blitter_draw_tex
   fun:do_blits
}
{
   <insert_a_suppression_name_here>
   Memcheck:Leak
   match-leak-kinds: reachable
   fun:_Znwm
   fun:_M_create<const (lambda at /builddir/build/BUILD/llvm-15.0.7.src/include/llvm/CodeGen/GlobalISel/LegalizerInfo.h:1119:9) &>
   fun:_M_init_functor<const (lambda at /builddir/build/BUILD/llvm-15.0.7.src/include/llvm/CodeGen/GlobalISel/LegalizerInfo.h:1119:9) &>
   fun:_M_manager
   fun:_ZNSt17_Function_handlerIFbRKN4llvm13LegalityQueryEEZNS0_15LegalizeRuleSet19clampMaxNumElementsEjNS0_3LLTEjEUlS3_E_E10_M_managerERSt9_Any_dataRKS9_St18_Manager_operation
   fun:function
   fun:LegalizeRule
   fun:_ZN4llvm23SmallVectorTemplateBaseINS_12LegalizeRuleELb0EE9push_backERKS1_
   fun:add
   fun:_ZN4llvm15LegalizeRuleSet8actionIfENS_15LegalizeActions14LegalizeActionESt8functionIFbRKNS_13LegalityQueryEEES3_IFSt4pairIjNS_3LLTEES6_EE
   fun:clampMaxNumElements
   fun:_ZN4llvm19AMDGPULegalizerInfoC1ERKNS_12GCNSubtargetERKNS_16GCNTargetMachineE
   fun:_ZN4llvm12GCNSubtargetC1ERKNS_6TripleENS_9StringRefES4_RKNS_16GCNTargetMachineE
   fun:make_unique<llvm::GCNSubtarget, const llvm::Triple &, llvm::StringRef &, llvm::StringRef &, const llvm::GCNTargetMachine &>
   fun:_ZNK4llvm16GCNTargetMachine16getSubtargetImplERKNS_8FunctionE
   fun:_ZN4llvm10GCNTTIImplC1EPKNS_19AMDGPUTargetMachineERKNS_8FunctionE
   fun:_ZNK4llvm16GCNTargetMachine22getTargetTransformInfoERKNS_8FunctionE
   fun:operator()
   fun:__invoke_impl<llvm::TargetTransformInfo, (lambda at /builddir/build/BUILD/llvm-15.0.7.src/lib/Target/TargetMachine.cpp:219:7) &, const llvm::Function &>
   fun:__invoke_r<llvm::TargetTransformInfo, (lambda at /builddir/build/BUILD/llvm-15.0.7.src/lib/Target/TargetMachine.cpp:219:7) &, const llvm::Function &>
   fun:_ZNSt17_Function_handlerIFN4llvm19TargetTransformInfoERKNS0_8FunctionEEZNKS0_13TargetMachine19getTargetIRAnalysisEvE3$_0E9_M_invokeERKSt9_Any_dataS4_.llvm.939216426106684745
   fun:UnknownInlinedFun
   fun:UnknownInlinedFun
   fun:UnknownInlinedFun
   fun:_ZN4llvm22AssumptionCacheTracker18getAssumptionCacheERNS_8FunctionE
   fun:_ZN12_GLOBAL__N_118InferAddressSpaces13runOnFunctionERN4llvm8FunctionE.llvm.10078684876576591733
}
{
   <insert_a_suppression_name_here>
   Memcheck:Leak
   match-leak-kinds: reachable
   fun:_Znwm
   fun:_M_create<const (lambda at /builddir/build/BUILD/llvm-15.0.7.src/include/llvm/CodeGen/GlobalISel/LegalizerInfo.h:1099:9) &>
   fun:_M_init_functor<const (lambda at /builddir/build/BUILD/llvm-15.0.7.src/include/llvm/CodeGen/GlobalISel/LegalizerInfo.h:1099:9) &>
   fun:_M_manager
   fun:_ZNSt17_Function_handlerIFbRKN4llvm13LegalityQueryEEZNS0_15LegalizeRuleSet18alignNumElementsToEjNS0_3LLTEjEUlS3_E_E10_M_managerERSt9_Any_dataRKS9_St18_Manager_operation
   fun:function
   fun:LegalizeRule
   fun:_ZN4llvm23SmallVectorTemplateBaseINS_12LegalizeRuleELb0EE9push_backERKS1_
   fun:add
   fun:_ZN4llvm15LegalizeRuleSet8actionIfENS_15LegalizeActions14LegalizeActionESt8functionIFbRKNS_13LegalityQueryEEES3_IFSt4pairIjNS_3LLTEES6_EE
   fun:alignNumElementsTo
   fun:_ZN4llvm15LegalizeRuleSet25clampMaxNumElementsStrictEjNS_3LLTEj
   fun:_ZN4llvm19AMDGPULegalizerInfoC1ERKNS_12GCNSubtargetERKNS_16GCNTargetMachineE
   fun:_ZN4llvm12GCNSubtargetC1ERKNS_6TripleENS_9StringRefES4_RKNS_16GCNTargetMachineE
   fun:make_unique<llvm::GCNSubtarget, const llvm::Triple &, llvm::StringRef &, llvm::StringRef &, const llvm::GCNTargetMachine &>
   fun:_ZNK4llvm16GCNTargetMachine16getSubtargetImplERKNS_8FunctionE
   fun:_ZN4llvm10GCNTTIImplC1EPKNS_19AMDGPUTargetMachineERKNS_8FunctionE
   fun:_ZNK4llvm16GCNTargetMachine22getTargetTransformInfoERKNS_8FunctionE
   fun:operator()
   fun:__invoke_impl<llvm::TargetTransformInfo, (lambda at /builddir/build/BUILD/llvm-15.0.7.src/lib/Target/TargetMachine.cpp:219:7) &, const llvm::Function &>
   fun:__invoke_r<llvm::TargetTransformInfo, (lambda at /builddir/build/BUILD/llvm-15.0.7.src/lib/Target/TargetMachine.cpp:219:7) &, const llvm::Function &>
   fun:_ZNSt17_Function_handlerIFN4llvm19TargetTransformInfoERKNS0_8FunctionEEZNKS0_13TargetMachine19getTargetIRAnalysisEvE3$_0E9_M_invokeERKSt9_Any_dataS4_.llvm.939216426106684745
   fun:UnknownInlinedFun
   fun:UnknownInlinedFun
   fun:UnknownInlinedFun
   fun:_ZN4llvm22AssumptionCacheTracker18getAssumptionCacheERNS_8FunctionE
}
{
   <insert_a_suppression_name_here>
   Memcheck:Leak
   match-leak-kinds: reachable
   fun:_Znwm
   fun:_M_create<const (lambda at /builddir/build/BUILD/llvm-15.0.7.src/include/llvm/CodeGen/GlobalISel/LegalizerInfo.h:1119:9) &>
   fun:_M_init_functor<const (lambda at /builddir/build/BUILD/llvm-15.0.7.src/include/llvm/CodeGen/GlobalISel/LegalizerInfo.h:1119:9) &>
   fun:_M_manager
   fun:_ZNSt17_Function_handlerIFbRKN4llvm13LegalityQueryEEZNS0_15LegalizeRuleSet19clampMaxNumElementsEjNS0_3LLTEjEUlS3_E_E10_M_managerERSt9_Any_dataRKS9_St18_Manager_operation
   fun:function
   fun:LegalizeRule
   fun:_ZN4llvm23SmallVectorTemplateBaseINS_12LegalizeRuleELb0EE9push_backERKS1_
   fun:add
   fun:_ZN4llvm15LegalizeRuleSet8actionIfENS_15LegalizeActions14LegalizeActionESt8functionIFbRKNS_13LegalityQueryEEES3_IFSt4pairIjNS_3LLTEES6_EE
   fun:clampMaxNumElements
   fun:_ZN4llvm15LegalizeRuleSet25clampMaxNumElementsStrictEjNS_3LLTEj
   fun:_ZN4llvm19AMDGPULegalizerInfoC1ERKNS_12GCNSubtargetERKNS_16GCNTargetMachineE
   fun:_ZN4llvm12GCNSubtargetC1ERKNS_6TripleENS_9StringRefES4_RKNS_16GCNTargetMachineE
   fun:make_unique<llvm::GCNSubtarget, const llvm::Triple &, llvm::StringRef &, llvm::StringRef &, const llvm::GCNTargetMachine &>
   fun:_ZNK4llvm16GCNTargetMachine16getSubtargetImplERKNS_8FunctionE
   fun:_ZN4llvm10GCNTTIImplC1EPKNS_19AMDGPUTargetMachineERKNS_8FunctionE
   fun:_ZNK4llvm16GCNTargetMachine22getTargetTransformInfoERKNS_8FunctionE
   fun:operator()
   fun:__invoke_impl<llvm::TargetTransformInfo, (lambda at /builddir/build/BUILD/llvm-15.0.7.src/lib/Target/TargetMachine.cpp:219:7) &, const llvm::Function &>
   fun:__invoke_r<llvm::TargetTransformInfo, (lambda at /builddir/build/BUILD/llvm-15.0.7.src/lib/Target/TargetMachine.cpp:219:7) &, const llvm::Function &>
   fun:_ZNSt17_Function_handlerIFN4llvm19TargetTransformInfoERKNS0_8FunctionEEZNKS0_13TargetMachine19getTargetIRAnalysisEvE3$_0E9_M_invokeERKSt9_Any_dataS4_.llvm.939216426106684745
   fun:UnknownInlinedFun
   fun:UnknownInlinedFun
   fun:UnknownInlinedFun
   fun:_ZN4llvm22AssumptionCacheTracker18getAssumptionCacheERNS_8FunctionE
}
{
   <insert_a_suppression_name_here>
   Memcheck:Leak
   match-leak-kinds: reachable
   fun:_Znwm
   fun:_M_create<const (lambda at /builddir/build/BUILD/llvm-15.0.7.src/include/llvm/CodeGen/GlobalISel/LegalizerInfo.h:1081:9) &>
   fun:_M_init_functor<const (lambda at /builddir/build/BUILD/llvm-15.0.7.src/include/llvm/CodeGen/GlobalISel/LegalizerInfo.h:1081:9) &>
   fun:_M_manager
   fun:_ZNSt17_Function_handlerIFbRKN4llvm13LegalityQueryEEZNS0_15LegalizeRuleSet19clampMinNumElementsEjNS0_3LLTEjEUlS3_E_E10_M_managerERSt9_Any_dataRKS9_St18_Manager_operation
   fun:function
   fun:LegalizeRule
   fun:_ZN4llvm23SmallVectorTemplateBaseINS_12LegalizeRuleELb0EE9push_backERKS1_
   fun:add
   fun:_ZN4llvm15LegalizeRuleSet8actionIfENS_15LegalizeActions14LegalizeActionESt8functionIFbRKNS_13LegalityQueryEEES3_IFSt4pairIjNS_3LLTEES6_EE
   fun:clampMinNumElements
   fun:_ZN4llvm15LegalizeRuleSet16clampNumElementsEjNS_3LLTES1_
   fun:_ZN4llvm19AMDGPULegalizerInfoC1ERKNS_12GCNSubtargetERKNS_16GCNTargetMachineE
   fun:_ZN4llvm12GCNSubtargetC1ERKNS_6TripleENS_9StringRefES4_RKNS_16GCNTargetMachineE
   fun:make_unique<llvm::GCNSubtarget, const llvm::Triple &, llvm::StringRef &, llvm::StringRef &, const llvm::GCNTargetMachine &>
   fun:_ZNK4llvm16GCNTargetMachine16getSubtargetImplERKNS_8FunctionE
   fun:_ZN4llvm10GCNTTIImplC1EPKNS_19AMDGPUTargetMachineERKNS_8FunctionE
   fun:_ZNK4llvm16GCNTargetMachine22getTargetTransformInfoERKNS_8FunctionE
   fun:operator()
   fun:__invoke_impl<llvm::TargetTransformInfo, (lambda at /builddir/build/BUILD/llvm-15.0.7.src/lib/Target/TargetMachine.cpp:219:7) &, const llvm::Function &>
   fun:__invoke_r<llvm::TargetTransformInfo, (lambda at /builddir/build/BUILD/llvm-15.0.7.src/lib/Target/TargetMachine.cpp:219:7) &, const llvm::Function &>
   fun:_ZNSt17_Function_handlerIFN4llvm19TargetTransformInfoERKNS0_8FunctionEEZNKS0_13TargetMachine19getTargetIRAnalysisEvE3$_0E9_M_invokeERKSt9_Any_dataS4_.llvm.939216426106684745
   fun:UnknownInlinedFun
   fun:UnknownInlinedFun
   fun:UnknownInlinedFun
   fun:_ZN4llvm22AssumptionCacheTracker18getAssumptionCacheERNS_8FunctionE
}
{
   <insert_a_suppression_name_here>
   Memcheck:Leak
   match-leak-kinds: reachable
   fun:_Znwm
   fun:_M_create<const (lambda at /builddir/build/BUILD/llvm-15.0.7.src/include/llvm/CodeGen/GlobalISel/LegalizerInfo.h:1119:9) &>
   fun:_M_init_functor<const (lambda at /builddir/build/BUILD/llvm-15.0.7.src/include/llvm/CodeGen/GlobalISel/LegalizerInfo.h:1119:9) &>
   fun:_M_manager
   fun:_ZNSt17_Function_handlerIFbRKN4llvm13LegalityQueryEEZNS0_15LegalizeRuleSet19clampMaxNumElementsEjNS0_3LLTEjEUlS3_E_E10_M_managerERSt9_Any_dataRKS9_St18_Manager_operation
   fun:function
   fun:LegalizeRule
   fun:_ZN4llvm23SmallVectorTemplateBaseINS_12LegalizeRuleELb0EE9push_backERKS1_
   fun:add
   fun:_ZN4llvm15LegalizeRuleSet8actionIfENS_15LegalizeActions14LegalizeActionESt8functionIFbRKNS_13LegalityQueryEEES3_IFSt4pairIjNS_3LLTEES6_EE
   fun:clampMaxNumElements
   fun:_ZN4llvm15LegalizeRuleSet16clampNumElementsEjNS_3LLTES1_
   fun:_ZN4llvm19AMDGPULegalizerInfoC1ERKNS_12GCNSubtargetERKNS_16GCNTargetMachineE
   fun:_ZN4llvm12GCNSubtargetC1ERKNS_6TripleENS_9StringRefES4_RKNS_16GCNTargetMachineE
   fun:make_unique<llvm::GCNSubtarget, const llvm::Triple &, llvm::StringRef &, llvm::StringRef &, const llvm::GCNTargetMachine &>
   fun:_ZNK4llvm16GCNTargetMachine16getSubtargetImplERKNS_8FunctionE
   fun:_ZN4llvm10GCNTTIImplC1EPKNS_19AMDGPUTargetMachineERKNS_8FunctionE
   fun:_ZNK4llvm16GCNTargetMachine22getTargetTransformInfoERKNS_8FunctionE
   fun:operator()
   fun:__invoke_impl<llvm::TargetTransformInfo, (lambda at /builddir/build/BUILD/llvm-15.0.7.src/lib/Target/TargetMachine.cpp:219:7) &, const llvm::Function &>
   fun:__invoke_r<llvm::TargetTransformInfo, (lambda at /builddir/build/BUILD/llvm-15.0.7.src/lib/Target/TargetMachine.cpp:219:7) &, const llvm::Function &>
   fun:_ZNSt17_Function_handlerIFN4llvm19TargetTransformInfoERKNS0_8FunctionEEZNKS0_13TargetMachine19getTargetIRAnalysisEvE3$_0E9_M_invokeERKSt9_Any_dataS4_.llvm.939216426106684745
   fun:UnknownInlinedFun
   fun:UnknownInlinedFun
   fun:UnknownInlinedFun
   fun:_ZN4llvm22AssumptionCacheTracker18getAssumptionCacheERNS_8FunctionE
}
{
   <insert_a_suppression_name_here>
   Memcheck:Leak
   match-leak-kinds: reachable
   fun:_Znwm
   fun:allocate
   fun:allocate
   fun:_M_allocate_node<const std::piecewise_construct_t &, std::tuple<const llvm::BasicBlock *&&>, std::tuple<> >
   fun:_Scoped_node<const std::piecewise_construct_t &, std::tuple<const llvm::BasicBlock *&&>, std::tuple<> >
   fun:operator[]
   fun:operator[]
   fun:appendBlock
   fun:operator()
   fun:__invoke_impl<void, (lambda at /builddir/build/BUILD/llvm-15.0.7.src/lib/Analysis/SyncDependenceAnalysis.cpp:255:21) &, const llvm::BasicBlock &>
   fun:__invoke_r<void, (lambda at /builddir/build/BUILD/llvm-15.0.7.src/lib/Analysis/SyncDependenceAnalysis.cpp:255:21) &, const llvm::BasicBlock &>
   fun:_ZNSt17_Function_handlerIFvRKN4llvm10BasicBlockEEZNS0_22SyncDependenceAnalysisC1ERKNS0_13DominatorTreeERKNS0_17PostDominatorTreeERKNS0_8LoopInfoEE3$_0E9_M_invokeERKSt9_Any_dataS3_.llvm.9753355679059810421
   fun:operator()
   fun:_ZN12_GLOBAL__N_114computeStackPOERSt6vectorIPKN4llvm10BasicBlockESaIS4_EERKNS1_8LoopInfoEPNS1_4LoopESt8functionIFvRS3_EERSt3setIS4_St4lessIS4_ES5_E.llvm.9753355679059810421
   fun:computeTopLevelPO
   fun:_ZN4llvm22SyncDependenceAnalysisC1ERKNS_13DominatorTreeERKNS_17PostDominatorTreeERKNS_8LoopInfoE
   fun:make_unique<llvm::SyncDependenceAnalysis, const llvm::DominatorTree &, const llvm::PostDominatorTree &, const llvm::LoopInfo &>
   fun:_ZN4llvm14DivergenceInfoC1ERNS_8FunctionERKNS_13DominatorTreeERKNS_17PostDominatorTreeERKNS_8LoopInfoERKNS_19TargetTransformInfoEb
   fun:make_unique<llvm::DivergenceInfo, llvm::Function &, llvm::DominatorTree &, llvm::PostDominatorTree &, llvm::LoopInfo &, llvm::TargetTransformInfo &, bool>
   fun:_ZN4llvm24LegacyDivergenceAnalysis13runOnFunctionERNS_8FunctionE
   fun:_ZN4llvm13FPPassManager13runOnFunctionERNS_8FunctionE
   fun:_ZN4llvm13FPPassManager11runOnModuleERNS_6ModuleE
   fun:runOnModule
   fun:_ZN4llvm6legacy15PassManagerImpl3runERNS_6ModuleE
   fun:ac_compile_module_to_elf
   fun:si_compile_llvm
   fun:si_get_shader_part
}
{
   <insert_a_suppression_name_here>
   Memcheck:Leak
   match-leak-kinds: reachable
   fun:_Znwm
   fun:_M_create<const (lambda at /builddir/build/BUILD/llvm-15.0.7.src/include/llvm/CodeGen/GlobalISel/LegalizerInfo.h:1119:9) &>
   fun:_M_init_functor<const (lambda at /builddir/build/BUILD/llvm-15.0.7.src/include/llvm/CodeGen/GlobalISel/LegalizerInfo.h:1119:9) &>
   fun:_M_manager
   fun:_ZNSt17_Function_handlerIFbRKN4llvm13LegalityQueryEEZNS0_15LegalizeRuleSet19clampMaxNumElementsEjNS0_3LLTEjEUlS3_E_E10_M_managerERSt9_Any_dataRKS9_St18_Manager_operation
   fun:function
   fun:LegalizeRule
   fun:_ZN4llvm23SmallVectorTemplateBaseINS_12LegalizeRuleELb0EE9push_backERKS1_
   fun:add
   fun:_ZN4llvm15LegalizeRuleSet8actionIfENS_15LegalizeActions14LegalizeActionESt8functionIFbRKNS_13LegalityQueryEEES3_IFSt4pairIjNS_3LLTEES6_EE
   fun:clampMaxNumElements
   fun:_ZN4llvm19AMDGPULegalizerInfoC1ERKNS_12GCNSubtargetERKNS_16GCNTargetMachineE
   fun:_ZN4llvm12GCNSubtargetC1ERKNS_6TripleENS_9StringRefES4_RKNS_16GCNTargetMachineE
   fun:make_unique<llvm::GCNSubtarget, const llvm::Triple &, llvm::StringRef &, llvm::StringRef &, const llvm::GCNTargetMachine &>
   fun:_ZNK4llvm16GCNTargetMachine16getSubtargetImplERKNS_8FunctionE
   fun:getSubtarget<llvm::GCNSubtarget>
   fun:_ZN4llvm16AMDGPUAsmPrinter18initializeTargetIDERKNS_6ModuleE
   fun:_ZN4llvm16AMDGPUAsmPrinter18initTargetStreamerERNS_6ModuleE
   fun:_ZN4llvm16AMDGPUAsmPrinter20runOnMachineFunctionERNS_15MachineFunctionE
   fun:_ZN4llvm19MachineFunctionPass13runOnFunctionERNS_8FunctionE
   fun:_ZN4llvm13FPPassManager13runOnFunctionERNS_8FunctionE
}
{
   <insert_a_suppression_name_here>
   Memcheck:Leak
   match-leak-kinds: reachable
   fun:_Znwm
   fun:_M_create<const (lambda at /builddir/build/BUILD/llvm-15.0.7.src/include/llvm/CodeGen/GlobalISel/LegalizerInfo.h:1099:9) &>
   fun:_M_init_functor<const (lambda at /builddir/build/BUILD/llvm-15.0.7.src/include/llvm/CodeGen/GlobalISel/LegalizerInfo.h:1099:9) &>
   fun:_M_manager
   fun:_ZNSt17_Function_handlerIFbRKN4llvm13LegalityQueryEEZNS0_15LegalizeRuleSet18alignNumElementsToEjNS0_3LLTEjEUlS3_E_E10_M_managerERSt9_Any_dataRKS9_St18_Manager_operation
   fun:function
   fun:LegalizeRule
   fun:_ZN4llvm23SmallVectorTemplateBaseINS_12LegalizeRuleELb0EE9push_backERKS1_
   fun:add
   fun:_ZN4llvm15LegalizeRuleSet8actionIfENS_15LegalizeActions14LegalizeActionESt8functionIFbRKNS_13LegalityQueryEEES3_IFSt4pairIjNS_3LLTEES6_EE
   fun:alignNumElementsTo
   fun:_ZN4llvm15LegalizeRuleSet25clampMaxNumElementsStrictEjNS_3LLTEj
   fun:_ZN4llvm19AMDGPULegalizerInfoC1ERKNS_12GCNSubtargetERKNS_16GCNTargetMachineE
   fun:_ZN4llvm12GCNSubtargetC1ERKNS_6TripleENS_9StringRefES4_RKNS_16GCNTargetMachineE
   fun:make_unique<llvm::GCNSubtarget, const llvm::Triple &, llvm::StringRef &, llvm::StringRef &, const llvm::GCNTargetMachine &>
   fun:_ZNK4llvm16GCNTargetMachine16getSubtargetImplERKNS_8FunctionE
   fun:getSubtarget<llvm::GCNSubtarget>
   fun:_ZN4llvm16AMDGPUAsmPrinter18initializeTargetIDERKNS_6ModuleE
   fun:_ZN4llvm16AMDGPUAsmPrinter18initTargetStreamerERNS_6ModuleE
   fun:_ZN4llvm16AMDGPUAsmPrinter20runOnMachineFunctionERNS_15MachineFunctionE
   fun:_ZN4llvm19MachineFunctionPass13runOnFunctionERNS_8FunctionE
}
{
   <insert_a_suppression_name_here>
   Memcheck:Leak
   match-leak-kinds: reachable
   fun:_Znwm
   fun:_M_create<const (lambda at /builddir/build/BUILD/llvm-15.0.7.src/include/llvm/CodeGen/GlobalISel/LegalizerInfo.h:1119:9) &>
   fun:_M_init_functor<const (lambda at /builddir/build/BUILD/llvm-15.0.7.src/include/llvm/CodeGen/GlobalISel/LegalizerInfo.h:1119:9) &>
   fun:_M_manager
   fun:_ZNSt17_Function_handlerIFbRKN4llvm13LegalityQueryEEZNS0_15LegalizeRuleSet19clampMaxNumElementsEjNS0_3LLTEjEUlS3_E_E10_M_managerERSt9_Any_dataRKS9_St18_Manager_operation
   fun:function
   fun:LegalizeRule
   fun:_ZN4llvm23SmallVectorTemplateBaseINS_12LegalizeRuleELb0EE9push_backERKS1_
   fun:add
   fun:_ZN4llvm15LegalizeRuleSet8actionIfENS_15LegalizeActions14LegalizeActionESt8functionIFbRKNS_13LegalityQueryEEES3_IFSt4pairIjNS_3LLTEES6_EE
   fun:clampMaxNumElements
   fun:_ZN4llvm15LegalizeRuleSet25clampMaxNumElementsStrictEjNS_3LLTEj
   fun:_ZN4llvm19AMDGPULegalizerInfoC1ERKNS_12GCNSubtargetERKNS_16GCNTargetMachineE
   fun:_ZN4llvm12GCNSubtargetC1ERKNS_6TripleENS_9StringRefES4_RKNS_16GCNTargetMachineE
   fun:make_unique<llvm::GCNSubtarget, const llvm::Triple &, llvm::StringRef &, llvm::StringRef &, const llvm::GCNTargetMachine &>
   fun:_ZNK4llvm16GCNTargetMachine16getSubtargetImplERKNS_8FunctionE
   fun:getSubtarget<llvm::GCNSubtarget>
   fun:_ZN4llvm16AMDGPUAsmPrinter18initializeTargetIDERKNS_6ModuleE
   fun:_ZN4llvm16AMDGPUAsmPrinter18initTargetStreamerERNS_6ModuleE
   fun:_ZN4llvm16AMDGPUAsmPrinter20runOnMachineFunctionERNS_15MachineFunctionE
   fun:_ZN4llvm19MachineFunctionPass13runOnFunctionERNS_8FunctionE
}
{
   <insert_a_suppression_name_here>
   Memcheck:Leak
   match-leak-kinds: reachable
   fun:_Znwm
   fun:_M_create<const (lambda at /builddir/build/BUILD/llvm-15.0.7.src/include/llvm/CodeGen/GlobalISel/LegalizerInfo.h:1081:9) &>
   fun:_M_init_functor<const (lambda at /builddir/build/BUILD/llvm-15.0.7.src/include/llvm/CodeGen/GlobalISel/LegalizerInfo.h:1081:9) &>
   fun:_M_manager
   fun:_ZNSt17_Function_handlerIFbRKN4llvm13LegalityQueryEEZNS0_15LegalizeRuleSet19clampMinNumElementsEjNS0_3LLTEjEUlS3_E_E10_M_managerERSt9_Any_dataRKS9_St18_Manager_operation
   fun:function
   fun:LegalizeRule
   fun:_ZN4llvm23SmallVectorTemplateBaseINS_12LegalizeRuleELb0EE9push_backERKS1_
   fun:add
   fun:_ZN4llvm15LegalizeRuleSet8actionIfENS_15LegalizeActions14LegalizeActionESt8functionIFbRKNS_13LegalityQueryEEES3_IFSt4pairIjNS_3LLTEES6_EE
   fun:clampMinNumElements
   fun:_ZN4llvm15LegalizeRuleSet16clampNumElementsEjNS_3LLTES1_
   fun:_ZN4llvm19AMDGPULegalizerInfoC1ERKNS_12GCNSubtargetERKNS_16GCNTargetMachineE
   fun:_ZN4llvm12GCNSubtargetC1ERKNS_6TripleENS_9StringRefES4_RKNS_16GCNTargetMachineE
   fun:make_unique<llvm::GCNSubtarget, const llvm::Triple &, llvm::StringRef &, llvm::StringRef &, const llvm::GCNTargetMachine &>
   fun:_ZNK4llvm16GCNTargetMachine16getSubtargetImplERKNS_8FunctionE
   fun:getSubtarget<llvm::GCNSubtarget>
   fun:_ZN4llvm16AMDGPUAsmPrinter18initializeTargetIDERKNS_6ModuleE
   fun:_ZN4llvm16AMDGPUAsmPrinter18initTargetStreamerERNS_6ModuleE
   fun:_ZN4llvm16AMDGPUAsmPrinter20runOnMachineFunctionERNS_15MachineFunctionE
   fun:_ZN4llvm19MachineFunctionPass13runOnFunctionERNS_8FunctionE
}
{
   <insert_a_suppression_name_here>
   Memcheck:Leak
   match-leak-kinds: reachable
   fun:_Znwm
   fun:_M_create<const (lambda at /builddir/build/BUILD/llvm-15.0.7.src/include/llvm/CodeGen/GlobalISel/LegalizerInfo.h:1119:9) &>
   fun:_M_init_functor<const (lambda at /builddir/build/BUILD/llvm-15.0.7.src/include/llvm/CodeGen/GlobalISel/LegalizerInfo.h:1119:9) &>
   fun:_M_manager
   fun:_ZNSt17_Function_handlerIFbRKN4llvm13LegalityQueryEEZNS0_15LegalizeRuleSet19clampMaxNumElementsEjNS0_3LLTEjEUlS3_E_E10_M_managerERSt9_Any_dataRKS9_St18_Manager_operation
   fun:function
   fun:LegalizeRule
   fun:_ZN4llvm23SmallVectorTemplateBaseINS_12LegalizeRuleELb0EE9push_backERKS1_
   fun:add
   fun:_ZN4llvm15LegalizeRuleSet8actionIfENS_15LegalizeActions14LegalizeActionESt8functionIFbRKNS_13LegalityQueryEEES3_IFSt4pairIjNS_3LLTEES6_EE
   fun:clampMaxNumElements
   fun:_ZN4llvm15LegalizeRuleSet16clampNumElementsEjNS_3LLTES1_
   fun:_ZN4llvm19AMDGPULegalizerInfoC1ERKNS_12GCNSubtargetERKNS_16GCNTargetMachineE
   fun:_ZN4llvm12GCNSubtargetC1ERKNS_6TripleENS_9StringRefES4_RKNS_16GCNTargetMachineE
   fun:make_unique<llvm::GCNSubtarget, const llvm::Triple &, llvm::StringRef &, llvm::StringRef &, const llvm::GCNTargetMachine &>
   fun:_ZNK4llvm16GCNTargetMachine16getSubtargetImplERKNS_8FunctionE
   fun:getSubtarget<llvm::GCNSubtarget>
   fun:_ZN4llvm16AMDGPUAsmPrinter18initializeTargetIDERKNS_6ModuleE
   fun:_ZN4llvm16AMDGPUAsmPrinter18initTargetStreamerERNS_6ModuleE
   fun:_ZN4llvm16AMDGPUAsmPrinter20runOnMachineFunctionERNS_15MachineFunctionE
   fun:_ZN4llvm19MachineFunctionPass13runOnFunctionERNS_8FunctionE
}
{
   <insert_a_suppression_name_here>
   Memcheck:Leak
   match-leak-kinds: reachable
   fun:_Znwm
   fun:allocate
   fun:allocate
   fun:_M_allocate
   fun:_ZNSt6vectorISt4pairIjN4llvm10AsmPrinter15MBBSectionRangeEESaIS4_EE17_M_realloc_insertIJS4_EEEvN9__gnu_cxx17__normal_iteratorIPS4_S6_EEDpOT_
   fun:emplace_back<std::pair<unsigned int, llvm::AsmPrinter::MBBSectionRange> >
   fun:push_back
   fun:_ZN4llvm9MapVectorIjNS_10AsmPrinter15MBBSectionRangeENS_8DenseMapIjjNS_12DenseMapInfoIjvEENS_6detail12DenseMapPairIjjEEEESt6vectorISt4pairIjS2_ESaISC_EEEixERKj
   fun:_ZN4llvm10AsmPrinter16emitFunctionBodyEv
   fun:_ZN4llvm16AMDGPUAsmPrinter20runOnMachineFunctionERNS_15MachineFunctionE
   fun:_ZN4llvm19MachineFunctionPass13runOnFunctionERNS_8FunctionE
   fun:_ZN4llvm13FPPassManager13runOnFunctionERNS_8FunctionE
   fun:_ZN4llvm13FPPassManager11runOnModuleERNS_6ModuleE
   fun:runOnModule
   fun:_ZN4llvm6legacy15PassManagerImpl3runERNS_6ModuleE
   fun:ac_compile_module_to_elf
   fun:si_compile_llvm
   fun:si_get_shader_part
}
{
   <insert_a_suppression_name_here>
   Memcheck:Leak
   match-leak-kinds: reachable
   fun:malloc
   fun:cso_hash_create_node
   fun:cso_hash_insert
   fun:cso_set_depth_stencil_alpha
   fun:st_update_depth_stencil_alpha
   fun:st_validate_state
   fun:prepare_draw
   fun:st_draw_gallium_multimode
   fun:vbo_exec_vtx_flush
   fun:vbo_exec_FlushVertices_internal
   fun:vbo_exec_FlushVertices
   fun:st_context_flush
   fun:dri_flush
   fun:loader_dri3_swap_buffers_msc
}
{
   <insert_a_suppression_name_here>
   Memcheck:Leak
   match-leak-kinds: reachable
   fun:malloc
   fun:cso_hash_create_node
   fun:cso_hash_insert
   fun:set_sampler
   fun:cso_set_sampler
   fun:set_samplers
   fun:cso_set_samplers
   fun:update_shader_samplers
   fun:st_validate_state
   fun:prepare_draw
   fun:st_draw_gallium_multimode
   fun:vbo_exec_vtx_flush
   fun:vbo_exec_FlushVertices_internal
   fun:vbo_exec_FlushVertices
   fun:st_context_flush
   fun:dri_flush
   fun:loader_dri3_swap_buffers_msc
}
{
   <insert_a_suppression_name_here>
   Memcheck:Leak
   match-leak-kinds: reachable
   fun:malloc
   fun:cso_hash_create_node
   fun:cso_hash_insert
   fun:cso_set_blend
   fun:st_validate_state
   fun:prepare_draw
   fun:st_draw_gallium_multimode
   fun:vbo_exec_vtx_flush
   fun:vbo_exec_FlushVertices_internal
   fun:vbo_exec_FlushVertices
   fun:st_context_flush
   fun:dri_flush
   fun:loader_dri3_swap_buffers_msc
   fun:dri3_swap_buffers
}
{
   <insert_a_suppression_name_here>
   Memcheck:Leak
   match-leak-kinds: reachable
   fun:malloc
   fun:cso_hash_create_node
   fun:cso_hash_insert
   fun:cso_set_rasterizer
   fun:st_validate_state
   fun:prepare_draw
   fun:st_draw_gallium_multimode
   fun:vbo_exec_vtx_flush
   fun:vbo_exec_FlushVertices_internal
   fun:vbo_exec_FlushVertices
   fun:st_context_flush
   fun:dri_flush
   fun:loader_dri3_swap_buffers_msc
   fun:dri3_swap_buffers
}
{
   <insert_a_suppression_name_here>
   Memcheck:Leak
   match-leak-kinds: reachable
   fun:_Znwm
   fun:make_unique<llvm::OptimizationRemarkEmitter, llvm::Function *, llvm::BlockFrequencyInfo *&>
   fun:_ZN4llvm36OptimizationRemarkEmitterWrapperPass13runOnFunctionERNS_8FunctionE
   fun:_ZN4llvm13FPPassManager13runOnFunctionERNS_8FunctionE
   fun:_ZN4llvm13FPPassManager11runOnModuleERNS_6ModuleE
   fun:runOnModule
   fun:_ZN4llvm6legacy15PassManagerImpl3runERNS_6ModuleE
   fun:UnknownInlinedFun
   fun:LLVMRunPassManager
   fun:si_llvm_optimize_module
   fun:si_get_shader_part
   fun:si_shader_select_ps_parts
   fun:si_create_shader_variant
   fun:_ZL23si_build_shader_variantP9si_shaderib
   fun:si_shader_select_with_key<false, si_shader_key_ps>
   fun:si_shader_select
   fun:_Z17si_update_shadersIL13amd_gfx_level11EL11si_has_tess0EL9si_has_gs0EL10si_has_ngg0EEbP10si_context
}
{
   <insert_a_suppression_name_here>
   Memcheck:Leak
   match-leak-kinds: reachable
   fun:_Znwm
   fun:UnknownInlinedFun
   fun:_ZN4llvm27TargetLoweringObjectFileELF10InitializeERNS_9MCContextERKNS_13TargetMachineE
   fun:_ZN4llvm10AsmPrinter16doInitializationERNS_6ModuleE
   fun:_ZN4llvm13FPPassManager16doInitializationERNS_6ModuleE
   fun:runOnModule
   fun:_ZN4llvm6legacy15PassManagerImpl3runERNS_6ModuleE
   fun:ac_compile_module_to_elf
   fun:si_compile_llvm
   fun:si_get_shader_part
   fun:si_shader_select_ps_parts
   fun:si_create_shader_variant
   fun:_ZL23si_build_shader_variantP9si_shaderib
   fun:si_shader_select_with_key<false, si_shader_key_ps>
   fun:si_shader_select
   fun:_Z17si_update_shadersIL13amd_gfx_level11EL11si_has_tess0EL9si_has_gs0EL10si_has_ngg0EEbP10si_context
}
{
   <insert_a_suppression_name_here>
   Memcheck:Leak
   match-leak-kinds: reachable
   fun:_Znwm
   fun:allocate
   fun:allocate
   fun:_M_allocate
   fun:_ZNSt6vectorIN4llvm26BlockFrequencyInfoImplBase13FrequencyDataESaIS2_EE17_M_default_appendEm
   fun:resize
   fun:initializeRPOT
   fun:_ZN4llvm22BlockFrequencyInfoImplINS_10BasicBlockEE9calculateERKNS_8FunctionERKNS_21BranchProbabilityInfoERKNS_8LoopInfoE
   fun:_ZN4llvm18BlockFrequencyInfo9calculateERKNS_8FunctionERKNS_21BranchProbabilityInfoERKNS_8LoopInfoE
   fun:UnknownInlinedFun
   fun:_ZN12_GLOBAL__N_114CodeGenPrepare13runOnFunctionERN4llvm8FunctionE
   fun:_ZN4llvm13FPPassManager13runOnFunctionERNS_8FunctionE
   fun:RunPassOnSCC
   fun:RunAllPassesOnSCC
   fun:_ZN12_GLOBAL__N_113CGPassManager11runOnModuleERN4llvm6ModuleE
   fun:runOnModule
   fun:_ZN4llvm6legacy15PassManagerImpl3runERNS_6ModuleE
   fun:ac_compile_module_to_elf
   fun:si_compile_llvm
   fun:si_get_shader_part
   fun:si_shader_select_ps_parts
   fun:si_create_shader_variant
}
{
   <insert_a_suppression_name_here>
   Memcheck:Leak
   match-leak-kinds: reachable
   fun:_Znwm
   fun:make_unique<llvm::OptimizationRemarkEmitter, const llvm::Function *>
   fun:_ZN4llvm16SelectionDAGISel20runOnMachineFunctionERNS_15MachineFunctionE
   fun:_ZN18AMDGPUDAGToDAGISel20runOnMachineFunctionERN4llvm15MachineFunctionE
   fun:_ZN4llvm19MachineFunctionPass13runOnFunctionERNS_8FunctionE
   fun:_ZN4llvm13FPPassManager13runOnFunctionERNS_8FunctionE
   fun:RunPassOnSCC
   fun:RunAllPassesOnSCC
   fun:_ZN12_GLOBAL__N_113CGPassManager11runOnModuleERN4llvm6ModuleE
   fun:runOnModule
   fun:_ZN4llvm6legacy15PassManagerImpl3runERNS_6ModuleE
   fun:ac_compile_module_to_elf
   fun:si_compile_llvm
   fun:si_get_shader_part
   fun:si_shader_select_ps_parts
   fun:si_create_shader_variant
   fun:_ZL23si_build_shader_variantP9si_shaderib
}
{
   <insert_a_suppression_name_here>
   Memcheck:Leak
   match-leak-kinds: reachable
   fun:_Znam
   fun:_ZN4llvm17RegisterClassInfo20runOnMachineFunctionERKNS_15MachineFunctionE
   fun:UnknownInlinedFun
   fun:_ZN4llvm8RAGreedy20runOnMachineFunctionERNS_15MachineFunctionE
   fun:_ZN4llvm19MachineFunctionPass13runOnFunctionERNS_8FunctionE
   fun:_ZN4llvm13FPPassManager13runOnFunctionERNS_8FunctionE
   fun:RunPassOnSCC
   fun:RunAllPassesOnSCC
   fun:_ZN12_GLOBAL__N_113CGPassManager11runOnModuleERN4llvm6ModuleE
   fun:runOnModule
   fun:_ZN4llvm6legacy15PassManagerImpl3runERNS_6ModuleE
   fun:ac_compile_module_to_elf
   fun:si_compile_llvm
   fun:si_get_shader_part
   fun:si_shader_select_ps_parts
   fun:si_create_shader_variant
   fun:_ZL23si_build_shader_variantP9si_shaderib
}
{
   <insert_a_suppression_name_here>
   Memcheck:Leak
   match-leak-kinds: possible
   fun:malloc
   fun:UnknownInlinedFun
   fun:allocate_dtv_entry
   fun:allocate_and_init
   fun:tls_get_addr_tail
   fun:__tls_get_addr
   fun:UnknownInlinedFun
   fun:TimeTraceScope
   fun:runOnModule
   fun:_ZN4llvm6legacy15PassManagerImpl3runERNS_6ModuleE
   fun:UnknownInlinedFun
   fun:LLVMRunPassManager
   fun:si_llvm_optimize_module
   fun:si_get_shader_part
   fun:si_shader_select_ps_parts
   fun:si_create_shader_variant
   fun:_ZL23si_build_shader_variantP9si_shaderib
   fun:si_shader_select_with_key<false, si_shader_key_ps>
   fun:si_shader_select
   fun:_Z17si_update_shadersIL13amd_gfx_level11EL11si_has_tess0EL9si_has_gs0EL10si_has_ngg0EEbP10si_context
   fun:si_draw<(amd_gfx_level)11, (si_has_tess)0, (si_has_gs)0, (si_has_ngg)0, (si_is_draw_vertex_state)0, (util_popcnt)0>
   fun:_Z11si_draw_vboIL13amd_gfx_level11EL11si_has_tess0EL9si_has_gs0EL10si_has_ngg0EEvP12pipe_contextPK14pipe_draw_infojPK23pipe_draw_indirect_infoPK26pipe_draw_start_count_biasj
}
{
   <insert_a_suppression_name_here>
   Memcheck:Leak
   match-leak-kinds: possible
   fun:calloc
   fun:_mesa_symbol_table_ctor
   fun:_ZN17glsl_symbol_tableC1Ev
   fun:_ZN22_mesa_glsl_parse_stateC1EP10gl_context16pipe_shader_typePv
   fun:create_new_program
   fun:_mesa_get_fixed_func_fragment_program
   fun:update_program
   fun:_mesa_update_state_locked
   fun:_mesa_update_state
   fun:_mesa_Begin
   fun:_ZN3olc14Renderer_OGL1013DrawLayerQuadERKNS_11v2d_genericIfEES4_NS_5PixelE
   fun:_ZN3olc15PixelGameEngine14olc_CoreUpdateEv
   fun:_ZN3olc15PixelGameEngine12EngineThreadEv
}
{
   <insert_a_suppression_name_here>
   Memcheck:Leak
   match-leak-kinds: possible
   fun:calloc
   fun:_mesa_symbol_table_ctor
   fun:_ZN17glsl_symbol_tableC1Ev
   fun:_ZN22_mesa_glsl_parse_stateC1EP10gl_context16pipe_shader_typePv
   fun:create_new_program
   fun:_mesa_get_fixed_func_fragment_program
   fun:update_program
   fun:_mesa_update_state_locked
   fun:_mesa_update_state
   fun:vbo_exec_vtx_flush
   fun:vbo_exec_FlushVertices_internal
   fun:vbo_exec_FlushVertices
   fun:st_context_flush
   fun:dri_flush
}
{
   <insert_a_suppression_name_here>
   Memcheck:Leak
   match-leak-kinds: reachable
   fun:_Znwm
   fun:UnknownInlinedFun
   fun:UnknownInlinedFun
   fun:allocateWithKey<llvm::MallocAllocator>
   fun:Create<llvm::MallocAllocator, llvm::cl::Option *>
   fun:try_emplace<llvm::cl::Option *>
   fun:insert
   fun:_ZN12_GLOBAL__N_117CommandLineParser9addOptionEPN4llvm2cl6OptionEPNS2_10SubCommandE
   fun:_ZN4llvm2cl6Option11addArgumentEv
   fun:done
   fun:opt<char[9], llvm::cl::OptionHidden, llvm::cl::desc>
   fun:UnknownInlinedFun
   fun:_GLOBAL__sub_I_TargetPassConfig.cpp
   fun:call_init
   fun:call_init
   fun:_dl_init
   fun:_dl_catch_exception
   fun:dl_open_worker
   fun:_dl_catch_exception
   fun:_dl_open
   fun:dlopen_doit
   fun:_dl_catch_exception
}
{
   <insert_a_suppression_name_here>
   Memcheck:Leak
   match-leak-kinds: reachable
   fun:_Znwm
   fun:UnknownInlinedFun
   fun:UnknownInlinedFun
   fun:allocateWithKey<llvm::MallocAllocator>
   fun:Create<llvm::MallocAllocator, llvm::cl::Option *>
   fun:try_emplace<llvm::cl::Option *>
   fun:insert
   fun:_ZN12_GLOBAL__N_117CommandLineParser9addOptionEPN4llvm2cl6OptionEPNS2_10SubCommandE
   fun:_ZN4llvm2cl6Option11addArgumentEv
   fun:done
   fun:opt<char[9], llvm::cl::OptionHidden, llvm::cl::initializer<llvm::FunctionPass *(*)()>, llvm::cl::desc>
   fun:__cxx_global_var_init.173
   fun:_GLOBAL__sub_I_TargetPassConfig.cpp
   fun:call_init
   fun:call_init
   fun:_dl_init
   fun:_dl_catch_exception
   fun:dl_open_worker
   fun:_dl_catch_exception
   fun:_dl_open
   fun:dlopen_doit
   fun:_dl_catch_exception
}
{
   <insert_a_suppression_name_here>
   Memcheck:Leak
   match-leak-kinds: reachable
   fun:_Znwm
   fun:UnknownInlinedFun
   fun:UnknownInlinedFun
   fun:allocateWithKey<llvm::MallocAllocator>
   fun:Create<llvm::MallocAllocator, llvm::cl::Option *>
   fun:try_emplace<llvm::cl::Option *>
   fun:insert
   fun:_ZN12_GLOBAL__N_117CommandLineParser9addOptionEPN4llvm2cl6OptionEPNS2_10SubCommandE
   fun:_ZN4llvm2cl6Option11addArgumentEv
   fun:done
   fun:opt<char[9], llvm::cl::desc, llvm::cl::initializer<bool>, llvm::cl::OptionHidden>
   fun:UnknownInlinedFun
   fun:_GLOBAL__sub_I_SelectionDAGISel.cpp
   fun:call_init
   fun:call_init
   fun:_dl_init
   fun:_dl_catch_exception
   fun:dl_open_worker
   fun:_dl_catch_exception
   fun:_dl_open
   fun:dlopen_doit
   fun:_dl_catch_exception
}
{
   <insert_a_suppression_name_here>
   Memcheck:Leak
   match-leak-kinds: reachable
   fun:_Znwm
   fun:UnknownInlinedFun
   fun:UnknownInlinedFun
   fun:allocateWithKey<llvm::MallocAllocator>
   fun:Create<llvm::MallocAllocator>
   fun:try_emplace<>
   fun:operator[]
   fun:_ZN4llvm12PassRegistry12registerPassERKNS_8PassInfoEb
   fun:RegisterPass
   fun:__cxx_global_var_init.34
   fun:_GLOBAL__sub_I_Debugify.cpp
   fun:call_init
   fun:call_init
   fun:_dl_init
   fun:_dl_catch_exception
   fun:dl_open_worker
   fun:_dl_catch_exception
   fun:_dl_open
   fun:dlopen_doit
   fun:_dl_catch_exception
   fun:_dl_catch_error
}
{
   <insert_a_suppression_name_here>
   Memcheck:Leak
   match-leak-kinds: reachable
   fun:_Znwm
   fun:UnknownInlinedFun
   fun:UnknownInlinedFun
   fun:allocateWithKey<llvm::MallocAllocator>
   fun:Create<llvm::MallocAllocator, llvm::cl::Option *>
   fun:try_emplace<llvm::cl::Option *>
   fun:insert
   fun:_ZN12_GLOBAL__N_117CommandLineParser9addOptionEPN4llvm2cl6OptionEPNS2_10SubCommandE
   fun:_ZN4llvm2cl6Option11addArgumentEv
   fun:done
   fun:opt<char[9], llvm::cl::desc, llvm::cl::OptionHidden, llvm::cl::initializer<bool> >
   fun:UnknownInlinedFun
   fun:_GLOBAL__sub_I_AddressSanitizer.cpp
   fun:call_init
   fun:call_init
   fun:_dl_init
   fun:_dl_catch_exception
   fun:dl_open_worker
   fun:_dl_catch_exception
   fun:_dl_open
   fun:dlopen_doit
   fun:_dl_catch_exception
}
{
   <insert_a_suppression_name_here>
   Memcheck:Leak
   match-leak-kinds: reachable
   fun:_Znwm
   fun:UnknownInlinedFun
   fun:UnknownInlinedFun
   fun:UnknownInlinedFun
   fun:UnknownInlinedFun
   fun:UnknownInlinedFun
   fun:UnknownInlinedFun
   fun:_GLOBAL__sub_I_COFFImportFile.cpp
   fun:call_init
   fun:call_init
   fun:_dl_init
   fun:_dl_catch_exception
   fun:dl_open_worker
   fun:_dl_catch_exception
   fun:_dl_open
   fun:dlopen_doit
   fun:_dl_catch_exception
   fun:_dl_catch_error
   fun:_dlerror_run
}
{
   <insert_a_suppression_name_here>
   Memcheck:Leak
   match-leak-kinds: reachable
   fun:_Znwm
   fun:UnknownInlinedFun
   fun:UnknownInlinedFun
   fun:allocateWithKey<llvm::MallocAllocator>
   fun:Create<llvm::MallocAllocator, llvm::cl::Option *>
   fun:try_emplace<llvm::cl::Option *>
   fun:insert
   fun:_ZN12_GLOBAL__N_117CommandLineParser9addOptionEPN4llvm2cl6OptionEPNS2_10SubCommandE
   fun:_ZN4llvm2cl6Option11addArgumentEv
   fun:done
   fun:opt<char[9], llvm::cl::initializer<bool> >
   fun:UnknownInlinedFun
   fun:_GLOBAL__sub_I_HexagonRDFOpt.cpp
   fun:call_init
   fun:call_init
   fun:_dl_init
   fun:_dl_catch_exception
   fun:dl_open_worker
   fun:_dl_catch_exception
   fun:_dl_open
   fun:dlopen_doit
   fun:_dl_catch_exception
}
{
   <insert_a_suppression_name_here>
   Memcheck:Leak
   match-leak-kinds: reachable
   fun:_Znwm
   fun:UnknownInlinedFun
   fun:UnknownInlinedFun
   fun:allocateWithKey<llvm::MallocAllocator>
   fun:Create<llvm::MallocAllocator, llvm::cl::Option *>
   fun:try_emplace<llvm::cl::Option *>
   fun:insert
   fun:_ZN12_GLOBAL__N_117CommandLineParser9addOptionEPN4llvm2cl6OptionEPNS2_10SubCommandE
   fun:_ZN4llvm2cl6Option11addArgumentEv
   fun:done
   fun:opt<char[9], llvm::cl::OptionHidden, llvm::cl::initializer<int>, llvm::cl::desc>
   fun:UnknownInlinedFun
   fun:_GLOBAL__sub_I_HexagonSplitDouble.cpp
   fun:call_init
   fun:call_init
   fun:_dl_init
   fun:_dl_catch_exception
   fun:dl_open_worker
   fun:_dl_catch_exception
   fun:_dl_open
   fun:dlopen_doit
   fun:_dl_catch_exception
}
{
   <insert_a_suppression_name_here>
   Memcheck:Leak
   match-leak-kinds: reachable
   fun:_Znwm
   fun:UnknownInlinedFun
   fun:UnknownInlinedFun
   fun:allocateWithKey<llvm::MallocAllocator>
   fun:Create<llvm::MallocAllocator, llvm::cl::Option *>
   fun:try_emplace<llvm::cl::Option *>
   fun:insert
   fun:_ZN12_GLOBAL__N_117CommandLineParser9addOptionEPN4llvm2cl6OptionEPNS2_10SubCommandE
   fun:_ZN4llvm2cl6Option11addArgumentEv
   fun:done
   fun:opt<char[9], llvm::cl::initializer<bool>, llvm::cl::desc, llvm::cl::OptionHidden>
   fun:UnknownInlinedFun
   fun:_GLOBAL__sub_I_MipsTargetMachine.cpp
   fun:call_init
   fun:call_init
   fun:_dl_init
   fun:_dl_catch_exception
   fun:dl_open_worker
   fun:_dl_catch_exception
   fun:_dl_open
   fun:dlopen_doit
   fun:_dl_catch_exception
}
{
   <insert_a_suppression_name_here>
   Memcheck:Leak
   match-leak-kinds: reachable
   fun:_Znwm
   fun:UnknownInlinedFun
   fun:UnknownInlinedFun
   fun:allocateWithKey<llvm::MallocAllocator>
   fun:Create<llvm::MallocAllocator>
   fun:try_emplace<>
   fun:operator[]
   fun:_ZN4llvm12PassRegistry12registerPassERKNS_8PassInfoEb
   fun:_ZL31initializeLiveVariablesPassOnceRN4llvm12PassRegistryE.llvm.8590943752114597775
   fun:__pthread_once_slow
   fun:UnknownInlinedFun
   fun:UnknownInlinedFun
   fun:UnknownInlinedFun
   fun:UnknownInlinedFun
   fun:_ZL41initializeSIOptimizeVGPRLiveRangePassOnceRN4llvm12PassRegistryE.llvm.12648731925384659939
   fun:__pthread_once_slow
   fun:UnknownInlinedFun
   fun:UnknownInlinedFun
   fun:UnknownInlinedFun
   fun:UnknownInlinedFun
   fun:LLVMInitializeAMDGPUTarget
   fun:ac_init_llvm_target
   fun:__pthread_once_slow
   fun:si_init_compiler
   fun:radeonsi_screen_create_impl
   fun:amdgpu_winsys_create
}
{
   <insert_a_suppression_name_here>
   Memcheck:Leak
   match-leak-kinds: reachable
   fun:_Znwm
   fun:UnknownInlinedFun
   fun:UnknownInlinedFun
   fun:allocateWithKey<llvm::MallocAllocator>
   fun:Create<llvm::MallocAllocator>
   fun:try_emplace<>
   fun:operator[]
   fun:_ZN4llvm12PassRegistry12registerPassERKNS_8PassInfoEb
   fun:_ZL36initializeBasicAAWrapperPassPassOnceRN4llvm12PassRegistryE.llvm.5069525913726080020
   fun:__pthread_once_slow
   fun:UnknownInlinedFun
   fun:UnknownInlinedFun
   fun:UnknownInlinedFun
   fun:UnknownInlinedFun
   fun:_ZL38initializeAAResultsWrapperPassPassOnceRN4llvm12PassRegistryE.llvm.3986720190912680915
   fun:__pthread_once_slow
   fun:UnknownInlinedFun
   fun:UnknownInlinedFun
   fun:UnknownInlinedFun
   fun:UnknownInlinedFun
   fun:_ZL38initializeSILoadStoreOptimizerPassOnceRN4llvm12PassRegistryE.llvm.375695131650757695
   fun:__pthread_once_slow
   fun:UnknownInlinedFun
   fun:UnknownInlinedFun
   fun:UnknownInlinedFun
   fun:UnknownInlinedFun
   fun:LLVMInitializeAMDGPUTarget
   fun:ac_init_llvm_target
   fun:__pthread_once_slow
   fun:si_init_compiler
}
{
   <insert_a_suppression_name_here>
   Memcheck:Leak
   match-leak-kinds: reachable
   fun:_Znwm
   fun:UnknownInlinedFun
   fun:UnknownInlinedFun
   fun:allocateWithKey<llvm::MallocAllocator>
   fun:Create<llvm::MallocAllocator, llvm::cl::Option *>
   fun:try_emplace<llvm::cl::Option *>
   fun:insert
   fun:_ZN12_GLOBAL__N_117CommandLineParser9addOptionEPN4llvm2cl6OptionEPNS2_10SubCommandE
   fun:_ZN4llvm2cl6Option11addArgumentEv
   fun:UnknownInlinedFun
   fun:UnknownInlinedFun
   fun:_ZN12_GLOBAL__N_110CreateSeed4callEv.llvm.9150017783206930549
   fun:UnknownInlinedFun
   fun:UnknownInlinedFun
   fun:UnknownInlinedFun
   fun:_ZL17initCommonOptionsv
   fun:_ZN4llvm2cl23ParseCommandLineOptionsEiPKPKcNS_9StringRefEPNS_11raw_ostreamES2_b
   fun:LLVMParseCommandLineOptions
   fun:ac_init_llvm_target
   fun:__pthread_once_slow
   fun:si_init_compiler
   fun:radeonsi_screen_create_impl
   fun:amdgpu_winsys_create
}
{
   <insert_a_suppression_name_here>
   Memcheck:Leak
   match-leak-kinds: reachable
   fun:_Znwm
   fun:UnknownInlinedFun
   fun:UnknownInlinedFun
   fun:allocateWithKey<llvm::MallocAllocator>
   fun:Create<llvm::MallocAllocator>
   fun:try_emplace<>
   fun:operator[]
   fun:_ZN4llvm12PassRegistry12registerPassERKNS_8PassInfoEb
   fun:_ZL33initializeLiveRangeShrinkPassOnceRN4llvm12PassRegistryE.llvm.14894664907954117013
   fun:__pthread_once_slow
   fun:UnknownInlinedFun
   fun:UnknownInlinedFun
   fun:UnknownInlinedFun
   fun:UnknownInlinedFun
   fun:_ZN4llvm17initializeCodeGenERNS_12PassRegistryE
   fun:_ZN4llvm16TargetPassConfigC1ERNS_17LLVMTargetMachineERNS_6legacy15PassManagerBaseE
   fun:AMDGPUPassConfig
   fun:GCNPassConfig
   fun:_ZN4llvm16GCNTargetMachine16createPassConfigERNS_6legacy15PassManagerBaseE
   fun:addPassesToGenerateCode
   fun:_ZN4llvm17LLVMTargetMachine19addPassesToEmitFileERNS_6legacy15PassManagerBaseERNS_17raw_pwrite_streamEPS4_NS_15CodeGenFileTypeEbPNS_28MachineModuleInfoWrapperPassE
   fun:ac_create_llvm_passes
   fun:si_init_compiler
   fun:radeonsi_screen_create_impl
   fun:amdgpu_winsys_create
}
{
   <insert_a_suppression_name_here>
   Memcheck:Leak
   match-leak-kinds: reachable
   fun:_Znwm
   fun:UnknownInlinedFun
   fun:UnknownInlinedFun
   fun:allocateWithKey<llvm::MallocAllocator>
   fun:Create<llvm::MallocAllocator>
   fun:try_emplace<>
   fun:operator[]
   fun:_ZN4llvm12PassRegistry12registerPassERKNS_8PassInfoEb
   fun:_ZL30initializeOptimizePHIsPassOnceRN4llvm12PassRegistryE.llvm.2143773493176305077
   fun:__pthread_once_slow
   fun:UnknownInlinedFun
   fun:UnknownInlinedFun
   fun:UnknownInlinedFun
   fun:UnknownInlinedFun
   fun:_ZN4llvm17initializeCodeGenERNS_12PassRegistryE
   fun:_ZN4llvm16TargetPassConfigC1ERNS_17LLVMTargetMachineERNS_6legacy15PassManagerBaseE
   fun:AMDGPUPassConfig
   fun:GCNPassConfig
   fun:_ZN4llvm16GCNTargetMachine16createPassConfigERNS_6legacy15PassManagerBaseE
   fun:addPassesToGenerateCode
   fun:_ZN4llvm17LLVMTargetMachine19addPassesToEmitFileERNS_6legacy15PassManagerBaseERNS_17raw_pwrite_streamEPS4_NS_15CodeGenFileTypeEbPNS_28MachineModuleInfoWrapperPassE
   fun:ac_create_llvm_passes
   fun:si_init_compiler
   fun:radeonsi_screen_create_impl
   fun:amdgpu_winsys_create
}
{
   <insert_a_suppression_name_here>
   Memcheck:Leak
   match-leak-kinds: reachable
   fun:_Znwm
   fun:UnknownInlinedFun
   fun:UnknownInlinedFun
   fun:allocateWithKey<llvm::MallocAllocator>
   fun:Create<llvm::MallocAllocator>
   fun:try_emplace<>
   fun:operator[]
   fun:_ZN4llvm12PassRegistry12registerPassERKNS_8PassInfoEb
   fun:_ZL36initializeIVUsersWrapperPassPassOnceRN4llvm12PassRegistryE.llvm.13694195121630121843
   fun:__pthread_once_slow
   fun:UnknownInlinedFun
   fun:UnknownInlinedFun
   fun:UnknownInlinedFun
   fun:UnknownInlinedFun
   fun:_ZL36initializeLoopStrengthReducePassOnceRN4llvm12PassRegistryE.llvm.4850396139564495129
   fun:__pthread_once_slow
   fun:UnknownInlinedFun
   fun:UnknownInlinedFun
   fun:UnknownInlinedFun
   fun:initializeLoopStrengthReducePass
   fun:LoopStrengthReduce
   fun:_ZN4llvm28createLoopStrengthReducePassEv
   fun:_ZN4llvm16TargetPassConfig11addIRPassesEv
   fun:_ZN4llvm16AMDGPUPassConfig11addIRPassesEv
   fun:_ZN4llvm16TargetPassConfig13addISelPassesEv
   fun:addPassesToGenerateCode
   fun:_ZN4llvm17LLVMTargetMachine19addPassesToEmitFileERNS_6legacy15PassManagerBaseERNS_17raw_pwrite_streamEPS4_NS_15CodeGenFileTypeEbPNS_28MachineModuleInfoWrapperPassE
   fun:ac_create_llvm_passes
}
{
   <insert_a_suppression_name_here>
   Memcheck:Leak
   match-leak-kinds: reachable
   fun:_Znwm
   fun:UnknownInlinedFun
   fun:UnknownInlinedFun
   fun:allocateWithKey<llvm::MallocAllocator>
   fun:Create<llvm::MallocAllocator>
   fun:try_emplace<>
   fun:operator[]
   fun:_ZN4llvm12PassRegistry12registerPassERKNS_8PassInfoEb
   fun:_ZL41initializeExpandVectorPredicationPassOnceRN4llvm12PassRegistryE.llvm.8502785687522294653
   fun:__pthread_once_slow
   fun:UnknownInlinedFun
   fun:UnknownInlinedFun
   fun:UnknownInlinedFun
   fun:initializeExpandVectorPredicationPass
   fun:ExpandVectorPredication
   fun:_ZN4llvm33createExpandVectorPredicationPassEv
   fun:_ZN4llvm16TargetPassConfig11addIRPassesEv
   fun:_ZN4llvm16AMDGPUPassConfig11addIRPassesEv
   fun:_ZN4llvm16TargetPassConfig13addISelPassesEv
   fun:addPassesToGenerateCode
   fun:_ZN4llvm17LLVMTargetMachine19addPassesToEmitFileERNS_6legacy15PassManagerBaseERNS_17raw_pwrite_streamEPS4_NS_15CodeGenFileTypeEbPNS_28MachineModuleInfoWrapperPassE
   fun:ac_create_llvm_passes
   fun:si_init_compiler
   fun:radeonsi_screen_create_impl
}
{
   <insert_a_suppression_name_here>
   Memcheck:Leak
   match-leak-kinds: reachable
   fun:_Znwm
   fun:UnknownInlinedFun
   fun:UnknownInlinedFun
   fun:allocateWithKey<llvm::MallocAllocator>
   fun:Create<llvm::MallocAllocator>
   fun:try_emplace<>
   fun:operator[]
   fun:_ZN4llvm12PassRegistry12registerPassERKNS_8PassInfoEb
   fun:_ZL44initializeTLSVariableHoistLegacyPassPassOnceRN4llvm12PassRegistryE.llvm.1092593573963927468
   fun:__pthread_once_slow
   fun:UnknownInlinedFun
   fun:UnknownInlinedFun
   fun:UnknownInlinedFun
   fun:initializeTLSVariableHoistLegacyPassPass
   fun:TLSVariableHoistLegacyPass
   fun:_ZN4llvm26createTLSVariableHoistPassEv
   fun:_ZN4llvm16TargetPassConfig11addIRPassesEv
   fun:_ZN4llvm16AMDGPUPassConfig11addIRPassesEv
   fun:_ZN4llvm16TargetPassConfig13addISelPassesEv
   fun:addPassesToGenerateCode
   fun:_ZN4llvm17LLVMTargetMachine19addPassesToEmitFileERNS_6legacy15PassManagerBaseERNS_17raw_pwrite_streamEPS4_NS_15CodeGenFileTypeEbPNS_28MachineModuleInfoWrapperPassE
   fun:ac_create_llvm_passes
   fun:si_init_compiler
   fun:radeonsi_screen_create_impl
}
{
   <insert_a_suppression_name_here>
   Memcheck:Leak
   match-leak-kinds: reachable
   fun:_Znwm
   fun:UnknownInlinedFun
   fun:UnknownInlinedFun
   fun:allocateWithKey<llvm::MallocAllocator>
   fun:Create<llvm::MallocAllocator, llvm::cl::Option *>
   fun:try_emplace<llvm::cl::Option *>
   fun:insert
   fun:_ZN12_GLOBAL__N_117CommandLineParser9addOptionEPN4llvm2cl6OptionEPNS2_10SubCommandE
   fun:_ZN4llvm2cl6Option11addArgumentEv
   fun:done
   fun:opt<char[10], llvm::cl::OptionHidden, llvm::cl::desc>
   fun:UnknownInlinedFun
   fun:_GLOBAL__sub_I_TargetPassConfig.cpp
   fun:call_init
   fun:call_init
   fun:_dl_init
   fun:_dl_catch_exception
   fun:dl_open_worker
   fun:_dl_catch_exception
   fun:_dl_open
   fun:dlopen_doit
   fun:_dl_catch_exception
}
{
   <insert_a_suppression_name_here>
   Memcheck:Leak
   match-leak-kinds: reachable
   fun:_Znwm
   fun:UnknownInlinedFun
   fun:UnknownInlinedFun
   fun:allocateWithKey<llvm::MallocAllocator>
   fun:Create<llvm::MallocAllocator, llvm::cl::Option *>
   fun:try_emplace<llvm::cl::Option *>
   fun:insert
   fun:_ZN12_GLOBAL__N_117CommandLineParser9addOptionEPN4llvm2cl6OptionEPNS2_10SubCommandE
   fun:_ZN4llvm2cl6Option11addArgumentEv
   fun:UnknownInlinedFun
   fun:_GLOBAL__sub_I_ControlHeightReduction.cpp
   fun:call_init
   fun:call_init
   fun:_dl_init
   fun:_dl_catch_exception
   fun:dl_open_worker
   fun:_dl_catch_exception
   fun:_dl_open
   fun:dlopen_doit
   fun:_dl_catch_exception
}
{
   <insert_a_suppression_name_here>
   Memcheck:Leak
   match-leak-kinds: reachable
   fun:_Znwm
   fun:UnknownInlinedFun
   fun:UnknownInlinedFun
   fun:allocateWithKey<llvm::MallocAllocator>
   fun:Create<llvm::MallocAllocator, llvm::cl::Option *>
   fun:try_emplace<llvm::cl::Option *>
   fun:insert
   fun:_ZN12_GLOBAL__N_117CommandLineParser9addOptionEPN4llvm2cl6OptionEPNS2_10SubCommandE
   fun:_ZN4llvm2cl6Option11addArgumentEv
   fun:UnknownInlinedFun
   fun:_GLOBAL__sub_I_AliasAnalysisEvaluator.cpp
   fun:call_init
   fun:call_init
   fun:_dl_init
   fun:_dl_catch_exception
   fun:dl_open_worker
   fun:_dl_catch_exception
   fun:_dl_open
   fun:dlopen_doit
   fun:_dl_catch_exception
}
{
   <insert_a_suppression_name_here>
   Memcheck:Leak
   match-leak-kinds: reachable
   fun:_Znwm
   fun:UnknownInlinedFun
   fun:UnknownInlinedFun
   fun:allocateWithKey<llvm::MallocAllocator>
   fun:Create<llvm::MallocAllocator, llvm::cl::Option *>
   fun:try_emplace<llvm::cl::Option *>
   fun:insert
   fun:_ZN12_GLOBAL__N_117CommandLineParser9addOptionEPN4llvm2cl6OptionEPNS2_10SubCommandE
   fun:_ZN4llvm2cl6Option11addArgumentEv
   fun:__cxx_global_var_init.13
   fun:_GLOBAL__sub_I_AliasAnalysisEvaluator.cpp
   fun:call_init
   fun:call_init
   fun:_dl_init
   fun:_dl_catch_exception
   fun:dl_open_worker
   fun:_dl_catch_exception
   fun:_dl_open
   fun:dlopen_doit
   fun:_dl_catch_exception
}
{
   <insert_a_suppression_name_here>
   Memcheck:Leak
   match-leak-kinds: reachable
   fun:_Znwm
   fun:UnknownInlinedFun
   fun:UnknownInlinedFun
   fun:allocateWithKey<llvm::MallocAllocator>
   fun:Create<llvm::MallocAllocator, llvm::cl::Option *>
   fun:try_emplace<llvm::cl::Option *>
   fun:insert
   fun:_ZN12_GLOBAL__N_117CommandLineParser9addOptionEPN4llvm2cl6OptionEPNS2_10SubCommandE
   fun:_ZN4llvm2cl6Option11addArgumentEv
   fun:UnknownInlinedFun
   fun:_GLOBAL__sub_I_BlockFrequencyInfo.cpp
   fun:call_init
   fun:call_init
   fun:_dl_init
   fun:_dl_catch_exception
   fun:dl_open_worker
   fun:_dl_catch_exception
   fun:_dl_open
   fun:dlopen_doit
   fun:_dl_catch_exception
}
{
   <insert_a_suppression_name_here>
   Memcheck:Leak
   match-leak-kinds: reachable
   fun:_Znwm
   fun:UnknownInlinedFun
   fun:UnknownInlinedFun
   fun:allocateWithKey<llvm::MallocAllocator>
   fun:Create<llvm::MallocAllocator, llvm::cl::Option *>
   fun:try_emplace<llvm::cl::Option *>
   fun:insert
   fun:_ZN12_GLOBAL__N_117CommandLineParser9addOptionEPN4llvm2cl6OptionEPNS2_10SubCommandE
   fun:_ZN4llvm2cl6Option11addArgumentEv
   fun:UnknownInlinedFun
   fun:_GLOBAL__sub_I_BranchProbabilityInfo.cpp
   fun:call_init
   fun:call_init
   fun:_dl_init
   fun:_dl_catch_exception
   fun:dl_open_worker
   fun:_dl_catch_exception
   fun:_dl_open
   fun:dlopen_doit
   fun:_dl_catch_exception
}
{
   <insert_a_suppression_name_here>
   Memcheck:Leak
   match-leak-kinds: reachable
   fun:_Znwm
   fun:UnknownInlinedFun
   fun:UnknownInlinedFun
   fun:allocateWithKey<llvm::MallocAllocator>
   fun:Create<llvm::MallocAllocator, llvm::cl::Option *>
   fun:try_emplace<llvm::cl::Option *>
   fun:insert
   fun:_ZN12_GLOBAL__N_117CommandLineParser9addOptionEPN4llvm2cl6OptionEPNS2_10SubCommandE
   fun:_ZN4llvm2cl6Option11addArgumentEv
   fun:done
   fun:opt<char[10], llvm::cl::desc, llvm::cl::initializer<llvm::TargetTransformInfo::TargetCostKind>, llvm::cl::ValuesClass>
   fun:UnknownInlinedFun
   fun:_GLOBAL__sub_I_CostModel.cpp
   fun:call_init
   fun:call_init
   fun:_dl_init
   fun:_dl_catch_exception
   fun:dl_open_worker
   fun:_dl_catch_exception
   fun:_dl_open
   fun:dlopen_doit
   fun:_dl_catch_exception
}
{
   <insert_a_suppression_name_here>
   Memcheck:Leak
   match-leak-kinds: reachable
   fun:_Znwm
   fun:UnknownInlinedFun
   fun:UnknownInlinedFun
   fun:allocateWithKey<llvm::MallocAllocator>
   fun:Create<llvm::MallocAllocator, llvm::cl::Option *>
   fun:try_emplace<llvm::cl::Option *>
   fun:insert
   fun:_ZN12_GLOBAL__N_117CommandLineParser9addOptionEPN4llvm2cl6OptionEPNS2_10SubCommandE
   fun:_ZN4llvm2cl6Option11addArgumentEv
   fun:done
   fun:opt<char[10], llvm::cl::initializer<int>, llvm::cl::OptionHidden, llvm::cl::desc>
   fun:UnknownInlinedFun
   fun:_GLOBAL__sub_I_HexagonEarlyIfConv.cpp
   fun:call_init
   fun:call_init
   fun:_dl_init
   fun:_dl_catch_exception
   fun:dl_open_worker
   fun:_dl_catch_exception
   fun:_dl_open
   fun:dlopen_doit
   fun:_dl_catch_exception
}
{
   <insert_a_suppression_name_here>
   Memcheck:Leak
   match-leak-kinds: reachable
   fun:_Znwm
   fun:UnknownInlinedFun
   fun:UnknownInlinedFun
   fun:allocateWithKey<llvm::MallocAllocator>
   fun:Create<llvm::MallocAllocator, llvm::cl::Option *>
   fun:try_emplace<llvm::cl::Option *>
   fun:insert
   fun:_ZN12_GLOBAL__N_117CommandLineParser9addOptionEPN4llvm2cl6OptionEPNS2_10SubCommandE
   fun:_ZN4llvm2cl6Option11addArgumentEv
   fun:done
   fun:opt<char[10], llvm::cl::initializer<int>, llvm::cl::OptionHidden, llvm::cl::desc>
   fun:UnknownInlinedFun
   fun:_GLOBAL__sub_I_HexagonNewValueJump.cpp
   fun:call_init
   fun:call_init
   fun:_dl_init
   fun:_dl_catch_exception
   fun:dl_open_worker
   fun:_dl_catch_exception
   fun:_dl_open
   fun:dlopen_doit
   fun:_dl_catch_exception
}
{
   <insert_a_suppression_name_here>
   Memcheck:Leak
   match-leak-kinds: reachable
   fun:_Znwm
   fun:UnknownInlinedFun
   fun:UnknownInlinedFun
   fun:allocateWithKey<llvm::MallocAllocator>
   fun:Create<llvm::MallocAllocator, llvm::cl::Option *>
   fun:try_emplace<llvm::cl::Option *>
   fun:insert
   fun:_ZN12_GLOBAL__N_117CommandLineParser9addOptionEPN4llvm2cl6OptionEPNS2_10SubCommandE
   fun:_ZN4llvm2cl6Option11addArgumentEv
   fun:done
   fun:opt<char[10], llvm::cl::initializer<unsigned int> >
   fun:UnknownInlinedFun
   fun:_GLOBAL__sub_I_HexagonRDFOpt.cpp
   fun:call_init
   fun:call_init
   fun:_dl_init
   fun:_dl_catch_exception
   fun:dl_open_worker
   fun:_dl_catch_exception
   fun:_dl_open
   fun:dlopen_doit
   fun:_dl_catch_exception
}
{
   <insert_a_suppression_name_here>
   Memcheck:Leak
   match-leak-kinds: reachable
   fun:_Znwm
   fun:UnknownInlinedFun
   fun:UnknownInlinedFun
   fun:allocateWithKey<llvm::MallocAllocator>
   fun:Create<llvm::MallocAllocator, llvm::cl::Option *>
   fun:try_emplace<llvm::cl::Option *>
   fun:insert
   fun:_ZN12_GLOBAL__N_117CommandLineParser9addOptionEPN4llvm2cl6OptionEPNS2_10SubCommandE
   fun:_ZN4llvm2cl6Option11addArgumentEv
   fun:done
   fun:opt<char[10], llvm::cl::desc>
   fun:UnknownInlinedFun
   fun:_GLOBAL__sub_I_HexagonAsmBackend.cpp
   fun:call_init
   fun:call_init
   fun:_dl_init
   fun:_dl_catch_exception
   fun:dl_open_worker
   fun:_dl_catch_exception
   fun:_dl_open
   fun:dlopen_doit
   fun:_dl_catch_exception
}
{
   <insert_a_suppression_name_here>
   Memcheck:Leak
   match-leak-kinds: reachable
   fun:_Znwm
   fun:UnknownInlinedFun
   fun:UnknownInlinedFun
   fun:allocateWithKey<llvm::MallocAllocator>
   fun:Create<llvm::MallocAllocator, llvm::cl::Option *>
   fun:try_emplace<llvm::cl::Option *>
   fun:insert
   fun:_ZN12_GLOBAL__N_117CommandLineParser9addOptionEPN4llvm2cl6OptionEPNS2_10SubCommandE
   fun:_ZN4llvm2cl6Option11addArgumentEv
   fun:done
   fun:opt<char[10], llvm::cl::initializer<bool>, llvm::cl::desc, llvm::cl::OptionHidden>
   fun:UnknownInlinedFun
   fun:_GLOBAL__sub_I_MipsSubtarget.cpp
   fun:call_init
   fun:call_init
   fun:_dl_init
   fun:_dl_catch_exception
   fun:dl_open_worker
   fun:_dl_catch_exception
   fun:_dl_open
   fun:dlopen_doit
   fun:_dl_catch_exception
}
{
   <insert_a_suppression_name_here>
   Memcheck:Leak
   match-leak-kinds: reachable
   fun:_Znwm
   fun:UnknownInlinedFun
   fun:UnknownInlinedFun
   fun:allocateWithKey<llvm::MallocAllocator>
   fun:Create<llvm::MallocAllocator>
   fun:try_emplace<>
   fun:operator[]
   fun:_ZN4llvm12PassRegistry12registerPassERKNS_8PassInfoEb
   fun:_ZL27initializeLegalizerPassOnceRN4llvm12PassRegistryE.llvm.2214406287031227877
   fun:__pthread_once_slow
   fun:UnknownInlinedFun
   fun:UnknownInlinedFun
   fun:UnknownInlinedFun
   fun:UnknownInlinedFun
   fun:_ZN4llvm20initializeGlobalISelERNS_12PassRegistryE
   fun:LLVMInitializeAMDGPUTarget
   fun:ac_init_llvm_target
   fun:__pthread_once_slow
   fun:si_init_compiler
   fun:radeonsi_screen_create_impl
   fun:amdgpu_winsys_create
   fun:radeonsi_screen_create
}
{
   <insert_a_suppression_name_here>
   Memcheck:Leak
   match-leak-kinds: reachable
   fun:_Znwm
   fun:UnknownInlinedFun
   fun:UnknownInlinedFun
   fun:allocateWithKey<llvm::MallocAllocator>
   fun:Create<llvm::MallocAllocator>
   fun:try_emplace<>
   fun:operator[]
   fun:_ZN4llvm12PassRegistry12registerPassERKNS_8PassInfoEb
   fun:_ZL27initializeLocalizerPassOnceRN4llvm12PassRegistryE.llvm.9203481187055558208
   fun:__pthread_once_slow
   fun:UnknownInlinedFun
   fun:UnknownInlinedFun
   fun:UnknownInlinedFun
   fun:UnknownInlinedFun
   fun:_ZN4llvm20initializeGlobalISelERNS_12PassRegistryE
   fun:LLVMInitializeAMDGPUTarget
   fun:ac_init_llvm_target
   fun:__pthread_once_slow
   fun:si_init_compiler
   fun:radeonsi_screen_create_impl
   fun:amdgpu_winsys_create
   fun:radeonsi_screen_create
}
{
   <insert_a_suppression_name_here>
   Memcheck:Leak
   match-leak-kinds: reachable
   fun:_Znwm
   fun:UnknownInlinedFun
   fun:UnknownInlinedFun
   fun:allocateWithKey<llvm::MallocAllocator>
   fun:Create<llvm::MallocAllocator>
   fun:try_emplace<>
   fun:operator[]
   fun:_ZN4llvm12PassRegistry12registerPassERKNS_8PassInfoEb
   fun:_ZL38initializeMemorySSAWrapperPassPassOnceRN4llvm12PassRegistryE.llvm.17480402625963159795
   fun:__pthread_once_slow
   fun:UnknownInlinedFun
   fun:UnknownInlinedFun
   fun:UnknownInlinedFun
   fun:UnknownInlinedFun
   fun:_ZL45initializeAMDGPUAnnotateUniformValuesPassOnceRN4llvm12PassRegistryE.llvm.12641593002997499398
   fun:__pthread_once_slow
   fun:UnknownInlinedFun
   fun:UnknownInlinedFun
   fun:UnknownInlinedFun
   fun:UnknownInlinedFun
   fun:LLVMInitializeAMDGPUTarget
   fun:ac_init_llvm_target
   fun:__pthread_once_slow
   fun:si_init_compiler
   fun:radeonsi_screen_create_impl
   fun:amdgpu_winsys_create
}
{
   <insert_a_suppression_name_here>
   Memcheck:Leak
   match-leak-kinds: reachable
   fun:_Znwm
   fun:UnknownInlinedFun
   fun:UnknownInlinedFun
   fun:allocateWithKey<llvm::MallocAllocator>
   fun:Create<llvm::MallocAllocator>
   fun:try_emplace<>
   fun:operator[]
   fun:_ZN4llvm12PassRegistry12registerPassERKNS_8PassInfoEb
   fun:_ZL37initializeAMDGPUAAWrapperPassPassOnceRN4llvm12PassRegistryE.llvm.5696976503557831995
   fun:__pthread_once_slow
   fun:UnknownInlinedFun
   fun:UnknownInlinedFun
   fun:UnknownInlinedFun
   fun:UnknownInlinedFun
   fun:LLVMInitializeAMDGPUTarget
   fun:ac_init_llvm_target
   fun:__pthread_once_slow
   fun:si_init_compiler
   fun:radeonsi_screen_create_impl
   fun:amdgpu_winsys_create
   fun:radeonsi_screen_create
   fun:pipe_radeonsi_create_screen
}
{
   <insert_a_suppression_name_here>
   Memcheck:Leak
   match-leak-kinds: reachable
   fun:_Znwm
   fun:UnknownInlinedFun
   fun:UnknownInlinedFun
   fun:allocateWithKey<llvm::MallocAllocator>
   fun:Create<llvm::MallocAllocator, llvm::cl::Option *>
   fun:try_emplace<llvm::cl::Option *>
   fun:insert
   fun:_ZN12_GLOBAL__N_117CommandLineParser9addOptionEPN4llvm2cl6OptionEPNS2_10SubCommandE
   fun:_ZN12_GLOBAL__N_117CommandLineParser9addOptionEPN4llvm2cl6OptionEb.llvm.9260085712697943389
   fun:addArgument
   fun:done
   fun:opt<char[10], llvm::cl::desc, llvm::cl::LocationClass<(anonymous namespace)::HelpPrinter>, llvm::cl::OptionHidden, llvm::cl::ValueExpected, llvm::cl::cat, llvm::cl::sub>
   fun:CommandLineCommonOptions
   fun:_ZN4llvm14object_creatorIN12_GLOBAL__N_124CommandLineCommonOptionsEE4callEv
   fun:UnknownInlinedFun
   fun:operator*
   fun:_ZL17initCommonOptionsv
   fun:_ZN4llvm2cl23ParseCommandLineOptionsEiPKPKcNS_9StringRefEPNS_11raw_ostreamES2_b
   fun:LLVMParseCommandLineOptions
   fun:ac_init_llvm_target
   fun:__pthread_once_slow
   fun:si_init_compiler
   fun:radeonsi_screen_create_impl
   fun:amdgpu_winsys_create
}
{
   <insert_a_suppression_name_here>
   Memcheck:Leak
   match-leak-kinds: reachable
   fun:_Znwm
   fun:UnknownInlinedFun
   fun:UnknownInlinedFun
   fun:allocateWithKey<llvm::MallocAllocator>
   fun:Create<llvm::MallocAllocator, llvm::cl::Option *>
   fun:try_emplace<llvm::cl::Option *>
   fun:insert
   fun:_ZN12_GLOBAL__N_117CommandLineParser9addOptionEPN4llvm2cl6OptionEPNS2_10SubCommandE
   fun:_ZN12_GLOBAL__N_117CommandLineParser9addOptionEPN4llvm2cl6OptionEPNS2_10SubCommandE
   fun:_ZN12_GLOBAL__N_117CommandLineParser9addOptionEPN4llvm2cl6OptionEb.llvm.9260085712697943389
   fun:addArgument
   fun:done
   fun:opt<char[10], llvm::cl::desc, llvm::cl::LocationClass<(anonymous namespace)::HelpPrinter>, llvm::cl::OptionHidden, llvm::cl::ValueExpected, llvm::cl::cat, llvm::cl::sub>
   fun:CommandLineCommonOptions
   fun:_ZN4llvm14object_creatorIN12_GLOBAL__N_124CommandLineCommonOptionsEE4callEv
   fun:UnknownInlinedFun
   fun:operator*
   fun:_ZL17initCommonOptionsv
   fun:_ZN4llvm2cl23ParseCommandLineOptionsEiPKPKcNS_9StringRefEPNS_11raw_ostreamES2_b
   fun:LLVMParseCommandLineOptions
   fun:ac_init_llvm_target
   fun:__pthread_once_slow
   fun:si_init_compiler
   fun:radeonsi_screen_create_impl
}
{
   <insert_a_suppression_name_here>
   Memcheck:Leak
   match-leak-kinds: reachable
   fun:_Znwm
   fun:UnknownInlinedFun
   fun:UnknownInlinedFun
   fun:allocateWithKey<llvm::MallocAllocator>
   fun:Create<llvm::MallocAllocator>
   fun:try_emplace<>
   fun:operator[]
   fun:_ZN4llvm12PassRegistry12registerPassERKNS_8PassInfoEb
   fun:_ZL26initializeCFIFixupPassOnceRN4llvm12PassRegistryE.llvm.17187623952879210958
   fun:__pthread_once_slow
   fun:UnknownInlinedFun
   fun:UnknownInlinedFun
   fun:UnknownInlinedFun
   fun:UnknownInlinedFun
   fun:_ZN4llvm17initializeCodeGenERNS_12PassRegistryE
   fun:_ZN4llvm16TargetPassConfigC1ERNS_17LLVMTargetMachineERNS_6legacy15PassManagerBaseE
   fun:AMDGPUPassConfig
   fun:GCNPassConfig
   fun:_ZN4llvm16GCNTargetMachine16createPassConfigERNS_6legacy15PassManagerBaseE
   fun:addPassesToGenerateCode
   fun:_ZN4llvm17LLVMTargetMachine19addPassesToEmitFileERNS_6legacy15PassManagerBaseERNS_17raw_pwrite_streamEPS4_NS_15CodeGenFileTypeEbPNS_28MachineModuleInfoWrapperPassE
   fun:ac_create_llvm_passes
   fun:si_init_compiler
   fun:radeonsi_screen_create_impl
   fun:amdgpu_winsys_create
}
{
   <insert_a_suppression_name_here>
   Memcheck:Leak
   match-leak-kinds: reachable
   fun:_Znwm
   fun:UnknownInlinedFun
   fun:UnknownInlinedFun
   fun:allocateWithKey<llvm::MallocAllocator>
   fun:Create<llvm::MallocAllocator>
   fun:try_emplace<>
   fun:operator[]
   fun:_ZN4llvm12PassRegistry12registerPassERKNS_8PassInfoEb
   fun:_ZL26initializeMIRNamerPassOnceRN4llvm12PassRegistryE.llvm.12367279527564495592
   fun:__pthread_once_slow
   fun:UnknownInlinedFun
   fun:UnknownInlinedFun
   fun:UnknownInlinedFun
   fun:UnknownInlinedFun
   fun:_ZN4llvm17initializeCodeGenERNS_12PassRegistryE
   fun:_ZN4llvm16TargetPassConfigC1ERNS_17LLVMTargetMachineERNS_6legacy15PassManagerBaseE
   fun:AMDGPUPassConfig
   fun:GCNPassConfig
   fun:_ZN4llvm16GCNTargetMachine16createPassConfigERNS_6legacy15PassManagerBaseE
   fun:addPassesToGenerateCode
   fun:_ZN4llvm17LLVMTargetMachine19addPassesToEmitFileERNS_6legacy15PassManagerBaseERNS_17raw_pwrite_streamEPS4_NS_15CodeGenFileTypeEbPNS_28MachineModuleInfoWrapperPassE
   fun:ac_create_llvm_passes
   fun:si_init_compiler
   fun:radeonsi_screen_create_impl
   fun:amdgpu_winsys_create
}
{
   <insert_a_suppression_name_here>
   Memcheck:Leak
   match-leak-kinds: reachable
   fun:_Znwm
   fun:UnknownInlinedFun
   fun:UnknownInlinedFun
   fun:allocateWithKey<llvm::MallocAllocator>
   fun:Create<llvm::MallocAllocator>
   fun:try_emplace<>
   fun:operator[]
   fun:_ZN4llvm12PassRegistry12registerPassERKNS_8PassInfoEb
   fun:_ZL34initializeMachinePipelinerPassOnceRN4llvm12PassRegistryE.llvm.13482440404072779186
   fun:__pthread_once_slow
   fun:UnknownInlinedFun
   fun:UnknownInlinedFun
   fun:UnknownInlinedFun
   fun:UnknownInlinedFun
   fun:_ZN4llvm17initializeCodeGenERNS_12PassRegistryE
   fun:_ZN4llvm16TargetPassConfigC1ERNS_17LLVMTargetMachineERNS_6legacy15PassManagerBaseE
   fun:AMDGPUPassConfig
   fun:GCNPassConfig
   fun:_ZN4llvm16GCNTargetMachine16createPassConfigERNS_6legacy15PassManagerBaseE
   fun:addPassesToGenerateCode
   fun:_ZN4llvm17LLVMTargetMachine19addPassesToEmitFileERNS_6legacy15PassManagerBaseERNS_17raw_pwrite_streamEPS4_NS_15CodeGenFileTypeEbPNS_28MachineModuleInfoWrapperPassE
   fun:ac_create_llvm_passes
   fun:si_init_compiler
   fun:radeonsi_screen_create_impl
   fun:amdgpu_winsys_create
}
{
   <insert_a_suppression_name_here>
   Memcheck:Leak
   match-leak-kinds: reachable
   fun:_Znwm
   fun:UnknownInlinedFun
   fun:UnknownInlinedFun
   fun:allocateWithKey<llvm::MallocAllocator>
   fun:Create<llvm::MallocAllocator>
   fun:try_emplace<>
   fun:operator[]
   fun:_ZN4llvm12PassRegistry12registerPassERKNS_8PassInfoEb
   fun:_ZL36initializeEarlyCSELegacyPassPassOnceRN4llvm12PassRegistryE.llvm.11436956318802978180
   fun:__pthread_once_slow
   fun:_ZN4llvm18createEarlyCSEPassEb
   fun:addEarlyCSEOrGVNPass
   fun:addStraightLineScalarOptimizationPasses
   fun:_ZN4llvm16AMDGPUPassConfig11addIRPassesEv
   fun:_ZN4llvm16TargetPassConfig13addISelPassesEv
   fun:addPassesToGenerateCode
   fun:_ZN4llvm17LLVMTargetMachine19addPassesToEmitFileERNS_6legacy15PassManagerBaseERNS_17raw_pwrite_streamEPS4_NS_15CodeGenFileTypeEbPNS_28MachineModuleInfoWrapperPassE
   fun:ac_create_llvm_passes
   fun:si_init_compiler
   fun:radeonsi_screen_create_impl
   fun:amdgpu_winsys_create
}
{
   <insert_a_suppression_name_here>
   Memcheck:Leak
   match-leak-kinds: possible
   fun:malloc
   fun:strdup
   fun:_mesa_symbol_table_add_symbol
   fun:_ZN17glsl_symbol_table12add_variableEP11ir_variable
   fun:_ZN12_GLOBAL__N_126builtin_variable_generator12add_variableEPKcPK9glsl_typei16ir_variable_modei16glsl_interp_mode
   fun:_ZN12_GLOBAL__N_126builtin_variable_generator9add_constEPKcii.isra.0
   fun:add_const
   fun:_ZN12_GLOBAL__N_126builtin_variable_generator18generate_constantsEv
   fun:_Z31_mesa_glsl_initialize_variablesP9exec_listP22_mesa_glsl_parse_state
   fun:create_new_program
   fun:_mesa_get_fixed_func_fragment_program
   fun:update_program
   fun:_mesa_update_state_locked
   fun:_mesa_update_state
}
{
   <insert_a_suppression_name_here>
   Memcheck:Leak
   match-leak-kinds: reachable
   fun:_Znwm
   fun:UnknownInlinedFun
   fun:UnknownInlinedFun
   fun:allocateWithKey<llvm::MallocAllocator>
   fun:Create<llvm::MallocAllocator, llvm::cl::Option *>
   fun:try_emplace<llvm::cl::Option *>
   fun:insert
   fun:_ZN12_GLOBAL__N_117CommandLineParser9addOptionEPN4llvm2cl6OptionEPNS2_10SubCommandE
   fun:_ZN4llvm2cl6Option11addArgumentEv
   fun:done
   fun:opt<char[11], llvm::cl::OptionHidden, llvm::cl::desc, llvm::cl::ValuesClass>
   fun:UnknownInlinedFun
   fun:_GLOBAL__sub_I_LegacyPassManager.cpp
   fun:call_init
   fun:call_init
   fun:_dl_init
   fun:_dl_catch_exception
   fun:dl_open_worker
   fun:_dl_catch_exception
   fun:_dl_open
   fun:dlopen_doit
   fun:_dl_catch_exception
}
{
   <insert_a_suppression_name_here>
   Memcheck:Leak
   match-leak-kinds: reachable
   fun:_Znwm
   fun:UnknownInlinedFun
   fun:UnknownInlinedFun
   fun:allocateWithKey<llvm::MallocAllocator>
   fun:Create<llvm::MallocAllocator, llvm::cl::Option *>
   fun:try_emplace<llvm::cl::Option *>
   fun:insert
   fun:_ZN12_GLOBAL__N_117CommandLineParser9addOptionEPN4llvm2cl6OptionEPNS2_10SubCommandE
   fun:_ZN4llvm2cl6Option11addArgumentEv
   fun:UnknownInlinedFun
   fun:_GLOBAL__sub_I_TargetPassConfig.cpp
   fun:call_init
   fun:call_init
   fun:_dl_init
   fun:_dl_catch_exception
   fun:dl_open_worker
   fun:_dl_catch_exception
   fun:_dl_open
   fun:dlopen_doit
   fun:_dl_catch_exception
}
{
   <insert_a_suppression_name_here>
   Memcheck:Leak
   match-leak-kinds: reachable
   fun:_Znwm
   fun:UnknownInlinedFun
   fun:UnknownInlinedFun
   fun:allocateWithKey<llvm::MallocAllocator>
   fun:Create<llvm::MallocAllocator, llvm::cl::Option *>
   fun:try_emplace<llvm::cl::Option *>
   fun:insert
   fun:_ZN12_GLOBAL__N_117CommandLineParser9addOptionEPN4llvm2cl6OptionEPNS2_10SubCommandE
   fun:_ZN4llvm2cl6Option11addArgumentEv
   fun:UnknownInlinedFun
   fun:_GLOBAL__sub_I_TargetSchedule.cpp
   fun:call_init
   fun:call_init
   fun:_dl_init
   fun:_dl_catch_exception
   fun:dl_open_worker
   fun:_dl_catch_exception
   fun:_dl_open
   fun:dlopen_doit
   fun:_dl_catch_exception
}
{
   <insert_a_suppression_name_here>
   Memcheck:Leak
   match-leak-kinds: reachable
   fun:_Znwm
   fun:UnknownInlinedFun
   fun:UnknownInlinedFun
   fun:allocateWithKey<llvm::MallocAllocator>
   fun:Create<llvm::MallocAllocator, llvm::cl::Option *>
   fun:try_emplace<llvm::cl::Option *>
   fun:insert
   fun:_ZN12_GLOBAL__N_117CommandLineParser9addOptionEPN4llvm2cl6OptionEPNS2_10SubCommandE
   fun:_ZN4llvm2cl6Option11addArgumentEv
   fun:UnknownInlinedFun
   fun:_GLOBAL__sub_I_SizeOpts.cpp
   fun:call_init
   fun:call_init
   fun:_dl_init
   fun:_dl_catch_exception
   fun:dl_open_worker
   fun:_dl_catch_exception
   fun:_dl_open
   fun:dlopen_doit
   fun:_dl_catch_exception
}
{
   <insert_a_suppression_name_here>
   Memcheck:Leak
   match-leak-kinds: reachable
   fun:_Znwm
   fun:UnknownInlinedFun
   fun:UnknownInlinedFun
   fun:allocateWithKey<llvm::MallocAllocator>
   fun:Create<llvm::MallocAllocator, llvm::cl::Option *>
   fun:try_emplace<llvm::cl::Option *>
   fun:insert
   fun:_ZN12_GLOBAL__N_117CommandLineParser9addOptionEPN4llvm2cl6OptionEPNS2_10SubCommandE
   fun:_ZN4llvm2cl6Option11addArgumentEv
   fun:done
   fun:opt<char[11], llvm::cl::desc, llvm::cl::OptionHidden, llvm::cl::initializer<bool> >
   fun:UnknownInlinedFun
   fun:_GLOBAL__sub_I_AddressSanitizer.cpp
   fun:call_init
   fun:call_init
   fun:_dl_init
   fun:_dl_catch_exception
   fun:dl_open_worker
   fun:_dl_catch_exception
   fun:_dl_open
   fun:dlopen_doit
   fun:_dl_catch_exception
}
{
   <insert_a_suppression_name_here>
   Memcheck:Leak
   match-leak-kinds: reachable
   fun:_Znwm
   fun:UnknownInlinedFun
   fun:UnknownInlinedFun
   fun:allocateWithKey<llvm::MallocAllocator>
   fun:Create<llvm::MallocAllocator, llvm::cl::Option *>
   fun:try_emplace<llvm::cl::Option *>
   fun:insert
   fun:_ZN12_GLOBAL__N_117CommandLineParser9addOptionEPN4llvm2cl6OptionEPNS2_10SubCommandE
   fun:_ZN4llvm2cl6Option11addArgumentEv
   fun:done
   fun:opt<char[11], llvm::cl::desc, llvm::cl::OptionHidden, llvm::cl::initializer<int> >
   fun:__cxx_global_var_init.139
   fun:_GLOBAL__sub_I_AddressSanitizer.cpp
   fun:call_init
   fun:call_init
   fun:_dl_init
   fun:_dl_catch_exception
   fun:dl_open_worker
   fun:_dl_catch_exception
   fun:_dl_open
   fun:dlopen_doit
   fun:_dl_catch_exception
}
{
   <insert_a_suppression_name_here>
   Memcheck:Leak
   match-leak-kinds: reachable
   fun:_Znwm
   fun:UnknownInlinedFun
   fun:UnknownInlinedFun
   fun:allocateWithKey<llvm::MallocAllocator>
   fun:Create<llvm::MallocAllocator, llvm::cl::Option *>
   fun:try_emplace<llvm::cl::Option *>
   fun:insert
   fun:_ZN12_GLOBAL__N_117CommandLineParser9addOptionEPN4llvm2cl6OptionEPNS2_10SubCommandE
   fun:_ZN4llvm2cl6Option11addArgumentEv
   fun:UnknownInlinedFun
   fun:_GLOBAL__sub_I_IndirectCallPromotion.cpp
   fun:call_init
   fun:call_init
   fun:_dl_init
   fun:_dl_catch_exception
   fun:dl_open_worker
   fun:_dl_catch_exception
   fun:_dl_open
   fun:dlopen_doit
   fun:_dl_catch_exception
}
{
   <insert_a_suppression_name_here>
   Memcheck:Leak
   match-leak-kinds: reachable
   fun:_Znwm
   fun:UnknownInlinedFun
   fun:UnknownInlinedFun
   fun:allocateWithKey<llvm::MallocAllocator>
   fun:Create<llvm::MallocAllocator, llvm::cl::Option *>
   fun:try_emplace<llvm::cl::Option *>
   fun:insert
   fun:_ZN12_GLOBAL__N_117CommandLineParser9addOptionEPN4llvm2cl6OptionEPNS2_10SubCommandE
   fun:_ZN4llvm2cl6Option11addArgumentEv
   fun:__cxx_global_var_init.65
   fun:_GLOBAL__sub_I_PGOInstrumentation.cpp
   fun:call_init
   fun:call_init
   fun:_dl_init
   fun:_dl_catch_exception
   fun:dl_open_worker
   fun:_dl_catch_exception
   fun:_dl_open
   fun:dlopen_doit
   fun:_dl_catch_exception
}
{
   <insert_a_suppression_name_here>
   Memcheck:Leak
   match-leak-kinds: reachable
   fun:_Znwm
   fun:UnknownInlinedFun
   fun:UnknownInlinedFun
   fun:allocateWithKey<llvm::MallocAllocator>
   fun:Create<llvm::MallocAllocator, llvm::cl::Option *>
   fun:try_emplace<llvm::cl::Option *>
   fun:insert
   fun:_ZN12_GLOBAL__N_117CommandLineParser9addOptionEPN4llvm2cl6OptionEPNS2_10SubCommandE
   fun:_ZN4llvm2cl6Option11addArgumentEv
   fun:done
   fun:opt<char[11], llvm::cl::initializer<bool>, llvm::cl::OptionHidden>
   fun:UnknownInlinedFun
   fun:_GLOBAL__sub_I_GVN.cpp
   fun:call_init
   fun:call_init
   fun:_dl_init
   fun:_dl_catch_exception
   fun:dl_open_worker
   fun:_dl_catch_exception
   fun:_dl_open
   fun:dlopen_doit
   fun:_dl_catch_exception
}
{
   <insert_a_suppression_name_here>
   Memcheck:Leak
   match-leak-kinds: reachable
   fun:_Znwm
   fun:UnknownInlinedFun
   fun:UnknownInlinedFun
   fun:allocateWithKey<llvm::MallocAllocator>
   fun:Create<llvm::MallocAllocator, llvm::cl::Option *>
   fun:try_emplace<llvm::cl::Option *>
   fun:insert
   fun:_ZN12_GLOBAL__N_117CommandLineParser9addOptionEPN4llvm2cl6OptionEPNS2_10SubCommandE
   fun:_ZN4llvm2cl6Option11addArgumentEv
   fun:UnknownInlinedFun
   fun:_GLOBAL__sub_I_SimplifyCFGPass.cpp
   fun:call_init
   fun:call_init
   fun:_dl_init
   fun:_dl_catch_exception
   fun:dl_open_worker
   fun:_dl_catch_exception
   fun:_dl_open
   fun:dlopen_doit
   fun:_dl_catch_exception
}
{
   <insert_a_suppression_name_here>
   Memcheck:Leak
   match-leak-kinds: reachable
   fun:_Znwm
   fun:UnknownInlinedFun
   fun:UnknownInlinedFun
   fun:allocateWithKey<llvm::MallocAllocator>
   fun:Create<llvm::MallocAllocator, llvm::cl::Option *>
   fun:try_emplace<llvm::cl::Option *>
   fun:insert
   fun:_ZN12_GLOBAL__N_117CommandLineParser9addOptionEPN4llvm2cl6OptionEPNS2_10SubCommandE
   fun:_ZN4llvm2cl6Option11addArgumentEv
   fun:UnknownInlinedFun
   fun:_GLOBAL__sub_I_GlobalDCE.cpp
   fun:call_init
   fun:call_init
   fun:_dl_init
   fun:_dl_catch_exception
   fun:dl_open_worker
   fun:_dl_catch_exception
   fun:_dl_open
   fun:dlopen_doit
   fun:_dl_catch_exception
}
{
   <insert_a_suppression_name_here>
   Memcheck:Leak
   match-leak-kinds: reachable
   fun:_Znwm
   fun:UnknownInlinedFun
   fun:UnknownInlinedFun
   fun:allocateWithKey<llvm::MallocAllocator>
   fun:Create<llvm::MallocAllocator, llvm::cl::Option *>
   fun:try_emplace<llvm::cl::Option *>
   fun:insert
   fun:_ZN12_GLOBAL__N_117CommandLineParser9addOptionEPN4llvm2cl6OptionEPNS2_10SubCommandE
   fun:_ZN4llvm2cl6Option11addArgumentEv
   fun:done
   fun:opt<char[11], llvm::cl::initializer<llvm::CFLAAType>, llvm::cl::OptionHidden, llvm::cl::desc, llvm::cl::ValuesClass>
   fun:UnknownInlinedFun
   fun:_GLOBAL__sub_I_PassManagerBuilder.cpp
   fun:call_init
   fun:call_init
   fun:_dl_init
   fun:_dl_catch_exception
   fun:dl_open_worker
   fun:_dl_catch_exception
   fun:_dl_open
   fun:dlopen_doit
   fun:_dl_catch_exception
}
{
   <insert_a_suppression_name_here>
   Memcheck:Leak
   match-leak-kinds: reachable
   fun:_Znwm
   fun:UnknownInlinedFun
   fun:UnknownInlinedFun
   fun:allocateWithKey<llvm::MallocAllocator>
   fun:Create<llvm::MallocAllocator, llvm::cl::Option *>
   fun:try_emplace<llvm::cl::Option *>
   fun:insert
   fun:_ZN12_GLOBAL__N_117CommandLineParser9addOptionEPN4llvm2cl6OptionEPNS2_10SubCommandE
   fun:_ZN4llvm2cl6Option11addArgumentEv
   fun:UnknownInlinedFun
   fun:_GLOBAL__sub_I_PassManagerBuilder.cpp
   fun:call_init
   fun:call_init
   fun:_dl_init
   fun:_dl_catch_exception
   fun:dl_open_worker
   fun:_dl_catch_exception
   fun:_dl_open
   fun:dlopen_doit
   fun:_dl_catch_exception
}
{
   <insert_a_suppression_name_here>
   Memcheck:Leak
   match-leak-kinds: reachable
   fun:_Znwm
   fun:UnknownInlinedFun
   fun:UnknownInlinedFun
   fun:allocateWithKey<llvm::MallocAllocator>
   fun:Create<llvm::MallocAllocator, llvm::cl::Option *>
   fun:try_emplace<llvm::cl::Option *>
   fun:insert
   fun:_ZN12_GLOBAL__N_117CommandLineParser9addOptionEPN4llvm2cl6OptionEPNS2_10SubCommandE
   fun:_ZN4llvm2cl6Option11addArgumentEv
   fun:UnknownInlinedFun
   fun:_GLOBAL__sub_I_SLPVectorizer.cpp
   fun:call_init
   fun:call_init
   fun:_dl_init
   fun:_dl_catch_exception
   fun:dl_open_worker
   fun:_dl_catch_exception
   fun:_dl_open
   fun:dlopen_doit
   fun:_dl_catch_exception
}
{
   <insert_a_suppression_name_here>
   Memcheck:Leak
   match-leak-kinds: reachable
   fun:_Znwm
   fun:UnknownInlinedFun
   fun:UnknownInlinedFun
   fun:allocateWithKey<llvm::MallocAllocator>
   fun:Create<llvm::MallocAllocator, llvm::cl::Option *>
   fun:try_emplace<llvm::cl::Option *>
   fun:insert
   fun:_ZN12_GLOBAL__N_117CommandLineParser9addOptionEPN4llvm2cl6OptionEPNS2_10SubCommandE
   fun:_ZN4llvm2cl6Option11addArgumentEv
   fun:done
   fun:opt<char[11], llvm::cl::OptionHidden>
   fun:UnknownInlinedFun
   fun:_GLOBAL__sub_I_AliasAnalysisEvaluator.cpp
   fun:call_init
   fun:call_init
   fun:_dl_init
   fun:_dl_catch_exception
   fun:dl_open_worker
   fun:_dl_catch_exception
   fun:_dl_open
   fun:dlopen_doit
   fun:_dl_catch_exception
}
{
   <insert_a_suppression_name_here>
   Memcheck:Leak
   match-leak-kinds: reachable
   fun:_Znwm
   fun:UnknownInlinedFun
   fun:UnknownInlinedFun
   fun:UnknownInlinedFun
   fun:UnknownInlinedFun
   fun:UnknownInlinedFun
   fun:pair<const std::__cxx11::basic_string<char, std::char_traits<char>, std::allocator<char> > &, 0UL>
   fun:pair<const std::__cxx11::basic_string<char, std::char_traits<char>, std::allocator<char> > &>
   fun:construct<std::pair<const std::__cxx11::basic_string<char, std::char_traits<char>, std::allocator<char> >, unsigned int>, const std::piecewise_construct_t &, std::tuple<const std::__cxx11::basic_string<char, std::char_traits<char>, std::allocator<char> > &>, std::tuple<> >
   fun:construct<std::pair<const std::__cxx11::basic_string<char, std::char_traits<char>, std::allocator<char> >, unsigned int>, const std::piecewise_construct_t &, std::tuple<const std::__cxx11::basic_string<char, std::char_traits<char>, std::allocator<char> > &>, std::tuple<> >
   fun:_M_construct_node<const std::piecewise_construct_t &, std::tuple<const std::__cxx11::basic_string<char, std::char_traits<char>, std::allocator<char> > &>, std::tuple<> >
   fun:_M_create_node<const std::piecewise_construct_t &, std::tuple<const std::__cxx11::basic_string<char, std::char_traits<char>, std::allocator<char> > &>, std::tuple<> >
   fun:_Auto_node<const std::piecewise_construct_t &, std::tuple<const std::__cxx11::basic_string<char, std::char_traits<char>, std::allocator<char> > &>, std::tuple<> >
   fun:_ZNSt8_Rb_treeINSt7__cxx1112basic_stringIcSt11char_traitsIcESaIcEEESt4pairIKS5_jESt10_Select1stIS8_ESt4lessIS5_ESaIS8_EE22_M_emplace_hint_uniqueIJRKSt21piecewise_construct_tSt5tupleIJRS7_EESJ_IJEEEEESt17_Rb_tree_iteratorIS8_ESt23_Rb_tree_const_iteratorIS8_EDpOT_
   fun:_ZNSt3mapINSt7__cxx1112basic_stringIcSt11char_traitsIcESaIcEEEjSt4lessIS5_ESaISt4pairIKS5_jEEEixERS9_
   fun:_ZN4llvm12UniqueVectorINSt7__cxx1112basic_stringIcSt11char_traitsIcESaIcEEEE6insertERKS6_
   fun:_ZN4llvm12DebugCounter10addCounterERKNSt7__cxx1112basic_stringIcSt11char_traitsIcESaIcEEES8_
   fun:_ZN4llvm12DebugCounter15registerCounterENS_9StringRefES1_
   fun:UnknownInlinedFun
   fun:_GLOBAL__sub_I_SIInsertWaitcnts.cpp
   fun:call_init
   fun:call_init
   fun:_dl_init
   fun:_dl_catch_exception
   fun:dl_open_worker
   fun:_dl_catch_exception
}
{
   <insert_a_suppression_name_here>
   Memcheck:Leak
   match-leak-kinds: reachable
   fun:_Znwm
   fun:UnknownInlinedFun
   fun:UnknownInlinedFun
   fun:UnknownInlinedFun
   fun:UnknownInlinedFun
   fun:UnknownInlinedFun
   fun:construct<std::__cxx11::basic_string<char, std::char_traits<char>, std::allocator<char> >, const std::__cxx11::basic_string<char, std::char_traits<char>, std::allocator<char> > &>
   fun:construct<std::__cxx11::basic_string<char, std::char_traits<char>, std::allocator<char> >, const std::__cxx11::basic_string<char, std::char_traits<char>, std::allocator<char> > &>
   fun:push_back
   fun:_ZN4llvm12UniqueVectorINSt7__cxx1112basic_stringIcSt11char_traitsIcESaIcEEEE6insertERKS6_
   fun:_ZN4llvm12DebugCounter10addCounterERKNSt7__cxx1112basic_stringIcSt11char_traitsIcESaIcEEES8_
   fun:_ZN4llvm12DebugCounter15registerCounterENS_9StringRefES1_
   fun:UnknownInlinedFun
   fun:_GLOBAL__sub_I_SIInsertWaitcnts.cpp
   fun:call_init
   fun:call_init
   fun:_dl_init
   fun:_dl_catch_exception
   fun:dl_open_worker
   fun:_dl_catch_exception
   fun:_dl_open
   fun:dlopen_doit
}
{
   <insert_a_suppression_name_here>
   Memcheck:Leak
   match-leak-kinds: reachable
   fun:_Znwm
   fun:UnknownInlinedFun
   fun:UnknownInlinedFun
   fun:allocateWithKey<llvm::MallocAllocator>
   fun:Create<llvm::MallocAllocator, llvm::cl::Option *>
   fun:try_emplace<llvm::cl::Option *>
   fun:insert
   fun:_ZN12_GLOBAL__N_117CommandLineParser9addOptionEPN4llvm2cl6OptionEPNS2_10SubCommandE
   fun:_ZN4llvm2cl6Option11addArgumentEv
   fun:done
   fun:opt<char[11], llvm::cl::OptionHidden, llvm::cl::desc>
   fun:UnknownInlinedFun
   fun:_GLOBAL__sub_I_HexagonISelLowering.cpp
   fun:call_init
   fun:call_init
   fun:_dl_init
   fun:_dl_catch_exception
   fun:dl_open_worker
   fun:_dl_catch_exception
   fun:_dl_open
   fun:dlopen_doit
   fun:_dl_catch_exception
}
{
   <insert_a_suppression_name_here>
   Memcheck:Leak
   match-leak-kinds: reachable
   fun:_Znwm
   fun:UnknownInlinedFun
   fun:UnknownInlinedFun
   fun:allocateWithKey<llvm::MallocAllocator>
   fun:Create<llvm::MallocAllocator, llvm::cl::Option *>
   fun:try_emplace<llvm::cl::Option *>
   fun:insert
   fun:_ZN12_GLOBAL__N_117CommandLineParser9addOptionEPN4llvm2cl6OptionEPNS2_10SubCommandE
   fun:_ZN4llvm2cl6Option11addArgumentEv
   fun:done
   fun:opt<char[11], llvm::cl::desc, llvm::cl::initializer<bool>, llvm::cl::OptionHidden>
   fun:UnknownInlinedFun
   fun:_GLOBAL__sub_I_X86SpeculativeLoadHardening.cpp
   fun:call_init
   fun:call_init
   fun:_dl_init
   fun:_dl_catch_exception
   fun:dl_open_worker
   fun:_dl_catch_exception
   fun:_dl_open
   fun:dlopen_doit
   fun:_dl_catch_exception
}
{
   <insert_a_suppression_name_here>
   Memcheck:Leak
   match-leak-kinds: reachable
   fun:_Znwm
   fun:UnknownInlinedFun
   fun:UnknownInlinedFun
   fun:allocateWithKey<llvm::MallocAllocator>
   fun:Create<llvm::MallocAllocator>
   fun:try_emplace<>
   fun:operator[]
   fun:_ZN4llvm12PassRegistry12registerPassERKNS_8PassInfoEb
   fun:_ZL37initializeR600VectorRegMergerPassOnceRN4llvm12PassRegistryE.llvm.3660356500875528680
   fun:__pthread_once_slow
   fun:UnknownInlinedFun
   fun:UnknownInlinedFun
   fun:UnknownInlinedFun
   fun:UnknownInlinedFun
   fun:LLVMInitializeAMDGPUTarget
   fun:ac_init_llvm_target
   fun:__pthread_once_slow
   fun:si_init_compiler
   fun:radeonsi_screen_create_impl
   fun:amdgpu_winsys_create
   fun:radeonsi_screen_create
   fun:pipe_radeonsi_create_screen
}
{
   <insert_a_suppression_name_here>
   Memcheck:Leak
   match-leak-kinds: reachable
   fun:_Znwm
   fun:UnknownInlinedFun
   fun:UnknownInlinedFun
   fun:allocateWithKey<llvm::MallocAllocator>
   fun:Create<llvm::MallocAllocator>
   fun:try_emplace<>
   fun:operator[]
   fun:_ZN4llvm12PassRegistry12registerPassERKNS_8PassInfoEb
   fun:_ZL47initializeBlockFrequencyInfoWrapperPassPassOnceRN4llvm12PassRegistryE.llvm.2361570520918676161
   fun:__pthread_once_slow
   fun:UnknownInlinedFun
   fun:UnknownInlinedFun
   fun:UnknownInlinedFun
   fun:UnknownInlinedFun
   fun:_ZL30initializeIRTranslatorPassOnceRN4llvm12PassRegistryE.llvm.9446234758661035977
   fun:__pthread_once_slow
   fun:UnknownInlinedFun
   fun:UnknownInlinedFun
   fun:UnknownInlinedFun
   fun:UnknownInlinedFun
   fun:_ZN4llvm20initializeGlobalISelERNS_12PassRegistryE
   fun:LLVMInitializeAMDGPUTarget
   fun:ac_init_llvm_target
   fun:__pthread_once_slow
   fun:si_init_compiler
   fun:radeonsi_screen_create_impl
}
{
   <insert_a_suppression_name_here>
   Memcheck:Leak
   match-leak-kinds: reachable
   fun:_Znwm
   fun:UnknownInlinedFun
   fun:UnknownInlinedFun
   fun:allocateWithKey<llvm::MallocAllocator>
   fun:Create<llvm::MallocAllocator>
   fun:try_emplace<>
   fun:operator[]
   fun:_ZN4llvm12PassRegistry12registerPassERKNS_8PassInfoEb
   fun:_ZL42initializeLegacyDivergenceAnalysisPassOnceRN4llvm12PassRegistryE.llvm.17940134224078447786
   fun:__pthread_once_slow
   fun:UnknownInlinedFun
   fun:UnknownInlinedFun
   fun:UnknownInlinedFun
   fun:UnknownInlinedFun
   fun:_ZL36initializeAMDGPUDAGToDAGISelPassOnceRN4llvm12PassRegistryE.llvm.2974752516711511283
   fun:__pthread_once_slow
   fun:UnknownInlinedFun
   fun:UnknownInlinedFun
   fun:UnknownInlinedFun
   fun:UnknownInlinedFun
   fun:LLVMInitializeAMDGPUTarget
   fun:ac_init_llvm_target
   fun:__pthread_once_slow
   fun:si_init_compiler
   fun:radeonsi_screen_create_impl
   fun:amdgpu_winsys_create
}
{
   <insert_a_suppression_name_here>
   Memcheck:Leak
   match-leak-kinds: reachable
   fun:_Znwm
   fun:UnknownInlinedFun
   fun:UnknownInlinedFun
   fun:allocateWithKey<llvm::MallocAllocator>
   fun:Create<llvm::MallocAllocator>
   fun:try_emplace<>
   fun:operator[]
   fun:_ZN4llvm12PassRegistry12registerPassERKNS_8PassInfoEb
   fun:_ZL28initializeVirtRegMapPassOnceRN4llvm12PassRegistryE.llvm.968923361984772655
   fun:__pthread_once_slow
   fun:UnknownInlinedFun
   fun:UnknownInlinedFun
   fun:UnknownInlinedFun
   fun:UnknownInlinedFun
   fun:_ZL35initializeSILowerSGPRSpillsPassOnceRN4llvm12PassRegistryE.llvm.5111126068679622768
   fun:__pthread_once_slow
   fun:UnknownInlinedFun
   fun:UnknownInlinedFun
   fun:UnknownInlinedFun
   fun:UnknownInlinedFun
   fun:LLVMInitializeAMDGPUTarget
   fun:ac_init_llvm_target
   fun:__pthread_once_slow
   fun:si_init_compiler
   fun:radeonsi_screen_create_impl
   fun:amdgpu_winsys_create
}
{
   <insert_a_suppression_name_here>
   Memcheck:Leak
   match-leak-kinds: reachable
   fun:_Znwm
   fun:UnknownInlinedFun
   fun:UnknownInlinedFun
   fun:allocateWithKey<llvm::MallocAllocator>
   fun:Create<llvm::MallocAllocator>
   fun:try_emplace<>
   fun:operator[]
   fun:_ZN4llvm12PassRegistry12registerPassERKNS_8PassInfoEb
   fun:_ZL38initializePhiValuesWrapperPassPassOnceRN4llvm12PassRegistryE.llvm.12723378678656212956
   fun:__pthread_once_slow
   fun:UnknownInlinedFun
   fun:UnknownInlinedFun
   fun:UnknownInlinedFun
   fun:UnknownInlinedFun
   fun:_ZL36initializeBasicAAWrapperPassPassOnceRN4llvm12PassRegistryE.llvm.5069525913726080020
   fun:__pthread_once_slow
   fun:UnknownInlinedFun
   fun:UnknownInlinedFun
   fun:UnknownInlinedFun
   fun:UnknownInlinedFun
   fun:_ZL38initializeAAResultsWrapperPassPassOnceRN4llvm12PassRegistryE.llvm.3986720190912680915
   fun:__pthread_once_slow
   fun:UnknownInlinedFun
   fun:UnknownInlinedFun
   fun:UnknownInlinedFun
   fun:UnknownInlinedFun
   fun:_ZL38initializeSILoadStoreOptimizerPassOnceRN4llvm12PassRegistryE.llvm.375695131650757695
   fun:__pthread_once_slow
   fun:UnknownInlinedFun
   fun:UnknownInlinedFun
   fun:UnknownInlinedFun
   fun:UnknownInlinedFun
   fun:LLVMInitializeAMDGPUTarget
   fun:ac_init_llvm_target
}
{
   <insert_a_suppression_name_here>
   Memcheck:Leak
   match-leak-kinds: reachable
   fun:_Znwm
   fun:UnknownInlinedFun
   fun:UnknownInlinedFun
   fun:allocateWithKey<llvm::MallocAllocator>
   fun:Create<llvm::MallocAllocator>
   fun:try_emplace<>
   fun:operator[]
   fun:_ZN4llvm12PassRegistry12registerPassERKNS_8PassInfoEb
   fun:_ZL38initializeGlobalsAAWrapperPassPassOnceRN4llvm12PassRegistryE.llvm.5188814384541076369
   fun:__pthread_once_slow
   fun:UnknownInlinedFun
   fun:UnknownInlinedFun
   fun:UnknownInlinedFun
   fun:UnknownInlinedFun
   fun:_ZL38initializeAAResultsWrapperPassPassOnceRN4llvm12PassRegistryE.llvm.3986720190912680915
   fun:__pthread_once_slow
   fun:UnknownInlinedFun
   fun:UnknownInlinedFun
   fun:UnknownInlinedFun
   fun:UnknownInlinedFun
   fun:_ZL38initializeSILoadStoreOptimizerPassOnceRN4llvm12PassRegistryE.llvm.375695131650757695
   fun:__pthread_once_slow
   fun:UnknownInlinedFun
   fun:UnknownInlinedFun
   fun:UnknownInlinedFun
   fun:UnknownInlinedFun
   fun:LLVMInitializeAMDGPUTarget
   fun:ac_init_llvm_target
   fun:__pthread_once_slow
   fun:si_init_compiler
}
{
   <insert_a_suppression_name_here>
   Memcheck:Leak
   match-leak-kinds: reachable
   fun:_Znwm
   fun:UnknownInlinedFun
   fun:UnknownInlinedFun
   fun:allocateWithKey<llvm::MallocAllocator>
   fun:Create<llvm::MallocAllocator>
   fun:try_emplace<>
   fun:operator[]
   fun:_ZN4llvm12PassRegistry12registerPassERKNS_8PassInfoEb
   fun:_ZL28initializeLiveStacksPassOnceRN4llvm12PassRegistryE.llvm.9525148823561078391
   fun:__pthread_once_slow
   fun:UnknownInlinedFun
   fun:UnknownInlinedFun
   fun:UnknownInlinedFun
   fun:UnknownInlinedFun
   fun:_ZN4llvm17initializeCodeGenERNS_12PassRegistryE
   fun:_ZN4llvm16TargetPassConfigC1ERNS_17LLVMTargetMachineERNS_6legacy15PassManagerBaseE
   fun:AMDGPUPassConfig
   fun:GCNPassConfig
   fun:_ZN4llvm16GCNTargetMachine16createPassConfigERNS_6legacy15PassManagerBaseE
   fun:addPassesToGenerateCode
   fun:_ZN4llvm17LLVMTargetMachine19addPassesToEmitFileERNS_6legacy15PassManagerBaseERNS_17raw_pwrite_streamEPS4_NS_15CodeGenFileTypeEbPNS_28MachineModuleInfoWrapperPassE
   fun:ac_create_llvm_passes
   fun:si_init_compiler
   fun:radeonsi_screen_create_impl
   fun:amdgpu_winsys_create
}
{
   <insert_a_suppression_name_here>
   Memcheck:Leak
   match-leak-kinds: reachable
   fun:_Znwm
   fun:UnknownInlinedFun
   fun:UnknownInlinedFun
   fun:allocateWithKey<llvm::MallocAllocator>
   fun:Create<llvm::MallocAllocator>
   fun:try_emplace<>
   fun:operator[]
   fun:_ZN4llvm12PassRegistry12registerPassERKNS_8PassInfoEb
   fun:_ZL40initializeMachineCopyPropagationPassOnceRN4llvm12PassRegistryE.llvm.14999621064241411244
   fun:__pthread_once_slow
   fun:UnknownInlinedFun
   fun:UnknownInlinedFun
   fun:UnknownInlinedFun
   fun:UnknownInlinedFun
   fun:_ZN4llvm17initializeCodeGenERNS_12PassRegistryE
   fun:_ZN4llvm16TargetPassConfigC1ERNS_17LLVMTargetMachineERNS_6legacy15PassManagerBaseE
   fun:AMDGPUPassConfig
   fun:GCNPassConfig
   fun:_ZN4llvm16GCNTargetMachine16createPassConfigERNS_6legacy15PassManagerBaseE
   fun:addPassesToGenerateCode
   fun:_ZN4llvm17LLVMTargetMachine19addPassesToEmitFileERNS_6legacy15PassManagerBaseERNS_17raw_pwrite_streamEPS4_NS_15CodeGenFileTypeEbPNS_28MachineModuleInfoWrapperPassE
   fun:ac_create_llvm_passes
   fun:si_init_compiler
   fun:radeonsi_screen_create_impl
   fun:amdgpu_winsys_create
}
{
   <insert_a_suppression_name_here>
   Memcheck:Leak
   match-leak-kinds: reachable
   fun:_Znwm
   fun:UnknownInlinedFun
   fun:UnknownInlinedFun
   fun:allocateWithKey<llvm::MallocAllocator>
   fun:Create<llvm::MallocAllocator>
   fun:try_emplace<>
   fun:operator[]
   fun:_ZN4llvm12PassRegistry12registerPassERKNS_8PassInfoEb
   fun:_ZL37initializeSafeStackLegacyPassPassOnceRN4llvm12PassRegistryE.llvm.12094932211181300843
   fun:__pthread_once_slow
   fun:UnknownInlinedFun
   fun:UnknownInlinedFun
   fun:UnknownInlinedFun
   fun:UnknownInlinedFun
   fun:_ZN4llvm17initializeCodeGenERNS_12PassRegistryE
   fun:_ZN4llvm16TargetPassConfigC1ERNS_17LLVMTargetMachineERNS_6legacy15PassManagerBaseE
   fun:AMDGPUPassConfig
   fun:GCNPassConfig
   fun:_ZN4llvm16GCNTargetMachine16createPassConfigERNS_6legacy15PassManagerBaseE
   fun:addPassesToGenerateCode
   fun:_ZN4llvm17LLVMTargetMachine19addPassesToEmitFileERNS_6legacy15PassManagerBaseERNS_17raw_pwrite_streamEPS4_NS_15CodeGenFileTypeEbPNS_28MachineModuleInfoWrapperPassE
   fun:ac_create_llvm_passes
   fun:si_init_compiler
   fun:radeonsi_screen_create_impl
   fun:amdgpu_winsys_create
}
{
   <insert_a_suppression_name_here>
   Memcheck:Leak
   match-leak-kinds: reachable
   fun:_Znwm
   fun:UnknownInlinedFun
   fun:UnknownInlinedFun
   fun:allocateWithKey<llvm::MallocAllocator>
   fun:Create<llvm::MallocAllocator>
   fun:try_emplace<>
   fun:operator[]
   fun:_ZN4llvm12PassRegistry12registerPassERKNS_8PassInfoEb
   fun:_ZL38initializeMergeICmpsLegacyPassPassOnceRN4llvm12PassRegistryE.llvm.2096431553352696162
   fun:__pthread_once_slow
   fun:UnknownInlinedFun
   fun:UnknownInlinedFun
   fun:UnknownInlinedFun
   fun:initializeMergeICmpsLegacyPassPass
   fun:MergeICmpsLegacyPass
   fun:_ZN4llvm26createMergeICmpsLegacyPassEv
   fun:_ZN4llvm16TargetPassConfig11addIRPassesEv
   fun:_ZN4llvm16AMDGPUPassConfig11addIRPassesEv
   fun:_ZN4llvm16TargetPassConfig13addISelPassesEv
   fun:addPassesToGenerateCode
   fun:_ZN4llvm17LLVMTargetMachine19addPassesToEmitFileERNS_6legacy15PassManagerBaseERNS_17raw_pwrite_streamEPS4_NS_15CodeGenFileTypeEbPNS_28MachineModuleInfoWrapperPassE
   fun:ac_create_llvm_passes
   fun:si_init_compiler
   fun:radeonsi_screen_create_impl
}
{
   <insert_a_suppression_name_here>
   Memcheck:Leak
   match-leak-kinds: reachable
   fun:_Znwm
   fun:UnknownInlinedFun
   fun:UnknownInlinedFun
   fun:allocateWithKey<llvm::MallocAllocator>
   fun:Create<llvm::MallocAllocator>
   fun:try_emplace<>
   fun:operator[]
   fun:_ZN4llvm12PassRegistry12registerPassERKNS_8PassInfoEb
   fun:_ZL44initializeConstantHoistingLegacyPassPassOnceRN4llvm12PassRegistryE.llvm.391337594005169397
   fun:__pthread_once_slow
   fun:UnknownInlinedFun
   fun:UnknownInlinedFun
   fun:UnknownInlinedFun
   fun:initializeConstantHoistingLegacyPassPass
   fun:ConstantHoistingLegacyPass
   fun:_ZN4llvm26createConstantHoistingPassEv
   fun:_ZN4llvm16TargetPassConfig11addIRPassesEv
   fun:_ZN4llvm16AMDGPUPassConfig11addIRPassesEv
   fun:_ZN4llvm16TargetPassConfig13addISelPassesEv
   fun:addPassesToGenerateCode
   fun:_ZN4llvm17LLVMTargetMachine19addPassesToEmitFileERNS_6legacy15PassManagerBaseERNS_17raw_pwrite_streamEPS4_NS_15CodeGenFileTypeEbPNS_28MachineModuleInfoWrapperPassE
   fun:ac_create_llvm_passes
   fun:si_init_compiler
   fun:radeonsi_screen_create_impl
}
{
   <insert_a_suppression_name_here>
   Memcheck:Leak
   match-leak-kinds: reachable
   fun:_Znwm
   fun:UnknownInlinedFun
   fun:UnknownInlinedFun
   fun:allocateWithKey<llvm::MallocAllocator>
   fun:Create<llvm::MallocAllocator>
   fun:try_emplace<>
   fun:operator[]
   fun:_ZN4llvm12PassRegistry12registerPassERKNS_8PassInfoEb
   fun:_ZL38initializeFlattenCFGLegacyPassPassOnceRN4llvm12PassRegistryE.llvm.4959328913508726500
   fun:__pthread_once_slow
   fun:UnknownInlinedFun
   fun:UnknownInlinedFun
   fun:UnknownInlinedFun
   fun:initializeFlattenCFGLegacyPassPass
   fun:FlattenCFGLegacyPass
   fun:_ZN4llvm20createFlattenCFGPassEv
   fun:addPreISel
   fun:_ZN12_GLOBAL__N_113GCNPassConfig10addPreISelEv
   fun:_ZN4llvm16TargetPassConfig14addISelPrepareEv
   fun:_ZN4llvm16TargetPassConfig13addISelPassesEv
   fun:addPassesToGenerateCode
   fun:_ZN4llvm17LLVMTargetMachine19addPassesToEmitFileERNS_6legacy15PassManagerBaseERNS_17raw_pwrite_streamEPS4_NS_15CodeGenFileTypeEbPNS_28MachineModuleInfoWrapperPassE
   fun:ac_create_llvm_passes
   fun:si_init_compiler
   fun:radeonsi_screen_create_impl
}
{
   <insert_a_suppression_name_here>
   Memcheck:Leak
   match-leak-kinds: reachable
   fun:_Znwm
   fun:UnknownInlinedFun
   fun:UnknownInlinedFun
   fun:allocateWithKey<llvm::MallocAllocator>
   fun:Create<llvm::MallocAllocator, llvm::cl::Option *>
   fun:try_emplace<llvm::cl::Option *>
   fun:insert
   fun:_ZN12_GLOBAL__N_117CommandLineParser9addOptionEPN4llvm2cl6OptionEPNS2_10SubCommandE
   fun:_ZN4llvm2cl6Option11addArgumentEv
   fun:done
   fun:opt<char[12], llvm::cl::LocationClass<bool>, llvm::cl::OptionHidden, llvm::cl::desc>
   fun:UnknownInlinedFun
   fun:_GLOBAL__sub_I_PassTimingInfo.cpp
   fun:call_init
   fun:call_init
   fun:_dl_init
   fun:_dl_catch_exception
   fun:dl_open_worker
   fun:_dl_catch_exception
   fun:_dl_open
   fun:dlopen_doit
   fun:_dl_catch_exception
}
{
   <insert_a_suppression_name_here>
   Memcheck:Leak
   match-leak-kinds: reachable
   fun:_Znwm
   fun:UnknownInlinedFun
   fun:UnknownInlinedFun
   fun:allocateWithKey<llvm::MallocAllocator>
   fun:Create<llvm::MallocAllocator, llvm::cl::Option *>
   fun:try_emplace<llvm::cl::Option *>
   fun:insert
   fun:_ZN12_GLOBAL__N_117CommandLineParser9addOptionEPN4llvm2cl6OptionEPNS2_10SubCommandE
   fun:_ZN4llvm2cl6Option11addArgumentEv
   fun:done
   fun:list<char[12], llvm::cl::desc, llvm::cl::MiscFlags, llvm::cl::OptionHidden>
   fun:UnknownInlinedFun
   fun:_GLOBAL__sub_I_PrintPasses.cpp
   fun:call_init
   fun:call_init
   fun:_dl_init
   fun:_dl_catch_exception
   fun:dl_open_worker
   fun:_dl_catch_exception
   fun:_dl_open
   fun:dlopen_doit
   fun:_dl_catch_exception
}
{
   <insert_a_suppression_name_here>
   Memcheck:Leak
   match-leak-kinds: reachable
   fun:_Znwm
   fun:UnknownInlinedFun
   fun:UnknownInlinedFun
   fun:allocateWithKey<llvm::MallocAllocator>
   fun:Create<llvm::MallocAllocator, llvm::cl::Option *>
   fun:try_emplace<llvm::cl::Option *>
   fun:insert
   fun:_ZN12_GLOBAL__N_117CommandLineParser9addOptionEPN4llvm2cl6OptionEPNS2_10SubCommandE
   fun:_ZN4llvm2cl6Option11addArgumentEv
   fun:done
   fun:opt<char[12], llvm::cl::initializer<int>, llvm::cl::OptionHidden>
   fun:UnknownInlinedFun
   fun:_GLOBAL__sub_I_IfConversion.cpp
   fun:call_init
   fun:call_init
   fun:_dl_init
   fun:_dl_catch_exception
   fun:dl_open_worker
   fun:_dl_catch_exception
   fun:_dl_open
   fun:dlopen_doit
   fun:_dl_catch_exception
}
{
   <insert_a_suppression_name_here>
   Memcheck:Leak
   match-leak-kinds: reachable
   fun:_Znwm
   fun:UnknownInlinedFun
   fun:UnknownInlinedFun
   fun:allocateWithKey<llvm::MallocAllocator>
   fun:Create<llvm::MallocAllocator, llvm::cl::Option *>
   fun:try_emplace<llvm::cl::Option *>
   fun:insert
   fun:_ZN12_GLOBAL__N_117CommandLineParser9addOptionEPN4llvm2cl6OptionEPNS2_10SubCommandE
   fun:_ZN4llvm2cl6Option11addArgumentEv
   fun:__cxx_global_var_init.52
   fun:_GLOBAL__sub_I_TargetPassConfig.cpp
   fun:call_init
   fun:call_init
   fun:_dl_init
   fun:_dl_catch_exception
   fun:dl_open_worker
   fun:_dl_catch_exception
   fun:_dl_open
   fun:dlopen_doit
   fun:_dl_catch_exception
}
{
   <insert_a_suppression_name_here>
   Memcheck:Leak
   match-leak-kinds: reachable
   fun:_Znwm
   fun:UnknownInlinedFun
   fun:UnknownInlinedFun
   fun:allocateWithKey<llvm::MallocAllocator>
   fun:Create<llvm::MallocAllocator, llvm::cl::Option *>
   fun:try_emplace<llvm::cl::Option *>
   fun:insert
   fun:_ZN12_GLOBAL__N_117CommandLineParser9addOptionEPN4llvm2cl6OptionEPNS2_10SubCommandE
   fun:_ZN4llvm2cl6Option11addArgumentEv
   fun:done
   fun:opt<char[12], llvm::cl::OptionHidden, llvm::cl::desc>
   fun:UnknownInlinedFun
   fun:_GLOBAL__sub_I_TargetPassConfig.cpp
   fun:call_init
   fun:call_init
   fun:_dl_init
   fun:_dl_catch_exception
   fun:dl_open_worker
   fun:_dl_catch_exception
   fun:_dl_open
   fun:dlopen_doit
   fun:_dl_catch_exception
}
{
   <insert_a_suppression_name_here>
   Memcheck:Leak
   match-leak-kinds: reachable
   fun:_Znwm
   fun:UnknownInlinedFun
   fun:UnknownInlinedFun
   fun:allocateWithKey<llvm::MallocAllocator>
   fun:Create<llvm::MallocAllocator, llvm::cl::Option *>
   fun:try_emplace<llvm::cl::Option *>
   fun:insert
   fun:_ZN12_GLOBAL__N_117CommandLineParser9addOptionEPN4llvm2cl6OptionEPNS2_10SubCommandE
   fun:_ZN4llvm2cl6Option11addArgumentEv
   fun:__cxx_global_var_init.147
   fun:_GLOBAL__sub_I_TargetPassConfig.cpp
   fun:call_init
   fun:call_init
   fun:_dl_init
   fun:_dl_catch_exception
   fun:dl_open_worker
   fun:_dl_catch_exception
   fun:_dl_open
   fun:dlopen_doit
   fun:_dl_catch_exception
}
{
   <insert_a_suppression_name_here>
   Memcheck:Leak
   match-leak-kinds: reachable
   fun:_Znwm
   fun:UnknownInlinedFun
   fun:UnknownInlinedFun
   fun:allocateWithKey<llvm::MallocAllocator>
   fun:Create<llvm::MallocAllocator, llvm::cl::Option *>
   fun:try_emplace<llvm::cl::Option *>
   fun:insert
   fun:_ZN12_GLOBAL__N_117CommandLineParser9addOptionEPN4llvm2cl6OptionEPNS2_10SubCommandE
   fun:_ZN4llvm2cl6Option11addArgumentEv
   fun:__cxx_global_var_init.154
   fun:_GLOBAL__sub_I_TargetPassConfig.cpp
   fun:call_init
   fun:call_init
   fun:_dl_init
   fun:_dl_catch_exception
   fun:dl_open_worker
   fun:_dl_catch_exception
   fun:_dl_open
   fun:dlopen_doit
   fun:_dl_catch_exception
}
{
   <insert_a_suppression_name_here>
   Memcheck:Leak
   match-leak-kinds: reachable
   fun:_Znwm
   fun:UnknownInlinedFun
   fun:UnknownInlinedFun
   fun:allocateWithKey<llvm::MallocAllocator>
   fun:Create<llvm::MallocAllocator, llvm::cl::Option *>
   fun:try_emplace<llvm::cl::Option *>
   fun:insert
   fun:_ZN12_GLOBAL__N_117CommandLineParser9addOptionEPN4llvm2cl6OptionEPNS2_10SubCommandE
   fun:_ZN4llvm2cl6Option11addArgumentEv
   fun:UnknownInlinedFun
   fun:_GLOBAL__sub_I_AddressSanitizer.cpp
   fun:call_init
   fun:call_init
   fun:_dl_init
   fun:_dl_catch_exception
   fun:dl_open_worker
   fun:_dl_catch_exception
   fun:_dl_open
   fun:dlopen_doit
   fun:_dl_catch_exception
}
{
   <insert_a_suppression_name_here>
   Memcheck:Leak
   match-leak-kinds: reachable
   fun:_Znwm
   fun:UnknownInlinedFun
   fun:UnknownInlinedFun
   fun:allocateWithKey<llvm::MallocAllocator>
   fun:Create<llvm::MallocAllocator, llvm::cl::Option *>
   fun:try_emplace<llvm::cl::Option *>
   fun:insert
   fun:_ZN12_GLOBAL__N_117CommandLineParser9addOptionEPN4llvm2cl6OptionEPNS2_10SubCommandE
   fun:_ZN4llvm2cl6Option11addArgumentEv
   fun:__cxx_global_var_init.43
   fun:_GLOBAL__sub_I_MemorySanitizer.cpp
   fun:call_init
   fun:call_init
   fun:_dl_init
   fun:_dl_catch_exception
   fun:dl_open_worker
   fun:_dl_catch_exception
   fun:_dl_open
   fun:dlopen_doit
   fun:_dl_catch_exception
}
{
   <insert_a_suppression_name_here>
   Memcheck:Leak
   match-leak-kinds: reachable
   fun:_Znwm
   fun:UnknownInlinedFun
   fun:UnknownInlinedFun
   fun:allocateWithKey<llvm::MallocAllocator>
   fun:Create<llvm::MallocAllocator, llvm::cl::Option *>
   fun:try_emplace<llvm::cl::Option *>
   fun:insert
   fun:_ZN12_GLOBAL__N_117CommandLineParser9addOptionEPN4llvm2cl6OptionEPNS2_10SubCommandE
   fun:_ZN4llvm2cl6Option11addArgumentEv
   fun:done
   fun:opt<char[12], llvm::cl::OptionHidden, llvm::cl::initializer<llvm::ReplaceExitVal>, llvm::cl::desc, llvm::cl::ValuesClass>
   fun:UnknownInlinedFun
   fun:_GLOBAL__sub_I_IndVarSimplify.cpp
   fun:call_init
   fun:call_init
   fun:_dl_init
   fun:_dl_catch_exception
   fun:dl_open_worker
   fun:_dl_catch_exception
   fun:_dl_open
   fun:dlopen_doit
   fun:_dl_catch_exception
}
{
   <insert_a_suppression_name_here>
   Memcheck:Leak
   match-leak-kinds: reachable
   fun:_Znwm
   fun:UnknownInlinedFun
   fun:UnknownInlinedFun
   fun:allocateWithKey<llvm::MallocAllocator>
   fun:Create<llvm::MallocAllocator, llvm::cl::Option *>
   fun:try_emplace<llvm::cl::Option *>
   fun:insert
   fun:_ZN12_GLOBAL__N_117CommandLineParser9addOptionEPN4llvm2cl6OptionEPNS2_10SubCommandE
   fun:_ZN4llvm2cl6Option11addArgumentEv
   fun:UnknownInlinedFun
   fun:_GLOBAL__sub_I_LowerMatrixIntrinsics.cpp
   fun:call_init
   fun:call_init
   fun:_dl_init
   fun:_dl_catch_exception
   fun:dl_open_worker
   fun:_dl_catch_exception
   fun:_dl_open
   fun:dlopen_doit
   fun:_dl_catch_exception
}
{
   <insert_a_suppression_name_here>
   Memcheck:Leak
   match-leak-kinds: reachable
   fun:_Znwm
   fun:UnknownInlinedFun
   fun:UnknownInlinedFun
   fun:allocateWithKey<llvm::MallocAllocator>
   fun:Create<llvm::MallocAllocator, llvm::cl::Option *>
   fun:try_emplace<llvm::cl::Option *>
   fun:insert
   fun:_ZN12_GLOBAL__N_117CommandLineParser9addOptionEPN4llvm2cl6OptionEPNS2_10SubCommandE
   fun:_ZN4llvm2cl6Option11addArgumentEv
   fun:done
   fun:opt<char[12], llvm::cl::OptionHidden, llvm::cl::initializer<bool> >
   fun:UnknownInlinedFun
   fun:_GLOBAL__sub_I_PlaceSafepoints.cpp
   fun:call_init
   fun:call_init
   fun:_dl_init
   fun:_dl_catch_exception
   fun:dl_open_worker
   fun:_dl_catch_exception
   fun:_dl_open
   fun:dlopen_doit
   fun:_dl_catch_exception
}
{
   <insert_a_suppression_name_here>
   Memcheck:Leak
   match-leak-kinds: reachable
   fun:_Znwm
   fun:UnknownInlinedFun
   fun:UnknownInlinedFun
   fun:allocateWithKey<llvm::MallocAllocator>
   fun:Create<llvm::MallocAllocator, llvm::cl::Option *>
   fun:try_emplace<llvm::cl::Option *>
   fun:insert
   fun:_ZN12_GLOBAL__N_117CommandLineParser9addOptionEPN4llvm2cl6OptionEPNS2_10SubCommandE
   fun:_ZN4llvm2cl6Option11addArgumentEv
   fun:__cxx_global_var_init.40
   fun:_GLOBAL__sub_I_PassManagerBuilder.cpp
   fun:call_init
   fun:call_init
   fun:_dl_init
   fun:_dl_catch_exception
   fun:dl_open_worker
   fun:_dl_catch_exception
   fun:_dl_open
   fun:dlopen_doit
   fun:_dl_catch_exception
}
{
   <insert_a_suppression_name_here>
   Memcheck:Leak
   match-leak-kinds: reachable
   fun:_Znwm
   fun:UnknownInlinedFun
   fun:UnknownInlinedFun
   fun:allocateWithKey<llvm::MallocAllocator>
   fun:Create<llvm::MallocAllocator, llvm::cl::Option *>
   fun:try_emplace<llvm::cl::Option *>
   fun:insert
   fun:_ZN12_GLOBAL__N_117CommandLineParser9addOptionEPN4llvm2cl6OptionEPNS2_10SubCommandE
   fun:_ZN4llvm2cl6Option11addArgumentEv
   fun:UnknownInlinedFun
   fun:_GLOBAL__sub_I_CFGPrinter.cpp
   fun:call_init
   fun:call_init
   fun:_dl_init
   fun:_dl_catch_exception
   fun:dl_open_worker
   fun:_dl_catch_exception
   fun:_dl_open
   fun:dlopen_doit
   fun:_dl_catch_exception
}
{
   <insert_a_suppression_name_here>
   Memcheck:Leak
   match-leak-kinds: reachable
   fun:_Znwm
   fun:UnknownInlinedFun
   fun:UnknownInlinedFun
   fun:allocateWithKey<llvm::MallocAllocator>
   fun:Create<llvm::MallocAllocator, llvm::cl::Option *>
   fun:try_emplace<llvm::cl::Option *>
   fun:insert
   fun:_ZN12_GLOBAL__N_117CommandLineParser9addOptionEPN4llvm2cl6OptionEPNS2_10SubCommandE
   fun:_ZN4llvm2cl6Option11addArgumentEv
   fun:done
   fun:opt<char[12], llvm::cl::OptionHidden, llvm::cl::LocationClass<bool>, llvm::cl::desc>
   fun:UnknownInlinedFun
   fun:_GLOBAL__sub_I_ScalarEvolution.cpp
   fun:call_init
   fun:call_init
   fun:_dl_init
   fun:_dl_catch_exception
   fun:dl_open_worker
   fun:_dl_catch_exception
   fun:_dl_open
   fun:dlopen_doit
   fun:_dl_catch_exception
}
{
   <insert_a_suppression_name_here>
   Memcheck:Leak
   match-leak-kinds: reachable
   fun:_Znwm
   fun:UnknownInlinedFun
   fun:UnknownInlinedFun
   fun:allocateWithKey<llvm::MallocAllocator>
   fun:Create<llvm::MallocAllocator, llvm::cl::Option *>
   fun:try_emplace<llvm::cl::Option *>
   fun:insert
   fun:_ZN12_GLOBAL__N_117CommandLineParser9addOptionEPN4llvm2cl6OptionEPNS2_10SubCommandE
   fun:_ZN4llvm2cl6Option11addArgumentEv
   fun:UnknownInlinedFun
   fun:_GLOBAL__sub_I_TypeBasedAliasAnalysis.cpp
   fun:call_init
   fun:call_init
   fun:_dl_init
   fun:_dl_catch_exception
   fun:dl_open_worker
   fun:_dl_catch_exception
   fun:_dl_open
   fun:dlopen_doit
   fun:_dl_catch_exception
}
{
   <insert_a_suppression_name_here>
   Memcheck:Leak
   match-leak-kinds: reachable
   fun:_Znwm
   fun:UnknownInlinedFun
   fun:UnknownInlinedFun
   fun:allocateWithKey<llvm::MallocAllocator>
   fun:Create<llvm::MallocAllocator, llvm::cl::Option *>
   fun:try_emplace<llvm::cl::Option *>
   fun:insert
   fun:_ZN12_GLOBAL__N_117CommandLineParser9addOptionEPN4llvm2cl6OptionEPNS2_10SubCommandE
   fun:_ZN4llvm2cl6Option11addArgumentEv
   fun:UnknownInlinedFun
   fun:_GLOBAL__sub_I_AMDGPUTargetMachine.cpp
   fun:call_init
   fun:call_init
   fun:_dl_init
   fun:_dl_catch_exception
   fun:dl_open_worker
   fun:_dl_catch_exception
   fun:_dl_open
   fun:dlopen_doit
   fun:_dl_catch_exception
}
{
   <insert_a_suppression_name_here>
   Memcheck:Leak
   match-leak-kinds: reachable
   fun:_Znwm
   fun:UnknownInlinedFun
   fun:UnknownInlinedFun
   fun:allocateWithKey<llvm::MallocAllocator>
   fun:Create<llvm::MallocAllocator, llvm::cl::Option *>
   fun:try_emplace<llvm::cl::Option *>
   fun:insert
   fun:_ZN12_GLOBAL__N_117CommandLineParser9addOptionEPN4llvm2cl6OptionEPNS2_10SubCommandE
   fun:_ZN4llvm2cl6Option11addArgumentEv
   fun:UnknownInlinedFun
   fun:_GLOBAL__sub_I_HexagonCommonGEP.cpp
   fun:call_init
   fun:call_init
   fun:_dl_init
   fun:_dl_catch_exception
   fun:dl_open_worker
   fun:_dl_catch_exception
   fun:_dl_open
   fun:dlopen_doit
   fun:_dl_catch_exception
}
{
   <insert_a_suppression_name_here>
   Memcheck:Leak
   match-leak-kinds: reachable
   fun:_Znwm
   fun:UnknownInlinedFun
   fun:UnknownInlinedFun
   fun:allocateWithKey<llvm::MallocAllocator>
   fun:Create<llvm::MallocAllocator, llvm::cl::Option *>
   fun:try_emplace<llvm::cl::Option *>
   fun:insert
   fun:_ZN12_GLOBAL__N_117CommandLineParser9addOptionEPN4llvm2cl6OptionEPNS2_10SubCommandE
   fun:_ZN4llvm2cl6Option11addArgumentEv
   fun:UnknownInlinedFun
   fun:_GLOBAL__sub_I_HexagonGenInsert.cpp
   fun:call_init
   fun:call_init
   fun:_dl_init
   fun:_dl_catch_exception
   fun:dl_open_worker
   fun:_dl_catch_exception
   fun:_dl_open
   fun:dlopen_doit
   fun:_dl_catch_exception
}
{
   <insert_a_suppression_name_here>
   Memcheck:Leak
   match-leak-kinds: reachable
   fun:_Znwm
   fun:UnknownInlinedFun
   fun:UnknownInlinedFun
   fun:allocateWithKey<llvm::MallocAllocator>
   fun:Create<llvm::MallocAllocator, llvm::cl::Option *>
   fun:try_emplace<llvm::cl::Option *>
   fun:insert
   fun:_ZN12_GLOBAL__N_117CommandLineParser9addOptionEPN4llvm2cl6OptionEPNS2_10SubCommandE
   fun:_ZN4llvm2cl6Option11addArgumentEv
   fun:__cxx_global_var_init.19
   fun:_GLOBAL__sub_I_HexagonGenInsert.cpp
   fun:call_init
   fun:call_init
   fun:_dl_init
   fun:_dl_catch_exception
   fun:dl_open_worker
   fun:_dl_catch_exception
   fun:_dl_open
   fun:dlopen_doit
   fun:_dl_catch_exception
}
{
   <insert_a_suppression_name_here>
   Memcheck:Leak
   match-leak-kinds: reachable
   fun:_Znwm
   fun:UnknownInlinedFun
   fun:UnknownInlinedFun
   fun:allocateWithKey<llvm::MallocAllocator>
   fun:Create<llvm::MallocAllocator, llvm::cl::Option *>
   fun:try_emplace<llvm::cl::Option *>
   fun:insert
   fun:_ZN12_GLOBAL__N_117CommandLineParser9addOptionEPN4llvm2cl6OptionEPNS2_10SubCommandE
   fun:_ZN4llvm2cl6Option11addArgumentEv
   fun:done
   fun:opt<char[12], llvm::cl::OptionHidden, llvm::cl::initializer<bool>, llvm::cl::desc>
   fun:UnknownInlinedFun
   fun:_GLOBAL__sub_I_HexagonSplitDouble.cpp
   fun:call_init
   fun:call_init
   fun:_dl_init
   fun:_dl_catch_exception
   fun:dl_open_worker
   fun:_dl_catch_exception
   fun:_dl_open
   fun:dlopen_doit
   fun:_dl_catch_exception
}
{
   <insert_a_suppression_name_here>
   Memcheck:Leak
   match-leak-kinds: reachable
   fun:_Znwm
   fun:UnknownInlinedFun
   fun:UnknownInlinedFun
   fun:allocateWithKey<llvm::MallocAllocator>
   fun:Create<llvm::MallocAllocator, llvm::cl::Option *>
   fun:try_emplace<llvm::cl::Option *>
   fun:insert
   fun:_ZN12_GLOBAL__N_117CommandLineParser9addOptionEPN4llvm2cl6OptionEPNS2_10SubCommandE
   fun:_ZN4llvm2cl6Option11addArgumentEv
   fun:UnknownInlinedFun
   fun:_GLOBAL__sub_I_HexagonTargetMachine.cpp
   fun:call_init
   fun:call_init
   fun:_dl_init
   fun:_dl_catch_exception
   fun:dl_open_worker
   fun:_dl_catch_exception
   fun:_dl_open
   fun:dlopen_doit
   fun:_dl_catch_exception
}
{
   <insert_a_suppression_name_here>
   Memcheck:Leak
   match-leak-kinds: reachable
   fun:_Znwm
   fun:UnknownInlinedFun
   fun:UnknownInlinedFun
   fun:allocateWithKey<llvm::MallocAllocator>
   fun:Create<llvm::MallocAllocator, llvm::cl::Option *>
   fun:try_emplace<llvm::cl::Option *>
   fun:insert
   fun:_ZN12_GLOBAL__N_117CommandLineParser9addOptionEPN4llvm2cl6OptionEPNS2_10SubCommandE
   fun:_ZN4llvm2cl6Option11addArgumentEv
   fun:__cxx_global_var_init.47
   fun:_GLOBAL__sub_I_HexagonTargetMachine.cpp
   fun:call_init
   fun:call_init
   fun:_dl_init
   fun:_dl_catch_exception
   fun:dl_open_worker
   fun:_dl_catch_exception
   fun:_dl_open
   fun:dlopen_doit
   fun:_dl_catch_exception
}
{
   <insert_a_suppression_name_here>
   Memcheck:Leak
   match-leak-kinds: reachable
   fun:_Znwm
   fun:UnknownInlinedFun
   fun:UnknownInlinedFun
   fun:allocateWithKey<llvm::MallocAllocator>
   fun:Create<llvm::MallocAllocator, llvm::cl::Option *>
   fun:try_emplace<llvm::cl::Option *>
   fun:insert
   fun:_ZN12_GLOBAL__N_117CommandLineParser9addOptionEPN4llvm2cl6OptionEPNS2_10SubCommandE
   fun:_ZN4llvm2cl6Option11addArgumentEv
   fun:done
   fun:opt<char[12], llvm::cl::desc>
   fun:__cxx_global_var_init.84
   fun:_GLOBAL__sub_I_HexagonMCTargetDesc.cpp
   fun:call_init
   fun:call_init
   fun:_dl_init
   fun:_dl_catch_exception
   fun:dl_open_worker
   fun:_dl_catch_exception
   fun:_dl_open
   fun:dlopen_doit
   fun:_dl_catch_exception
}
{
   <insert_a_suppression_name_here>
   Memcheck:Leak
   match-leak-kinds: reachable
   fun:_Znwm
   fun:UnknownInlinedFun
   fun:UnknownInlinedFun
   fun:allocateWithKey<llvm::MallocAllocator>
   fun:Create<llvm::MallocAllocator, llvm::cl::Option *>
   fun:try_emplace<llvm::cl::Option *>
   fun:insert
   fun:_ZN12_GLOBAL__N_117CommandLineParser9addOptionEPN4llvm2cl6OptionEPNS2_10SubCommandE
   fun:_ZN4llvm2cl6Option11addArgumentEv
   fun:done
   fun:opt<char[12], llvm::cl::initializer<bool>, llvm::cl::desc, llvm::cl::OptionHidden>
   fun:UnknownInlinedFun
   fun:_GLOBAL__sub_I_PPCISelDAGToDAG.cpp
   fun:call_init
   fun:call_init
   fun:_dl_init
   fun:_dl_catch_exception
   fun:dl_open_worker
   fun:_dl_catch_exception
   fun:_dl_open
   fun:dlopen_doit
   fun:_dl_catch_exception
}
{
   <insert_a_suppression_name_here>
   Memcheck:Leak
   match-leak-kinds: reachable
   fun:_Znwm
   fun:UnknownInlinedFun
   fun:UnknownInlinedFun
   fun:allocateWithKey<llvm::MallocAllocator>
   fun:Create<llvm::MallocAllocator, llvm::cl::Option *>
   fun:try_emplace<llvm::cl::Option *>
   fun:insert
   fun:_ZN12_GLOBAL__N_117CommandLineParser9addOptionEPN4llvm2cl6OptionEPNS2_10SubCommandE
   fun:_ZN4llvm2cl6Option11addArgumentEv
   fun:done
   fun:opt<char[12], llvm::cl::OptionHidden, llvm::cl::desc, llvm::cl::initializer<bool> >
   fun:UnknownInlinedFun
   fun:_GLOBAL__sub_I_PPCTargetMachine.cpp
   fun:call_init
   fun:call_init
   fun:_dl_init
   fun:_dl_catch_exception
   fun:dl_open_worker
   fun:_dl_catch_exception
   fun:_dl_open
   fun:dlopen_doit
   fun:_dl_catch_exception
}
{
   <insert_a_suppression_name_here>
   Memcheck:Leak
   match-leak-kinds: reachable
   fun:_Znwm
   fun:UnknownInlinedFun
   fun:UnknownInlinedFun
   fun:allocateWithKey<llvm::MallocAllocator>
   fun:Create<llvm::MallocAllocator, llvm::cl::Option *>
   fun:try_emplace<llvm::cl::Option *>
   fun:insert
   fun:_ZN12_GLOBAL__N_117CommandLineParser9addOptionEPN4llvm2cl6OptionEPNS2_10SubCommandE
   fun:_ZN4llvm2cl6Option11addArgumentEv
   fun:UnknownInlinedFun
   fun:_GLOBAL__sub_I_X86TargetMachine.cpp
   fun:call_init
   fun:call_init
   fun:_dl_init
   fun:_dl_catch_exception
   fun:dl_open_worker
   fun:_dl_catch_exception
   fun:_dl_open
   fun:dlopen_doit
   fun:_dl_catch_exception
}
{
   <insert_a_suppression_name_here>
   Memcheck:Leak
   match-leak-kinds: reachable
   fun:_Znwm
   fun:UnknownInlinedFun
   fun:UnknownInlinedFun
   fun:allocateWithKey<llvm::MallocAllocator>
   fun:Create<llvm::MallocAllocator, llvm::cl::Option *>
   fun:try_emplace<llvm::cl::Option *>
   fun:insert
   fun:_ZN12_GLOBAL__N_117CommandLineParser9addOptionEPN4llvm2cl6OptionEPNS2_10SubCommandE
   fun:_ZN4llvm2cl6Option11addArgumentEv
   fun:done
   fun:opt<char[12], llvm::cl::desc, llvm::cl::OptionHidden, llvm::cl::initializer<char[3]> >
   fun:__cxx_global_var_init.28
   fun:_GLOBAL__sub_I_StandardInstrumentations.cpp
   fun:call_init
   fun:call_init
   fun:_dl_init
   fun:_dl_catch_exception
   fun:dl_open_worker
   fun:_dl_catch_exception
   fun:_dl_open
   fun:dlopen_doit
   fun:_dl_catch_exception
}
{
   <insert_a_suppression_name_here>
   Memcheck:Leak
   match-leak-kinds: reachable
   fun:_Znwm
   fun:UnknownInlinedFun
   fun:UnknownInlinedFun
   fun:allocateWithKey<llvm::MallocAllocator>
   fun:Create<llvm::MallocAllocator>
   fun:try_emplace<>
   fun:operator[]
   fun:_ZN4llvm12PassRegistry12registerPassERKNS_8PassInfoEb
   fun:_ZL46initializePostDominatorTreeWrapperPassPassOnceRN4llvm12PassRegistryE.llvm.766292008506941739
   fun:__pthread_once_slow
   fun:UnknownInlinedFun
   fun:UnknownInlinedFun
   fun:UnknownInlinedFun
   fun:UnknownInlinedFun
   fun:_ZL50initializeBranchProbabilityInfoWrapperPassPassOnceRN4llvm12PassRegistryE.llvm.3079600055323173122
   fun:__pthread_once_slow
   fun:UnknownInlinedFun
   fun:UnknownInlinedFun
   fun:UnknownInlinedFun
   fun:UnknownInlinedFun
   fun:_ZL47initializeBlockFrequencyInfoWrapperPassPassOnceRN4llvm12PassRegistryE.llvm.2361570520918676161
   fun:__pthread_once_slow
   fun:UnknownInlinedFun
   fun:UnknownInlinedFun
   fun:UnknownInlinedFun
   fun:UnknownInlinedFun
   fun:_ZL30initializeIRTranslatorPassOnceRN4llvm12PassRegistryE.llvm.9446234758661035977
   fun:__pthread_once_slow
   fun:UnknownInlinedFun
   fun:UnknownInlinedFun
   fun:UnknownInlinedFun
   fun:UnknownInlinedFun
   fun:_ZN4llvm20initializeGlobalISelERNS_12PassRegistryE
   fun:LLVMInitializeAMDGPUTarget
}
{
   <insert_a_suppression_name_here>
   Memcheck:Leak
   match-leak-kinds: reachable
   fun:_Znwm
   fun:UnknownInlinedFun
   fun:UnknownInlinedFun
   fun:allocateWithKey<llvm::MallocAllocator>
   fun:Create<llvm::MallocAllocator>
   fun:try_emplace<>
   fun:operator[]
   fun:_ZN4llvm12PassRegistry12registerPassERKNS_8PassInfoEb
   fun:_ZL50initializeBranchProbabilityInfoWrapperPassPassOnceRN4llvm12PassRegistryE.llvm.3079600055323173122
   fun:__pthread_once_slow
   fun:UnknownInlinedFun
   fun:UnknownInlinedFun
   fun:UnknownInlinedFun
   fun:UnknownInlinedFun
   fun:_ZL47initializeBlockFrequencyInfoWrapperPassPassOnceRN4llvm12PassRegistryE.llvm.2361570520918676161
   fun:__pthread_once_slow
   fun:UnknownInlinedFun
   fun:UnknownInlinedFun
   fun:UnknownInlinedFun
   fun:UnknownInlinedFun
   fun:_ZL30initializeIRTranslatorPassOnceRN4llvm12PassRegistryE.llvm.9446234758661035977
   fun:__pthread_once_slow
   fun:UnknownInlinedFun
   fun:UnknownInlinedFun
   fun:UnknownInlinedFun
   fun:UnknownInlinedFun
   fun:_ZN4llvm20initializeGlobalISelERNS_12PassRegistryE
   fun:LLVMInitializeAMDGPUTarget
   fun:ac_init_llvm_target
   fun:__pthread_once_slow
}
{
   <insert_a_suppression_name_here>
   Memcheck:Leak
   match-leak-kinds: reachable
   fun:_Znwm
   fun:UnknownInlinedFun
   fun:UnknownInlinedFun
   fun:allocateWithKey<llvm::MallocAllocator>
   fun:Create<llvm::MallocAllocator>
   fun:try_emplace<>
   fun:operator[]
   fun:_ZN4llvm12PassRegistry12registerPassERKNS_8PassInfoEb
   fun:_ZL36initializeAMDGPUDAGToDAGISelPassOnceRN4llvm12PassRegistryE.llvm.2974752516711511283
   fun:__pthread_once_slow
   fun:UnknownInlinedFun
   fun:UnknownInlinedFun
   fun:UnknownInlinedFun
   fun:UnknownInlinedFun
   fun:LLVMInitializeAMDGPUTarget
   fun:ac_init_llvm_target
   fun:__pthread_once_slow
   fun:si_init_compiler
   fun:radeonsi_screen_create_impl
   fun:amdgpu_winsys_create
   fun:radeonsi_screen_create
   fun:pipe_radeonsi_create_screen
}
{
   <insert_a_suppression_name_here>
   Memcheck:Leak
   match-leak-kinds: reachable
   fun:_Znwm
   fun:UnknownInlinedFun
   fun:UnknownInlinedFun
   fun:allocateWithKey<llvm::MallocAllocator>
   fun:Create<llvm::MallocAllocator>
   fun:try_emplace<>
   fun:operator[]
   fun:_ZN4llvm12PassRegistry12registerPassERKNS_8PassInfoEb
   fun:_ZL29initializeSlotIndexesPassOnceRN4llvm12PassRegistryE.llvm.212249288039861441
   fun:__pthread_once_slow
   fun:UnknownInlinedFun
   fun:UnknownInlinedFun
   fun:UnknownInlinedFun
   fun:UnknownInlinedFun
   fun:_ZL31initializeLiveIntervalsPassOnceRN4llvm12PassRegistryE.llvm.15981564654989006005
   fun:__pthread_once_slow
   fun:UnknownInlinedFun
   fun:UnknownInlinedFun
   fun:UnknownInlinedFun
   fun:UnknownInlinedFun
   fun:_ZL35initializeSILowerSGPRSpillsPassOnceRN4llvm12PassRegistryE.llvm.5111126068679622768
   fun:__pthread_once_slow
   fun:UnknownInlinedFun
   fun:UnknownInlinedFun
   fun:UnknownInlinedFun
   fun:UnknownInlinedFun
   fun:LLVMInitializeAMDGPUTarget
   fun:ac_init_llvm_target
   fun:__pthread_once_slow
   fun:si_init_compiler
}
{
   <insert_a_suppression_name_here>
   Memcheck:Leak
   match-leak-kinds: reachable
   fun:_Znwm
   fun:UnknownInlinedFun
   fun:UnknownInlinedFun
   fun:allocateWithKey<llvm::MallocAllocator>
   fun:Create<llvm::MallocAllocator>
   fun:try_emplace<>
   fun:operator[]
   fun:_ZN4llvm12PassRegistry12registerPassERKNS_8PassInfoEb
   fun:_ZL39initializeExternalAAWrapperPassPassOnceRN4llvm12PassRegistryE.llvm.3986720190912680915
   fun:__pthread_once_slow
   fun:UnknownInlinedFun
   fun:UnknownInlinedFun
   fun:UnknownInlinedFun
   fun:initializeExternalAAWrapperPassPass
   fun:_ZL38initializeAAResultsWrapperPassPassOnceRN4llvm12PassRegistryE.llvm.3986720190912680915
   fun:__pthread_once_slow
   fun:UnknownInlinedFun
   fun:UnknownInlinedFun
   fun:UnknownInlinedFun
   fun:UnknownInlinedFun
   fun:_ZL38initializeSILoadStoreOptimizerPassOnceRN4llvm12PassRegistryE.llvm.375695131650757695
   fun:__pthread_once_slow
   fun:UnknownInlinedFun
   fun:UnknownInlinedFun
   fun:UnknownInlinedFun
   fun:UnknownInlinedFun
   fun:LLVMInitializeAMDGPUTarget
   fun:ac_init_llvm_target
   fun:__pthread_once_slow
   fun:si_init_compiler
}
{
   <insert_a_suppression_name_here>
   Memcheck:Leak
   match-leak-kinds: reachable
   fun:_Znwm
   fun:UnknownInlinedFun
   fun:UnknownInlinedFun
   fun:allocateWithKey<llvm::MallocAllocator>
   fun:Create<llvm::MallocAllocator>
   fun:try_emplace<>
   fun:operator[]
   fun:_ZN4llvm12PassRegistry12registerPassERKNS_8PassInfoEb
   fun:_ZL38initializeObjCARCAAWrapperPassPassOnceRN4llvm12PassRegistryE.llvm.1687537194723590707
   fun:__pthread_once_slow
   fun:UnknownInlinedFun
   fun:UnknownInlinedFun
   fun:UnknownInlinedFun
   fun:UnknownInlinedFun
   fun:_ZL38initializeAAResultsWrapperPassPassOnceRN4llvm12PassRegistryE.llvm.3986720190912680915
   fun:__pthread_once_slow
   fun:UnknownInlinedFun
   fun:UnknownInlinedFun
   fun:UnknownInlinedFun
   fun:UnknownInlinedFun
   fun:_ZL38initializeSILoadStoreOptimizerPassOnceRN4llvm12PassRegistryE.llvm.375695131650757695
   fun:__pthread_once_slow
   fun:UnknownInlinedFun
   fun:UnknownInlinedFun
   fun:UnknownInlinedFun
   fun:UnknownInlinedFun
   fun:LLVMInitializeAMDGPUTarget
   fun:ac_init_llvm_target
   fun:__pthread_once_slow
   fun:si_init_compiler
}
{
   <insert_a_suppression_name_here>
   Memcheck:Leak
   match-leak-kinds: reachable
   fun:_Znwm
   fun:UnknownInlinedFun
   fun:UnknownInlinedFun
   fun:allocateWithKey<llvm::MallocAllocator>
   fun:Create<llvm::MallocAllocator, llvm::cl::Option *>
   fun:try_emplace<llvm::cl::Option *>
   fun:insert
   fun:_ZN12_GLOBAL__N_117CommandLineParser9addOptionEPN4llvm2cl6OptionEPNS2_10SubCommandE
   fun:_ZN12_GLOBAL__N_117CommandLineParser9addOptionEPN4llvm2cl6OptionEb.llvm.9260085712697943389
   fun:addArgument
   fun:done
   fun:opt<char[12], llvm::cl::desc, llvm::cl::LocationClass<(anonymous namespace)::HelpPrinterWrapper>, llvm::cl::OptionHidden, llvm::cl::ValueExpected, llvm::cl::cat, llvm::cl::sub>
   fun:CommandLineCommonOptions
   fun:_ZN4llvm14object_creatorIN12_GLOBAL__N_124CommandLineCommonOptionsEE4callEv
   fun:UnknownInlinedFun
   fun:operator*
   fun:_ZL17initCommonOptionsv
   fun:_ZN4llvm2cl23ParseCommandLineOptionsEiPKPKcNS_9StringRefEPNS_11raw_ostreamES2_b
   fun:LLVMParseCommandLineOptions
   fun:ac_init_llvm_target
   fun:__pthread_once_slow
   fun:si_init_compiler
   fun:radeonsi_screen_create_impl
   fun:amdgpu_winsys_create
}
{
   <insert_a_suppression_name_here>
   Memcheck:Leak
   match-leak-kinds: reachable
   fun:_Znwm
   fun:UnknownInlinedFun
   fun:UnknownInlinedFun
   fun:allocateWithKey<llvm::MallocAllocator>
   fun:Create<llvm::MallocAllocator, llvm::cl::Option *>
   fun:try_emplace<llvm::cl::Option *>
   fun:insert
   fun:_ZN12_GLOBAL__N_117CommandLineParser9addOptionEPN4llvm2cl6OptionEPNS2_10SubCommandE
   fun:_ZN12_GLOBAL__N_117CommandLineParser9addOptionEPN4llvm2cl6OptionEPNS2_10SubCommandE
   fun:_ZN12_GLOBAL__N_117CommandLineParser9addOptionEPN4llvm2cl6OptionEb.llvm.9260085712697943389
   fun:addArgument
   fun:done
   fun:opt<char[12], llvm::cl::desc, llvm::cl::LocationClass<(anonymous namespace)::HelpPrinterWrapper>, llvm::cl::OptionHidden, llvm::cl::ValueExpected, llvm::cl::cat, llvm::cl::sub>
   fun:CommandLineCommonOptions
   fun:_ZN4llvm14object_creatorIN12_GLOBAL__N_124CommandLineCommonOptionsEE4callEv
   fun:UnknownInlinedFun
   fun:operator*
   fun:_ZL17initCommonOptionsv
   fun:_ZN4llvm2cl23ParseCommandLineOptionsEiPKPKcNS_9StringRefEPNS_11raw_ostreamES2_b
   fun:LLVMParseCommandLineOptions
   fun:ac_init_llvm_target
   fun:__pthread_once_slow
   fun:si_init_compiler
   fun:radeonsi_screen_create_impl
}
{
   <insert_a_suppression_name_here>
   Memcheck:Leak
   match-leak-kinds: reachable
   fun:_Znwm
   fun:UnknownInlinedFun
   fun:UnknownInlinedFun
   fun:allocateWithKey<llvm::MallocAllocator>
   fun:Create<llvm::MallocAllocator, llvm::cl::Option *>
   fun:try_emplace<llvm::cl::Option *>
   fun:insert
   fun:_ZN12_GLOBAL__N_117CommandLineParser9addOptionEPN4llvm2cl6OptionEPNS2_10SubCommandE
   fun:_ZN4llvm2cl6Option11addArgumentEv
   fun:call
   fun:UnknownInlinedFun
   fun:operator*
   fun:_ZN4llvm16initTimerOptionsEv
   fun:_ZL17initCommonOptionsv
   fun:_ZN4llvm2cl23ParseCommandLineOptionsEiPKPKcNS_9StringRefEPNS_11raw_ostreamES2_b
   fun:LLVMParseCommandLineOptions
   fun:ac_init_llvm_target
   fun:__pthread_once_slow
   fun:si_init_compiler
   fun:radeonsi_screen_create_impl
   fun:amdgpu_winsys_create
}
{
   <insert_a_suppression_name_here>
   Memcheck:Leak
   match-leak-kinds: reachable
   fun:_Znwm
   fun:UnknownInlinedFun
   fun:UnknownInlinedFun
   fun:allocateWithKey<llvm::MallocAllocator>
   fun:Create<llvm::MallocAllocator>
   fun:try_emplace<>
   fun:operator[]
   fun:_ZN4llvm12PassRegistry12registerPassERKNS_8PassInfoEb
   fun:_ZL33initializeCFGSimplifyPassPassOnceRN4llvm12PassRegistryE.llvm.3876266718396890113
   fun:__pthread_once_slow
   fun:UnknownInlinedFun
   fun:UnknownInlinedFun
   fun:UnknownInlinedFun
   fun:initializeCFGSimplifyPassPass
   fun:_ZN12_GLOBAL__N_115CFGSimplifyPassC2EN4llvm18SimplifyCFGOptionsESt8functionIFbRKNS1_8FunctionEEE.llvm.3876266718396890113
   fun:UnknownInlinedFun
   fun:LLVMAddCFGSimplificationPass
   fun:ac_create_passmgr
   fun:ac_init_llvm_compiler
   fun:si_init_compiler
   fun:radeonsi_screen_create_impl
   fun:amdgpu_winsys_create
   fun:radeonsi_screen_create
   fun:pipe_radeonsi_create_screen
}
{
   <insert_a_suppression_name_here>
   Memcheck:Leak
   match-leak-kinds: reachable
   fun:_Znwm
   fun:UnknownInlinedFun
   fun:UnknownInlinedFun
   fun:allocateWithKey<llvm::MallocAllocator>
   fun:Create<llvm::MallocAllocator>
   fun:try_emplace<>
   fun:operator[]
   fun:_ZN4llvm12PassRegistry12registerPassERKNS_8PassInfoEb
   fun:_ZL42initializeInstructionCombiningPassPassOnceRN4llvm12PassRegistryE
   fun:__pthread_once_slow
   fun:UnknownInlinedFun
   fun:UnknownInlinedFun
   fun:UnknownInlinedFun
   fun:initializeInstructionCombiningPassPass
   fun:_ZN4llvm24InstructionCombiningPassC1Ev
   fun:createInstructionCombiningPass
   fun:LLVMAddInstructionCombiningPass
   fun:ac_create_passmgr
   fun:ac_init_llvm_compiler
   fun:si_init_compiler
   fun:radeonsi_screen_create_impl
   fun:amdgpu_winsys_create
   fun:radeonsi_screen_create
   fun:pipe_radeonsi_create_screen
}
{
   <insert_a_suppression_name_here>
   Memcheck:Leak
   match-leak-kinds: reachable
   fun:_Znwm
   fun:UnknownInlinedFun
   fun:UnknownInlinedFun
   fun:allocateWithKey<llvm::MallocAllocator>
   fun:Create<llvm::MallocAllocator>
   fun:try_emplace<>
   fun:operator[]
   fun:_ZN4llvm12PassRegistry12registerPassERKNS_8PassInfoEb
   fun:_ZL34initializeEarlyIfConverterPassOnceRN4llvm12PassRegistryE.llvm.1159289411237897446
   fun:__pthread_once_slow
   fun:UnknownInlinedFun
   fun:UnknownInlinedFun
   fun:UnknownInlinedFun
   fun:UnknownInlinedFun
   fun:_ZN4llvm17initializeCodeGenERNS_12PassRegistryE
   fun:_ZN4llvm16TargetPassConfigC1ERNS_17LLVMTargetMachineERNS_6legacy15PassManagerBaseE
   fun:AMDGPUPassConfig
   fun:GCNPassConfig
   fun:_ZN4llvm16GCNTargetMachine16createPassConfigERNS_6legacy15PassManagerBaseE
   fun:addPassesToGenerateCode
   fun:_ZN4llvm17LLVMTargetMachine19addPassesToEmitFileERNS_6legacy15PassManagerBaseERNS_17raw_pwrite_streamEPS4_NS_15CodeGenFileTypeEbPNS_28MachineModuleInfoWrapperPassE
   fun:ac_create_llvm_passes
   fun:si_init_compiler
   fun:radeonsi_screen_create_impl
   fun:amdgpu_winsys_create
}
{
   <insert_a_suppression_name_here>
   Memcheck:Leak
   match-leak-kinds: reachable
   fun:_Znwm
   fun:UnknownInlinedFun
   fun:UnknownInlinedFun
   fun:allocateWithKey<llvm::MallocAllocator>
   fun:Create<llvm::MallocAllocator>
   fun:try_emplace<>
   fun:operator[]
   fun:_ZN4llvm12PassRegistry12registerPassERKNS_8PassInfoEb
   fun:_ZL39initializeGCMachineCodeAnalysisPassOnceRN4llvm12PassRegistryE.llvm.18176761014626559949
   fun:__pthread_once_slow
   fun:UnknownInlinedFun
   fun:UnknownInlinedFun
   fun:UnknownInlinedFun
   fun:UnknownInlinedFun
   fun:_ZN4llvm17initializeCodeGenERNS_12PassRegistryE
   fun:_ZN4llvm16TargetPassConfigC1ERNS_17LLVMTargetMachineERNS_6legacy15PassManagerBaseE
   fun:AMDGPUPassConfig
   fun:GCNPassConfig
   fun:_ZN4llvm16GCNTargetMachine16createPassConfigERNS_6legacy15PassManagerBaseE
   fun:addPassesToGenerateCode
   fun:_ZN4llvm17LLVMTargetMachine19addPassesToEmitFileERNS_6legacy15PassManagerBaseERNS_17raw_pwrite_streamEPS4_NS_15CodeGenFileTypeEbPNS_28MachineModuleInfoWrapperPassE
   fun:ac_create_llvm_passes
   fun:si_init_compiler
   fun:radeonsi_screen_create_impl
   fun:amdgpu_winsys_create
}
{
   <insert_a_suppression_name_here>
   Memcheck:Leak
   match-leak-kinds: reachable
   fun:_Znwm
   fun:UnknownInlinedFun
   fun:UnknownInlinedFun
   fun:allocateWithKey<llvm::MallocAllocator>
   fun:Create<llvm::MallocAllocator>
   fun:try_emplace<>
   fun:operator[]
   fun:_ZN4llvm12PassRegistry12registerPassERKNS_8PassInfoEb
   fun:_ZL33initializeLowerIntrinsicsPassOnceRN4llvm12PassRegistryE.llvm.18176761014626559949
   fun:__pthread_once_slow
   fun:UnknownInlinedFun
   fun:UnknownInlinedFun
   fun:UnknownInlinedFun
   fun:UnknownInlinedFun
   fun:_ZN4llvm17initializeCodeGenERNS_12PassRegistryE
   fun:_ZN4llvm16TargetPassConfigC1ERNS_17LLVMTargetMachineERNS_6legacy15PassManagerBaseE
   fun:AMDGPUPassConfig
   fun:GCNPassConfig
   fun:_ZN4llvm16GCNTargetMachine16createPassConfigERNS_6legacy15PassManagerBaseE
   fun:addPassesToGenerateCode
   fun:_ZN4llvm17LLVMTargetMachine19addPassesToEmitFileERNS_6legacy15PassManagerBaseERNS_17raw_pwrite_streamEPS4_NS_15CodeGenFileTypeEbPNS_28MachineModuleInfoWrapperPassE
   fun:ac_create_llvm_passes
   fun:si_init_compiler
   fun:radeonsi_screen_create_impl
   fun:amdgpu_winsys_create
}
{
   <insert_a_suppression_name_here>
   Memcheck:Leak
   match-leak-kinds: reachable
   fun:_Znwm
   fun:UnknownInlinedFun
   fun:UnknownInlinedFun
   fun:allocateWithKey<llvm::MallocAllocator>
   fun:Create<llvm::MallocAllocator>
   fun:try_emplace<>
   fun:operator[]
   fun:_ZN4llvm12PassRegistry12registerPassERKNS_8PassInfoEb
   fun:_ZL28initializeMachineCSEPassOnceRN4llvm12PassRegistryE.llvm.5369617034185879466
   fun:__pthread_once_slow
   fun:UnknownInlinedFun
   fun:UnknownInlinedFun
   fun:UnknownInlinedFun
   fun:UnknownInlinedFun
   fun:_ZN4llvm17initializeCodeGenERNS_12PassRegistryE
   fun:_ZN4llvm16TargetPassConfigC1ERNS_17LLVMTargetMachineERNS_6legacy15PassManagerBaseE
   fun:AMDGPUPassConfig
   fun:GCNPassConfig
   fun:_ZN4llvm16GCNTargetMachine16createPassConfigERNS_6legacy15PassManagerBaseE
   fun:addPassesToGenerateCode
   fun:_ZN4llvm17LLVMTargetMachine19addPassesToEmitFileERNS_6legacy15PassManagerBaseERNS_17raw_pwrite_streamEPS4_NS_15CodeGenFileTypeEbPNS_28MachineModuleInfoWrapperPassE
   fun:ac_create_llvm_passes
   fun:si_init_compiler
   fun:radeonsi_screen_create_impl
   fun:amdgpu_winsys_create
}
{
   <insert_a_suppression_name_here>
   Memcheck:Leak
   match-leak-kinds: reachable
   fun:_Znwm
   fun:UnknownInlinedFun
   fun:UnknownInlinedFun
   fun:allocateWithKey<llvm::MallocAllocator>
   fun:Create<llvm::MallocAllocator>
   fun:try_emplace<>
   fun:operator[]
   fun:_ZN4llvm12PassRegistry12registerPassERKNS_8PassInfoEb
   fun:_ZL29initializeMachineLICMPassOnceRN4llvm12PassRegistryE.llvm.3567326872659631273
   fun:__pthread_once_slow
   fun:UnknownInlinedFun
   fun:UnknownInlinedFun
   fun:UnknownInlinedFun
   fun:UnknownInlinedFun
   fun:_ZN4llvm17initializeCodeGenERNS_12PassRegistryE
   fun:_ZN4llvm16TargetPassConfigC1ERNS_17LLVMTargetMachineERNS_6legacy15PassManagerBaseE
   fun:AMDGPUPassConfig
   fun:GCNPassConfig
   fun:_ZN4llvm16GCNTargetMachine16createPassConfigERNS_6legacy15PassManagerBaseE
   fun:addPassesToGenerateCode
   fun:_ZN4llvm17LLVMTargetMachine19addPassesToEmitFileERNS_6legacy15PassManagerBaseERNS_17raw_pwrite_streamEPS4_NS_15CodeGenFileTypeEbPNS_28MachineModuleInfoWrapperPassE
   fun:ac_create_llvm_passes
   fun:si_init_compiler
   fun:radeonsi_screen_create_impl
   fun:amdgpu_winsys_create
}
{
   <insert_a_suppression_name_here>
   Memcheck:Leak
   match-leak-kinds: reachable
   fun:_Znwm
   fun:UnknownInlinedFun
   fun:UnknownInlinedFun
   fun:allocateWithKey<llvm::MallocAllocator>
   fun:Create<llvm::MallocAllocator>
   fun:try_emplace<>
   fun:operator[]
   fun:_ZN4llvm12PassRegistry12registerPassERKNS_8PassInfoEb
   fun:_ZL38initializePostMachineSchedulerPassOnceRN4llvm12PassRegistryE.llvm.15025884112590134657
   fun:__pthread_once_slow
   fun:UnknownInlinedFun
   fun:UnknownInlinedFun
   fun:UnknownInlinedFun
   fun:UnknownInlinedFun
   fun:_ZN4llvm17initializeCodeGenERNS_12PassRegistryE
   fun:_ZN4llvm16TargetPassConfigC1ERNS_17LLVMTargetMachineERNS_6legacy15PassManagerBaseE
   fun:AMDGPUPassConfig
   fun:GCNPassConfig
   fun:_ZN4llvm16GCNTargetMachine16createPassConfigERNS_6legacy15PassManagerBaseE
   fun:addPassesToGenerateCode
   fun:_ZN4llvm17LLVMTargetMachine19addPassesToEmitFileERNS_6legacy15PassManagerBaseERNS_17raw_pwrite_streamEPS4_NS_15CodeGenFileTypeEbPNS_28MachineModuleInfoWrapperPassE
   fun:ac_create_llvm_passes
   fun:si_init_compiler
   fun:radeonsi_screen_create_impl
   fun:amdgpu_winsys_create
}
{
   <insert_a_suppression_name_here>
   Memcheck:Leak
   match-leak-kinds: reachable
   fun:_Znwm
   fun:UnknownInlinedFun
   fun:UnknownInlinedFun
   fun:allocateWithKey<llvm::MallocAllocator>
   fun:Create<llvm::MallocAllocator>
   fun:try_emplace<>
   fun:operator[]
   fun:_ZN4llvm12PassRegistry12registerPassERKNS_8PassInfoEb
   fun:_ZL28initializeShrinkWrapPassOnceRN4llvm12PassRegistryE.llvm.17046189255283361462
   fun:__pthread_once_slow
   fun:UnknownInlinedFun
   fun:UnknownInlinedFun
   fun:UnknownInlinedFun
   fun:UnknownInlinedFun
   fun:_ZN4llvm17initializeCodeGenERNS_12PassRegistryE
   fun:_ZN4llvm16TargetPassConfigC1ERNS_17LLVMTargetMachineERNS_6legacy15PassManagerBaseE
   fun:AMDGPUPassConfig
   fun:GCNPassConfig
   fun:_ZN4llvm16GCNTargetMachine16createPassConfigERNS_6legacy15PassManagerBaseE
   fun:addPassesToGenerateCode
   fun:_ZN4llvm17LLVMTargetMachine19addPassesToEmitFileERNS_6legacy15PassManagerBaseERNS_17raw_pwrite_streamEPS4_NS_15CodeGenFileTypeEbPNS_28MachineModuleInfoWrapperPassE
   fun:ac_create_llvm_passes
   fun:si_init_compiler
   fun:radeonsi_screen_create_impl
   fun:amdgpu_winsys_create
}
{
   <insert_a_suppression_name_here>
   Memcheck:Leak
   match-leak-kinds: reachable
   fun:_Znwm
   fun:UnknownInlinedFun
   fun:UnknownInlinedFun
   fun:allocateWithKey<llvm::MallocAllocator>
   fun:Create<llvm::MallocAllocator>
   fun:try_emplace<>
   fun:operator[]
   fun:_ZN4llvm12PassRegistry12registerPassERKNS_8PassInfoEb
   fun:_ZL36initializeLoopStrengthReducePassOnceRN4llvm12PassRegistryE.llvm.4850396139564495129
   fun:__pthread_once_slow
   fun:UnknownInlinedFun
   fun:UnknownInlinedFun
   fun:UnknownInlinedFun
   fun:initializeLoopStrengthReducePass
   fun:LoopStrengthReduce
   fun:_ZN4llvm28createLoopStrengthReducePassEv
   fun:_ZN4llvm16TargetPassConfig11addIRPassesEv
   fun:_ZN4llvm16AMDGPUPassConfig11addIRPassesEv
   fun:_ZN4llvm16TargetPassConfig13addISelPassesEv
   fun:addPassesToGenerateCode
   fun:_ZN4llvm17LLVMTargetMachine19addPassesToEmitFileERNS_6legacy15PassManagerBaseERNS_17raw_pwrite_streamEPS4_NS_15CodeGenFileTypeEbPNS_28MachineModuleInfoWrapperPassE
   fun:ac_create_llvm_passes
   fun:si_init_compiler
   fun:radeonsi_screen_create_impl
}
{
   <insert_a_suppression_name_here>
   Memcheck:Leak
   match-leak-kinds: reachable
   fun:_Znwm
   fun:UnknownInlinedFun
   fun:UnknownInlinedFun
   fun:allocateWithKey<llvm::MallocAllocator>
   fun:Create<llvm::MallocAllocator>
   fun:try_emplace<>
   fun:operator[]
   fun:_ZN4llvm12PassRegistry12registerPassERKNS_8PassInfoEb
   fun:_ZL39initializeLowerSwitchLegacyPassPassOnceRN4llvm12PassRegistryE.llvm.6148004359874052647
   fun:__pthread_once_slow
   fun:UnknownInlinedFun
   fun:UnknownInlinedFun
   fun:UnknownInlinedFun
   fun:initializeLowerSwitchLegacyPassPass
   fun:LowerSwitchLegacyPass
   fun:_ZN4llvm21createLowerSwitchPassEv
   fun:_ZN4llvm16AMDGPUPassConfig17addCodeGenPrepareEv
   fun:_ZN4llvm16TargetPassConfig13addISelPassesEv
   fun:addPassesToGenerateCode
   fun:_ZN4llvm17LLVMTargetMachine19addPassesToEmitFileERNS_6legacy15PassManagerBaseERNS_17raw_pwrite_streamEPS4_NS_15CodeGenFileTypeEbPNS_28MachineModuleInfoWrapperPassE
   fun:ac_create_llvm_passes
   fun:si_init_compiler
   fun:radeonsi_screen_create_impl
   fun:amdgpu_winsys_create
}
{
   <insert_a_suppression_name_here>
   Memcheck:Leak
   match-leak-kinds: reachable
   fun:_Znwm
   fun:UnknownInlinedFun
   fun:UnknownInlinedFun
   fun:allocateWithKey<llvm::MallocAllocator>
   fun:Create<llvm::MallocAllocator>
   fun:try_emplace<>
   fun:operator[]
   fun:_ZN4llvm12PassRegistry12registerPassERKNS_8PassInfoEb
   fun:_ZL39initializeLowerInvokeLegacyPassPassOnceRN4llvm12PassRegistryE.llvm.1281099428731623617
   fun:__pthread_once_slow
   fun:UnknownInlinedFun
   fun:UnknownInlinedFun
   fun:UnknownInlinedFun
   fun:initializeLowerInvokeLegacyPassPass
   fun:LowerInvokeLegacyPass
   fun:_ZN4llvm21createLowerInvokePassEv
   fun:_ZN4llvm16TargetPassConfig27addPassesToHandleExceptionsEv
   fun:_ZN4llvm16TargetPassConfig13addISelPassesEv
   fun:addPassesToGenerateCode
   fun:_ZN4llvm17LLVMTargetMachine19addPassesToEmitFileERNS_6legacy15PassManagerBaseERNS_17raw_pwrite_streamEPS4_NS_15CodeGenFileTypeEbPNS_28MachineModuleInfoWrapperPassE
   fun:ac_create_llvm_passes
   fun:si_init_compiler
   fun:radeonsi_screen_create_impl
   fun:amdgpu_winsys_create
}
{
   <insert_a_suppression_name_here>
   Memcheck:Leak
   match-leak-kinds: reachable
   fun:_Znwm
   fun:UnknownInlinedFun
   fun:UnknownInlinedFun
   fun:allocateWithKey<llvm::MallocAllocator>
   fun:Create<llvm::MallocAllocator>
   fun:try_emplace<>
   fun:operator[]
   fun:_ZN4llvm12PassRegistry12registerPassERKNS_8PassInfoEb
   fun:_ZL46initializeDominanceFrontierWrapperPassPassOnceRN4llvm12PassRegistryE.llvm.17821367241064483345
   fun:__pthread_once_slow
   fun:UnknownInlinedFun
   fun:UnknownInlinedFun
   fun:UnknownInlinedFun
   fun:UnknownInlinedFun
   fun:_ZL32initializeRegionInfoPassPassOnceRN4llvm12PassRegistryE.llvm.11416703369176574243
   fun:__pthread_once_slow
   fun:UnknownInlinedFun
   fun:UnknownInlinedFun
   fun:UnknownInlinedFun
   fun:UnknownInlinedFun
   fun:_ZL42initializeStructurizeCFGLegacyPassPassOnceRN4llvm12PassRegistryE.llvm.5155288106195394348
   fun:__pthread_once_slow
   fun:UnknownInlinedFun
   fun:UnknownInlinedFun
   fun:UnknownInlinedFun
   fun:initializeStructurizeCFGLegacyPassPass
   fun:StructurizeCFGLegacyPass
   fun:_ZN4llvm24createStructurizeCFGPassEb
   fun:_ZN12_GLOBAL__N_113GCNPassConfig10addPreISelEv
   fun:_ZN4llvm16TargetPassConfig14addISelPrepareEv
   fun:_ZN4llvm16TargetPassConfig13addISelPassesEv
}
{
   <insert_a_suppression_name_here>
   Memcheck:Leak
   match-leak-kinds: reachable
   fun:_Znwm
   fun:UnknownInlinedFun
   fun:UnknownInlinedFun
   fun:allocateWithKey<llvm::MallocAllocator>
   fun:Create<llvm::MallocAllocator, llvm::cl::Option *>
   fun:try_emplace<llvm::cl::Option *>
   fun:insert
   fun:_ZN12_GLOBAL__N_117CommandLineParser9addOptionEPN4llvm2cl6OptionEPNS2_10SubCommandE
   fun:_ZN4llvm2cl6Option11addArgumentEv
   fun:UnknownInlinedFun
   fun:_GLOBAL__sub_I_DIBuilder.cpp
   fun:call_init
   fun:call_init
   fun:_dl_init
   fun:_dl_catch_exception
   fun:dl_open_worker
   fun:_dl_catch_exception
   fun:_dl_open
   fun:dlopen_doit
   fun:_dl_catch_exception
}
{
   <insert_a_suppression_name_here>
   Memcheck:Leak
   match-leak-kinds: reachable
   fun:_Znwm
   fun:UnknownInlinedFun
   fun:UnknownInlinedFun
   fun:allocateWithKey<llvm::MallocAllocator>
   fun:Create<llvm::MallocAllocator, llvm::cl::Option *>
   fun:try_emplace<llvm::cl::Option *>
   fun:insert
   fun:_ZN12_GLOBAL__N_117CommandLineParser9addOptionEPN4llvm2cl6OptionEPNS2_10SubCommandE
   fun:_ZN4llvm2cl6Option11addArgumentEv
   fun:done
   fun:opt<char[13], llvm::cl::value_desc, llvm::cl::desc, llvm::cl::OptionHidden, llvm::cl::LocationClass<(anonymous namespace)::PassRemarksOpt>, llvm::cl::ValueExpected>
   fun:UnknownInlinedFun
   fun:_GLOBAL__sub_I_DiagnosticHandler.cpp
   fun:call_init
   fun:call_init
   fun:_dl_init
   fun:_dl_catch_exception
   fun:dl_open_worker
   fun:_dl_catch_exception
   fun:_dl_open
   fun:dlopen_doit
   fun:_dl_catch_exception
}
{
   <insert_a_suppression_name_here>
   Memcheck:Leak
   match-leak-kinds: reachable
   fun:_Znwm
   fun:UnknownInlinedFun
   fun:UnknownInlinedFun
   fun:allocateWithKey<llvm::MallocAllocator>
   fun:Create<llvm::MallocAllocator, llvm::cl::Option *>
   fun:try_emplace<llvm::cl::Option *>
   fun:insert
   fun:_ZN12_GLOBAL__N_117CommandLineParser9addOptionEPN4llvm2cl6OptionEPNS2_10SubCommandE
   fun:_ZN4llvm2cl6Option11addArgumentEv
   fun:done
   fun:list<char[13], llvm::cl::desc, llvm::cl::MiscFlags, llvm::cl::OptionHidden>
   fun:UnknownInlinedFun
   fun:_GLOBAL__sub_I_PrintPasses.cpp
   fun:call_init
   fun:call_init
   fun:_dl_init
   fun:_dl_catch_exception
   fun:dl_open_worker
   fun:_dl_catch_exception
   fun:_dl_open
   fun:dlopen_doit
   fun:_dl_catch_exception
}
{
   <insert_a_suppression_name_here>
   Memcheck:Leak
   match-leak-kinds: reachable
   fun:_Znwm
   fun:UnknownInlinedFun
   fun:UnknownInlinedFun
   fun:allocateWithKey<llvm::MallocAllocator>
   fun:Create<llvm::MallocAllocator, llvm::cl::Option *>
   fun:try_emplace<llvm::cl::Option *>
   fun:insert
   fun:_ZN12_GLOBAL__N_117CommandLineParser9addOptionEPN4llvm2cl6OptionEPNS2_10SubCommandE
   fun:_ZN4llvm2cl6Option11addArgumentEv
   fun:UnknownInlinedFun
   fun:_GLOBAL__sub_I_MachineScheduler.cpp
   fun:call_init
   fun:call_init
   fun:_dl_init
   fun:_dl_catch_exception
   fun:dl_open_worker
   fun:_dl_catch_exception
   fun:_dl_open
   fun:dlopen_doit
   fun:_dl_catch_exception
}
{
   <insert_a_suppression_name_here>
   Memcheck:Leak
   match-leak-kinds: reachable
   fun:_Znwm
   fun:UnknownInlinedFun
   fun:UnknownInlinedFun
   fun:allocateWithKey<llvm::MallocAllocator>
   fun:Create<llvm::MallocAllocator, llvm::cl::Option *>
   fun:try_emplace<llvm::cl::Option *>
   fun:insert
   fun:_ZN12_GLOBAL__N_117CommandLineParser9addOptionEPN4llvm2cl6OptionEPNS2_10SubCommandE
   fun:_ZN4llvm2cl6Option11addArgumentEv
   fun:UnknownInlinedFun
   fun:_GLOBAL__sub_I_MIRPrinter.cpp
   fun:call_init
   fun:call_init
   fun:_dl_init
   fun:_dl_catch_exception
   fun:dl_open_worker
   fun:_dl_catch_exception
   fun:_dl_open
   fun:dlopen_doit
   fun:_dl_catch_exception
}
{
   <insert_a_suppression_name_here>
   Memcheck:Leak
   match-leak-kinds: reachable
   fun:_Znwm
   fun:UnknownInlinedFun
   fun:UnknownInlinedFun
   fun:allocateWithKey<llvm::MallocAllocator>
   fun:Create<llvm::MallocAllocator, llvm::cl::Option *>
   fun:try_emplace<llvm::cl::Option *>
   fun:insert
   fun:_ZN12_GLOBAL__N_117CommandLineParser9addOptionEPN4llvm2cl6OptionEPNS2_10SubCommandE
   fun:_ZN4llvm2cl6Option11addArgumentEv
   fun:__cxx_global_var_init.150
   fun:_GLOBAL__sub_I_TargetPassConfig.cpp
   fun:call_init
   fun:call_init
   fun:_dl_init
   fun:_dl_catch_exception
   fun:dl_open_worker
   fun:_dl_catch_exception
   fun:_dl_open
   fun:dlopen_doit
   fun:_dl_catch_exception
}
{
   <insert_a_suppression_name_here>
   Memcheck:Leak
   match-leak-kinds: reachable
   fun:_Znwm
   fun:UnknownInlinedFun
   fun:UnknownInlinedFun
   fun:allocateWithKey<llvm::MallocAllocator>
   fun:Create<llvm::MallocAllocator, llvm::cl::Option *>
   fun:try_emplace<llvm::cl::Option *>
   fun:insert
   fun:_ZN12_GLOBAL__N_117CommandLineParser9addOptionEPN4llvm2cl6OptionEPNS2_10SubCommandE
   fun:_ZN4llvm2cl6Option11addArgumentEv
   fun:done
   fun:opt<char[13], llvm::cl::initializer<llvm::ScheduleDAGSDNodes *(*)(llvm::SelectionDAGISel *, llvm::CodeGenOpt::Level)>, llvm::cl::OptionHidden, llvm::cl::desc>
   fun:UnknownInlinedFun
   fun:_GLOBAL__sub_I_SelectionDAGISel.cpp
   fun:call_init
   fun:call_init
   fun:_dl_init
   fun:_dl_catch_exception
   fun:dl_open_worker
   fun:_dl_catch_exception
   fun:_dl_open
   fun:dlopen_doit
   fun:_dl_catch_exception
}
{
   <insert_a_suppression_name_here>
   Memcheck:Leak
   match-leak-kinds: reachable
   fun:_Znwm
   fun:UnknownInlinedFun
   fun:UnknownInlinedFun
   fun:allocateWithKey<llvm::MallocAllocator>
   fun:Create<llvm::MallocAllocator, llvm::cl::Option *>
   fun:try_emplace<llvm::cl::Option *>
   fun:insert
   fun:_ZN12_GLOBAL__N_117CommandLineParser9addOptionEPN4llvm2cl6OptionEPNS2_10SubCommandE
   fun:_ZN4llvm2cl6Option11addArgumentEv
   fun:done
   fun:opt<char[13], llvm::cl::OptionHidden, llvm::cl::desc, llvm::cl::ValuesClass, llvm::cl::initializer<llvm::AccelTableKind> >
   fun:UnknownInlinedFun
   fun:_GLOBAL__sub_I_DwarfDebug.cpp
   fun:call_init
   fun:call_init
   fun:_dl_init
   fun:_dl_catch_exception
   fun:dl_open_worker
   fun:_dl_catch_exception
   fun:_dl_open
   fun:dlopen_doit
   fun:_dl_catch_exception
}
{
   <insert_a_suppression_name_here>
   Memcheck:Leak
   match-leak-kinds: reachable
   fun:_Znwm
   fun:UnknownInlinedFun
   fun:UnknownInlinedFun
   fun:allocateWithKey<llvm::MallocAllocator>
   fun:Create<llvm::MallocAllocator, llvm::cl::Option *>
   fun:try_emplace<llvm::cl::Option *>
   fun:insert
   fun:_ZN12_GLOBAL__N_117CommandLineParser9addOptionEPN4llvm2cl6OptionEPNS2_10SubCommandE
   fun:_ZN4llvm2cl6Option11addArgumentEv
   fun:__cxx_global_var_init.59
   fun:_GLOBAL__sub_I_AddressSanitizer.cpp
   fun:call_init
   fun:call_init
   fun:_dl_init
   fun:_dl_catch_exception
   fun:dl_open_worker
   fun:_dl_catch_exception
   fun:_dl_open
   fun:dlopen_doit
   fun:_dl_catch_exception
}
{
   <insert_a_suppression_name_here>
   Memcheck:Leak
   match-leak-kinds: reachable
   fun:_Znwm
   fun:UnknownInlinedFun
   fun:UnknownInlinedFun
   fun:allocateWithKey<llvm::MallocAllocator>
   fun:Create<llvm::MallocAllocator, llvm::cl::Option *>
   fun:try_emplace<llvm::cl::Option *>
   fun:insert
   fun:_ZN12_GLOBAL__N_117CommandLineParser9addOptionEPN4llvm2cl6OptionEPNS2_10SubCommandE
   fun:_ZN4llvm2cl6Option11addArgumentEv
   fun:__cxx_global_var_init.34
   fun:_GLOBAL__sub_I_IndVarSimplify.cpp
   fun:call_init
   fun:call_init
   fun:_dl_init
   fun:_dl_catch_exception
   fun:dl_open_worker
   fun:_dl_catch_exception
   fun:_dl_open
   fun:dlopen_doit
   fun:_dl_catch_exception
}
{
   <insert_a_suppression_name_here>
   Memcheck:Leak
   match-leak-kinds: reachable
   fun:_Znwm
   fun:UnknownInlinedFun
   fun:UnknownInlinedFun
   fun:allocateWithKey<llvm::MallocAllocator>
   fun:Create<llvm::MallocAllocator, llvm::cl::Option *>
   fun:try_emplace<llvm::cl::Option *>
   fun:insert
   fun:_ZN12_GLOBAL__N_117CommandLineParser9addOptionEPN4llvm2cl6OptionEPNS2_10SubCommandE
   fun:_ZN4llvm2cl6Option11addArgumentEv
   fun:done
   fun:opt<char[13], llvm::cl::OptionHidden, llvm::cl::desc>
   fun:UnknownInlinedFun
   fun:_GLOBAL__sub_I_LoopUnrollPass.cpp
   fun:call_init
   fun:call_init
   fun:_dl_init
   fun:_dl_catch_exception
   fun:dl_open_worker
   fun:_dl_catch_exception
   fun:_dl_open
   fun:dlopen_doit
   fun:_dl_catch_exception
}
{
   <insert_a_suppression_name_here>
   Memcheck:Leak
   match-leak-kinds: reachable
   fun:_Znwm
   fun:UnknownInlinedFun
   fun:UnknownInlinedFun
   fun:allocateWithKey<llvm::MallocAllocator>
   fun:Create<llvm::MallocAllocator, llvm::cl::Option *>
   fun:try_emplace<llvm::cl::Option *>
   fun:insert
   fun:_ZN12_GLOBAL__N_117CommandLineParser9addOptionEPN4llvm2cl6OptionEPNS2_10SubCommandE
   fun:_ZN4llvm2cl6Option11addArgumentEv
   fun:done
   fun:opt<char[13], llvm::cl::OptionHidden, llvm::cl::initializer<bool> >
   fun:UnknownInlinedFun
   fun:_GLOBAL__sub_I_PlaceSafepoints.cpp
   fun:call_init
   fun:call_init
   fun:_dl_init
   fun:_dl_catch_exception
   fun:dl_open_worker
   fun:_dl_catch_exception
   fun:_dl_open
   fun:dlopen_doit
   fun:_dl_catch_exception
}
{
   <insert_a_suppression_name_here>
   Memcheck:Leak
   match-leak-kinds: reachable
   fun:_Znwm
   fun:UnknownInlinedFun
   fun:UnknownInlinedFun
   fun:allocateWithKey<llvm::MallocAllocator>
   fun:Create<llvm::MallocAllocator, llvm::cl::Option *>
   fun:try_emplace<llvm::cl::Option *>
   fun:insert
   fun:_ZN12_GLOBAL__N_117CommandLineParser9addOptionEPN4llvm2cl6OptionEPNS2_10SubCommandE
   fun:_ZN4llvm2cl6Option11addArgumentEv
   fun:__cxx_global_var_init.59
   fun:_GLOBAL__sub_I_FunctionImport.cpp
   fun:call_init
   fun:call_init
   fun:_dl_init
   fun:_dl_catch_exception
   fun:dl_open_worker
   fun:_dl_catch_exception
   fun:_dl_open
   fun:dlopen_doit
   fun:_dl_catch_exception
}
{
   <insert_a_suppression_name_here>
   Memcheck:Leak
   match-leak-kinds: reachable
   fun:_Znwm
   fun:UnknownInlinedFun
   fun:UnknownInlinedFun
   fun:allocateWithKey<llvm::MallocAllocator>
   fun:Create<llvm::MallocAllocator, llvm::cl::Option *>
   fun:try_emplace<llvm::cl::Option *>
   fun:insert
   fun:_ZN12_GLOBAL__N_117CommandLineParser9addOptionEPN4llvm2cl6OptionEPNS2_10SubCommandE
   fun:_ZN4llvm2cl6Option11addArgumentEv
   fun:done
   fun:opt<char[13], llvm::cl::desc>
   fun:__cxx_global_var_init.65
   fun:_GLOBAL__sub_I_FunctionImport.cpp
   fun:call_init
   fun:call_init
   fun:_dl_init
   fun:_dl_catch_exception
   fun:dl_open_worker
   fun:_dl_catch_exception
   fun:_dl_open
   fun:dlopen_doit
   fun:_dl_catch_exception
}
{
   <insert_a_suppression_name_here>
   Memcheck:Leak
   match-leak-kinds: reachable
   fun:_Znwm
   fun:UnknownInlinedFun
   fun:UnknownInlinedFun
   fun:allocateWithKey<llvm::MallocAllocator>
   fun:Create<llvm::MallocAllocator, llvm::cl::Option *>
   fun:try_emplace<llvm::cl::Option *>
   fun:insert
   fun:_ZN12_GLOBAL__N_117CommandLineParser9addOptionEPN4llvm2cl6OptionEPNS2_10SubCommandE
   fun:_ZN4llvm2cl6Option11addArgumentEv
   fun:done
   fun:opt<char[13], llvm::cl::OptionHidden>
   fun:UnknownInlinedFun
   fun:_GLOBAL__sub_I_AliasAnalysisEvaluator.cpp
   fun:call_init
   fun:call_init
   fun:_dl_init
   fun:_dl_catch_exception
   fun:dl_open_worker
   fun:_dl_catch_exception
   fun:_dl_open
   fun:dlopen_doit
   fun:_dl_catch_exception
}
{
   <insert_a_suppression_name_here>
   Memcheck:Leak
   match-leak-kinds: reachable
   fun:_Znwm
   fun:UnknownInlinedFun
   fun:UnknownInlinedFun
   fun:allocateWithKey<llvm::MallocAllocator>
   fun:Create<llvm::MallocAllocator, llvm::cl::Option *>
   fun:try_emplace<llvm::cl::Option *>
   fun:insert
   fun:_ZN12_GLOBAL__N_117CommandLineParser9addOptionEPN4llvm2cl6OptionEPNS2_10SubCommandE
   fun:_ZN4llvm2cl6Option11addArgumentEv
   fun:UnknownInlinedFun
   fun:_GLOBAL__sub_I_DDG.cpp
   fun:call_init
   fun:call_init
   fun:_dl_init
   fun:_dl_catch_exception
   fun:dl_open_worker
   fun:_dl_catch_exception
   fun:_dl_open
   fun:dlopen_doit
   fun:_dl_catch_exception
}
{
   <insert_a_suppression_name_here>
   Memcheck:Leak
   match-leak-kinds: reachable
   fun:_Znwm
   fun:UnknownInlinedFun
   fun:UnknownInlinedFun
   fun:allocateWithKey<llvm::MallocAllocator>
   fun:Create<llvm::MallocAllocator, llvm::cl::Option *>
   fun:try_emplace<llvm::cl::Option *>
   fun:insert
   fun:_ZN12_GLOBAL__N_117CommandLineParser9addOptionEPN4llvm2cl6OptionEPNS2_10SubCommandE
   fun:_ZN4llvm2cl6Option11addArgumentEv
   fun:UnknownInlinedFun
   fun:_GLOBAL__sub_I_DDGPrinter.cpp
   fun:call_init
   fun:call_init
   fun:_dl_init
   fun:_dl_catch_exception
   fun:dl_open_worker
   fun:_dl_catch_exception
   fun:_dl_open
   fun:dlopen_doit
   fun:_dl_catch_exception
}
{
   <insert_a_suppression_name_here>
   Memcheck:Leak
   match-leak-kinds: reachable
   fun:_Znwm
   fun:UnknownInlinedFun
   fun:UnknownInlinedFun
   fun:allocateWithKey<llvm::MallocAllocator>
   fun:Create<llvm::MallocAllocator, llvm::cl::Option *>
   fun:try_emplace<llvm::cl::Option *>
   fun:insert
   fun:_ZN12_GLOBAL__N_117CommandLineParser9addOptionEPN4llvm2cl6OptionEPNS2_10SubCommandE
   fun:_ZN4llvm2cl6Option11addArgumentEv
   fun:done
   fun:opt<char[13], llvm::cl::initializer<int>, llvm::cl::OptionHidden, llvm::cl::desc>
   fun:UnknownInlinedFun
   fun:_GLOBAL__sub_I_IndirectCallPromotionAnalysis.cpp
   fun:call_init
   fun:call_init
   fun:_dl_init
   fun:_dl_catch_exception
   fun:dl_open_worker
   fun:_dl_catch_exception
   fun:_dl_open
   fun:dlopen_doit
   fun:_dl_catch_exception
}
{
   <insert_a_suppression_name_here>
   Memcheck:Leak
   match-leak-kinds: reachable
   fun:_Znwm
   fun:UnknownInlinedFun
   fun:UnknownInlinedFun
   fun:allocateWithKey<llvm::MallocAllocator>
   fun:Create<llvm::MallocAllocator, llvm::cl::Option *>
   fun:try_emplace<llvm::cl::Option *>
   fun:insert
   fun:_ZN12_GLOBAL__N_117CommandLineParser9addOptionEPN4llvm2cl6OptionEPNS2_10SubCommandE
   fun:_ZN4llvm2cl6Option11addArgumentEv
   fun:done
   fun:opt<char[13], llvm::cl::value_desc, llvm::cl::desc, llvm::cl::initializer<char[1]> >
   fun:UnknownInlinedFun
   fun:_GLOBAL__sub_I_MemorySSA.cpp
   fun:call_init
   fun:call_init
   fun:_dl_init
   fun:_dl_catch_exception
   fun:dl_open_worker
   fun:_dl_catch_exception
   fun:_dl_open
   fun:dlopen_doit
   fun:_dl_catch_exception
}
{
   <insert_a_suppression_name_here>
   Memcheck:Leak
   match-leak-kinds: reachable
   fun:_Znwm
   fun:UnknownInlinedFun
   fun:UnknownInlinedFun
   fun:allocateWithKey<llvm::MallocAllocator>
   fun:Create<llvm::MallocAllocator, llvm::cl::Option *>
   fun:try_emplace<llvm::cl::Option *>
   fun:insert
   fun:_ZN12_GLOBAL__N_117CommandLineParser9addOptionEPN4llvm2cl6OptionEPNS2_10SubCommandE
   fun:_ZN4llvm2cl6Option11addArgumentEv
   fun:done
   fun:opt<char[13], llvm::cl::initializer<unsigned int>, llvm::cl::OptionHidden>
   fun:UnknownInlinedFun
   fun:_GLOBAL__sub_I_MLxExpansionPass.cpp
   fun:call_init
   fun:call_init
   fun:_dl_init
   fun:_dl_catch_exception
   fun:dl_open_worker
   fun:_dl_catch_exception
   fun:_dl_open
   fun:dlopen_doit
   fun:_dl_catch_exception
}
{
   <insert_a_suppression_name_here>
   Memcheck:Leak
   match-leak-kinds: reachable
   fun:_Znwm
   fun:UnknownInlinedFun
   fun:UnknownInlinedFun
   fun:allocateWithKey<llvm::MallocAllocator>
   fun:Create<llvm::MallocAllocator, llvm::cl::Option *>
   fun:try_emplace<llvm::cl::Option *>
   fun:insert
   fun:_ZN12_GLOBAL__N_117CommandLineParser9addOptionEPN4llvm2cl6OptionEPNS2_10SubCommandE
   fun:_ZN4llvm2cl6Option11addArgumentEv
   fun:done
   fun:opt<char[13], llvm::cl::initializer<bool>, llvm::cl::OptionHidden>
   fun:UnknownInlinedFun
   fun:_GLOBAL__sub_I_HexagonGenInsert.cpp
   fun:call_init
   fun:call_init
   fun:_dl_init
   fun:_dl_catch_exception
   fun:dl_open_worker
   fun:_dl_catch_exception
   fun:_dl_open
   fun:dlopen_doit
   fun:_dl_catch_exception
}
{
   <insert_a_suppression_name_here>
   Memcheck:Leak
   match-leak-kinds: reachable
   fun:_Znwm
   fun:UnknownInlinedFun
   fun:UnknownInlinedFun
   fun:allocateWithKey<llvm::MallocAllocator>
   fun:Create<llvm::MallocAllocator, llvm::cl::Option *>
   fun:try_emplace<llvm::cl::Option *>
   fun:insert
   fun:_ZN12_GLOBAL__N_117CommandLineParser9addOptionEPN4llvm2cl6OptionEPNS2_10SubCommandE
   fun:_ZN4llvm2cl6Option11addArgumentEv
   fun:UnknownInlinedFun
   fun:_GLOBAL__sub_I_HexagonTargetObjectFile.cpp
   fun:call_init
   fun:call_init
   fun:_dl_init
   fun:_dl_catch_exception
   fun:dl_open_worker
   fun:_dl_catch_exception
   fun:_dl_open
   fun:dlopen_doit
   fun:_dl_catch_exception
}
{
   <insert_a_suppression_name_here>
   Memcheck:Leak
   match-leak-kinds: reachable
   fun:_Znwm
   fun:UnknownInlinedFun
   fun:UnknownInlinedFun
   fun:allocateWithKey<llvm::MallocAllocator>
   fun:Create<llvm::MallocAllocator, llvm::cl::Option *>
   fun:try_emplace<llvm::cl::Option *>
   fun:insert
   fun:_ZN12_GLOBAL__N_117CommandLineParser9addOptionEPN4llvm2cl6OptionEPNS2_10SubCommandE
   fun:_ZN4llvm2cl6Option11addArgumentEv
   fun:__cxx_global_var_init.131
   fun:_GLOBAL__sub_I_HexagonMCTargetDesc.cpp
   fun:call_init
   fun:call_init
   fun:_dl_init
   fun:_dl_catch_exception
   fun:dl_open_worker
   fun:_dl_catch_exception
   fun:_dl_open
   fun:dlopen_doit
   fun:_dl_catch_exception
}
{
   <insert_a_suppression_name_here>
   Memcheck:Leak
   match-leak-kinds: reachable
   fun:_Znwm
   fun:UnknownInlinedFun
   fun:UnknownInlinedFun
   fun:allocateWithKey<llvm::MallocAllocator>
   fun:Create<llvm::MallocAllocator, llvm::cl::Option *>
   fun:try_emplace<llvm::cl::Option *>
   fun:insert
   fun:_ZN12_GLOBAL__N_117CommandLineParser9addOptionEPN4llvm2cl6OptionEPNS2_10SubCommandE
   fun:_ZN4llvm2cl6Option11addArgumentEv
   fun:done
   fun:opt<char[13], llvm::cl::OptionHidden, llvm::cl::desc, llvm::cl::initializer<bool> >
   fun:UnknownInlinedFun
   fun:_GLOBAL__sub_I_MipsTargetObjectFile.cpp
   fun:call_init
   fun:call_init
   fun:_dl_init
   fun:_dl_catch_exception
   fun:dl_open_worker
   fun:_dl_catch_exception
   fun:_dl_open
   fun:dlopen_doit
   fun:_dl_catch_exception
}
{
   <insert_a_suppression_name_here>
   Memcheck:Leak
   match-leak-kinds: reachable
   fun:_Znwm
   fun:UnknownInlinedFun
   fun:UnknownInlinedFun
   fun:allocateWithKey<llvm::MallocAllocator>
   fun:Create<llvm::MallocAllocator, llvm::cl::Option *>
   fun:try_emplace<llvm::cl::Option *>
   fun:insert
   fun:_ZN12_GLOBAL__N_117CommandLineParser9addOptionEPN4llvm2cl6OptionEPNS2_10SubCommandE
   fun:_ZN4llvm2cl6Option11addArgumentEv
   fun:UnknownInlinedFun
   fun:_GLOBAL__sub_I_PPCExpandISEL.cpp
   fun:call_init
   fun:call_init
   fun:_dl_init
   fun:_dl_catch_exception
   fun:dl_open_worker
   fun:_dl_catch_exception
   fun:_dl_open
   fun:dlopen_doit
   fun:_dl_catch_exception
}
{
   <insert_a_suppression_name_here>
   Memcheck:Leak
   match-leak-kinds: reachable
   fun:_Znwm
   fun:UnknownInlinedFun
   fun:UnknownInlinedFun
   fun:allocateWithKey<llvm::MallocAllocator>
   fun:Create<llvm::MallocAllocator, llvm::cl::Option *>
   fun:try_emplace<llvm::cl::Option *>
   fun:insert
   fun:_ZN12_GLOBAL__N_117CommandLineParser9addOptionEPN4llvm2cl6OptionEPNS2_10SubCommandE
   fun:_ZN4llvm2cl6Option11addArgumentEv
   fun:done
   fun:opt<char[13], llvm::cl::OptionHidden, llvm::cl::desc>
   fun:UnknownInlinedFun
   fun:_GLOBAL__sub_I_PPCPreEmitPeephole.cpp
   fun:call_init
   fun:call_init
   fun:_dl_init
   fun:_dl_catch_exception
   fun:dl_open_worker
   fun:_dl_catch_exception
   fun:_dl_open
   fun:dlopen_doit
   fun:_dl_catch_exception
}
{
   <insert_a_suppression_name_here>
   Memcheck:Leak
   match-leak-kinds: reachable
   fun:_Znwm
   fun:UnknownInlinedFun
   fun:UnknownInlinedFun
   fun:allocateWithKey<llvm::MallocAllocator>
   fun:Create<llvm::MallocAllocator, llvm::cl::Option *>
   fun:try_emplace<llvm::cl::Option *>
   fun:insert
   fun:_ZN12_GLOBAL__N_117CommandLineParser9addOptionEPN4llvm2cl6OptionEPNS2_10SubCommandE
   fun:_ZN4llvm2cl6Option11addArgumentEv
   fun:UnknownInlinedFun
   fun:_GLOBAL__sub_I_SampleProfReader.cpp
   fun:call_init
   fun:call_init
   fun:_dl_init
   fun:_dl_catch_exception
   fun:dl_open_worker
   fun:_dl_catch_exception
   fun:_dl_open
   fun:dlopen_doit
   fun:_dl_catch_exception
}
{
   <insert_a_suppression_name_here>
   Memcheck:Leak
   match-leak-kinds: reachable
   fun:_Znwm
   fun:UnknownInlinedFun
   fun:UnknownInlinedFun
   fun:allocateWithKey<llvm::MallocAllocator>
   fun:Create<llvm::MallocAllocator>
   fun:try_emplace<>
   fun:operator[]
   fun:_ZN4llvm12PassRegistry12registerPassERKNS_8PassInfoEb
   fun:_ZL30initializeIRTranslatorPassOnceRN4llvm12PassRegistryE.llvm.9446234758661035977
   fun:__pthread_once_slow
   fun:UnknownInlinedFun
   fun:UnknownInlinedFun
   fun:UnknownInlinedFun
   fun:UnknownInlinedFun
   fun:_ZN4llvm20initializeGlobalISelERNS_12PassRegistryE
   fun:LLVMInitializeAMDGPUTarget
   fun:ac_init_llvm_target
   fun:__pthread_once_slow
   fun:si_init_compiler
   fun:radeonsi_screen_create_impl
   fun:amdgpu_winsys_create
   fun:radeonsi_screen_create
}
{
   <insert_a_suppression_name_here>
   Memcheck:Leak
   match-leak-kinds: reachable
   fun:_Znwm
   fun:UnknownInlinedFun
   fun:UnknownInlinedFun
   fun:allocateWithKey<llvm::MallocAllocator>
   fun:Create<llvm::MallocAllocator>
   fun:try_emplace<>
   fun:operator[]
   fun:_ZN4llvm12PassRegistry12registerPassERKNS_8PassInfoEb
   fun:_ZL33initializeSILowerI1CopiesPassOnceRN4llvm12PassRegistryE.llvm.4746431459538971106
   fun:__pthread_once_slow
   fun:UnknownInlinedFun
   fun:UnknownInlinedFun
   fun:UnknownInlinedFun
   fun:UnknownInlinedFun
   fun:LLVMInitializeAMDGPUTarget
   fun:ac_init_llvm_target
   fun:__pthread_once_slow
   fun:si_init_compiler
   fun:radeonsi_screen_create_impl
   fun:amdgpu_winsys_create
   fun:radeonsi_screen_create
   fun:pipe_radeonsi_create_screen
}
{
   <insert_a_suppression_name_here>
   Memcheck:Leak
   match-leak-kinds: reachable
   fun:_Znwm
   fun:UnknownInlinedFun
   fun:UnknownInlinedFun
   fun:allocateWithKey<llvm::MallocAllocator>
   fun:Create<llvm::MallocAllocator, llvm::cl::Option *>
   fun:try_emplace<llvm::cl::Option *>
   fun:insert
   fun:_ZN12_GLOBAL__N_117CommandLineParser9addOptionEPN4llvm2cl6OptionEPNS2_10SubCommandE
   fun:_ZN4llvm2cl6Option11addArgumentEv
   fun:done
   fun:opt<char[13], llvm::cl::desc, llvm::cl::OptionHidden>
   fun:_ZN12_GLOBAL__N_116CreateTrackSpace4callEv.llvm.14068357386885210872
   fun:UnknownInlinedFun
   fun:operator*
   fun:_ZN4llvm16initTimerOptionsEv
   fun:_ZL17initCommonOptionsv
   fun:_ZN4llvm2cl23ParseCommandLineOptionsEiPKPKcNS_9StringRefEPNS_11raw_ostreamES2_b
   fun:LLVMParseCommandLineOptions
   fun:ac_init_llvm_target
   fun:__pthread_once_slow
   fun:si_init_compiler
   fun:radeonsi_screen_create_impl
}
{
   <insert_a_suppression_name_here>
   Memcheck:Leak
   match-leak-kinds: reachable
   fun:_Znwm
   fun:UnknownInlinedFun
   fun:UnknownInlinedFun
   fun:allocateWithKey<llvm::MallocAllocator>
   fun:Create<llvm::MallocAllocator>
   fun:try_emplace<>
   fun:operator[]
   fun:_ZN4llvm12PassRegistry12registerPassERKNS_8PassInfoEb
   fun:_ZL39initializeDebugifyMachineModulePassOnceRN4llvm12PassRegistryE.llvm.6806373271281073696
   fun:__pthread_once_slow
   fun:UnknownInlinedFun
   fun:UnknownInlinedFun
   fun:UnknownInlinedFun
   fun:UnknownInlinedFun
   fun:_ZN4llvm17initializeCodeGenERNS_12PassRegistryE
   fun:_ZN4llvm16TargetPassConfigC1ERNS_17LLVMTargetMachineERNS_6legacy15PassManagerBaseE
   fun:AMDGPUPassConfig
   fun:GCNPassConfig
   fun:_ZN4llvm16GCNTargetMachine16createPassConfigERNS_6legacy15PassManagerBaseE
   fun:addPassesToGenerateCode
   fun:_ZN4llvm17LLVMTargetMachine19addPassesToEmitFileERNS_6legacy15PassManagerBaseERNS_17raw_pwrite_streamEPS4_NS_15CodeGenFileTypeEbPNS_28MachineModuleInfoWrapperPassE
   fun:ac_create_llvm_passes
   fun:si_init_compiler
   fun:radeonsi_screen_create_impl
   fun:amdgpu_winsys_create
}
{
   <insert_a_suppression_name_here>
   Memcheck:Leak
   match-leak-kinds: reachable
   fun:_Znwm
   fun:UnknownInlinedFun
   fun:UnknownInlinedFun
   fun:allocateWithKey<llvm::MallocAllocator>
   fun:Create<llvm::MallocAllocator>
   fun:try_emplace<>
   fun:operator[]
   fun:_ZN4llvm12PassRegistry12registerPassERKNS_8PassInfoEb
   fun:_ZL34initializeExpandMemCmpPassPassOnceRN4llvm12PassRegistryE.llvm.7056048202905369854
   fun:__pthread_once_slow
   fun:UnknownInlinedFun
   fun:UnknownInlinedFun
   fun:UnknownInlinedFun
   fun:UnknownInlinedFun
   fun:_ZN4llvm17initializeCodeGenERNS_12PassRegistryE
   fun:_ZN4llvm16TargetPassConfigC1ERNS_17LLVMTargetMachineERNS_6legacy15PassManagerBaseE
   fun:AMDGPUPassConfig
   fun:GCNPassConfig
   fun:_ZN4llvm16GCNTargetMachine16createPassConfigERNS_6legacy15PassManagerBaseE
   fun:addPassesToGenerateCode
   fun:_ZN4llvm17LLVMTargetMachine19addPassesToEmitFileERNS_6legacy15PassManagerBaseERNS_17raw_pwrite_streamEPS4_NS_15CodeGenFileTypeEbPNS_28MachineModuleInfoWrapperPassE
   fun:ac_create_llvm_passes
   fun:si_init_compiler
   fun:radeonsi_screen_create_impl
   fun:amdgpu_winsys_create
}
{
   <insert_a_suppression_name_here>
   Memcheck:Leak
   match-leak-kinds: reachable
   fun:_Znwm
   fun:UnknownInlinedFun
   fun:UnknownInlinedFun
   fun:allocateWithKey<llvm::MallocAllocator>
   fun:Create<llvm::MallocAllocator>
   fun:try_emplace<>
   fun:operator[]
   fun:_ZN4llvm12PassRegistry12registerPassERKNS_8PassInfoEb
   fun:_ZL29initializeIfConverterPassOnceRN4llvm12PassRegistryE.llvm.14616068947466066444
   fun:__pthread_once_slow
   fun:UnknownInlinedFun
   fun:UnknownInlinedFun
   fun:UnknownInlinedFun
   fun:UnknownInlinedFun
   fun:_ZN4llvm17initializeCodeGenERNS_12PassRegistryE
   fun:_ZN4llvm16TargetPassConfigC1ERNS_17LLVMTargetMachineERNS_6legacy15PassManagerBaseE
   fun:AMDGPUPassConfig
   fun:GCNPassConfig
   fun:_ZN4llvm16GCNTargetMachine16createPassConfigERNS_6legacy15PassManagerBaseE
   fun:addPassesToGenerateCode
   fun:_ZN4llvm17LLVMTargetMachine19addPassesToEmitFileERNS_6legacy15PassManagerBaseERNS_17raw_pwrite_streamEPS4_NS_15CodeGenFileTypeEbPNS_28MachineModuleInfoWrapperPassE
   fun:ac_create_llvm_passes
   fun:si_init_compiler
   fun:radeonsi_screen_create_impl
   fun:amdgpu_winsys_create
}
{
   <insert_a_suppression_name_here>
   Memcheck:Leak
   match-leak-kinds: reachable
   fun:_Znwm
   fun:UnknownInlinedFun
   fun:UnknownInlinedFun
   fun:allocateWithKey<llvm::MallocAllocator>
   fun:Create<llvm::MallocAllocator>
   fun:try_emplace<>
   fun:operator[]
   fun:_ZN4llvm12PassRegistry12registerPassERKNS_8PassInfoEb
   fun:_ZL32initializeMachineSinkingPassOnceRN4llvm12PassRegistryE.llvm.6095646786380701568
   fun:__pthread_once_slow
   fun:UnknownInlinedFun
   fun:UnknownInlinedFun
   fun:UnknownInlinedFun
   fun:UnknownInlinedFun
   fun:_ZN4llvm17initializeCodeGenERNS_12PassRegistryE
   fun:_ZN4llvm16TargetPassConfigC1ERNS_17LLVMTargetMachineERNS_6legacy15PassManagerBaseE
   fun:AMDGPUPassConfig
   fun:GCNPassConfig
   fun:_ZN4llvm16GCNTargetMachine16createPassConfigERNS_6legacy15PassManagerBaseE
   fun:addPassesToGenerateCode
   fun:_ZN4llvm17LLVMTargetMachine19addPassesToEmitFileERNS_6legacy15PassManagerBaseERNS_17raw_pwrite_streamEPS4_NS_15CodeGenFileTypeEbPNS_28MachineModuleInfoWrapperPassE
   fun:ac_create_llvm_passes
   fun:si_init_compiler
   fun:radeonsi_screen_create_impl
   fun:amdgpu_winsys_create
}
{
   <insert_a_suppression_name_here>
   Memcheck:Leak
   match-leak-kinds: reachable
   fun:_Znwm
   fun:UnknownInlinedFun
   fun:UnknownInlinedFun
   fun:allocateWithKey<llvm::MallocAllocator>
   fun:Create<llvm::MallocAllocator>
   fun:try_emplace<>
   fun:operator[]
   fun:_ZN4llvm12PassRegistry12registerPassERKNS_8PassInfoEb
   fun:_ZL21initializePEIPassOnceRN4llvm12PassRegistryE.llvm.14804948129070630412
   fun:__pthread_once_slow
   fun:UnknownInlinedFun
   fun:UnknownInlinedFun
   fun:UnknownInlinedFun
   fun:UnknownInlinedFun
   fun:_ZN4llvm17initializeCodeGenERNS_12PassRegistryE
   fun:_ZN4llvm16TargetPassConfigC1ERNS_17LLVMTargetMachineERNS_6legacy15PassManagerBaseE
   fun:AMDGPUPassConfig
   fun:GCNPassConfig
   fun:_ZN4llvm16GCNTargetMachine16createPassConfigERNS_6legacy15PassManagerBaseE
   fun:addPassesToGenerateCode
   fun:_ZN4llvm17LLVMTargetMachine19addPassesToEmitFileERNS_6legacy15PassManagerBaseERNS_17raw_pwrite_streamEPS4_NS_15CodeGenFileTypeEbPNS_28MachineModuleInfoWrapperPassE
   fun:ac_create_llvm_passes
   fun:si_init_compiler
   fun:radeonsi_screen_create_impl
   fun:amdgpu_winsys_create
}
{
   <insert_a_suppression_name_here>
   Memcheck:Leak
   match-leak-kinds: reachable
   fun:_Znwm
   fun:UnknownInlinedFun
   fun:UnknownInlinedFun
   fun:allocateWithKey<llvm::MallocAllocator>
   fun:Create<llvm::MallocAllocator>
   fun:try_emplace<>
   fun:operator[]
   fun:_ZN4llvm12PassRegistry12registerPassERKNS_8PassInfoEb
   fun:_ZL35initializePeepholeOptimizerPassOnceRN4llvm12PassRegistryE.llvm.13135041008156219561
   fun:__pthread_once_slow
   fun:UnknownInlinedFun
   fun:UnknownInlinedFun
   fun:UnknownInlinedFun
   fun:UnknownInlinedFun
   fun:_ZN4llvm17initializeCodeGenERNS_12PassRegistryE
   fun:_ZN4llvm16TargetPassConfigC1ERNS_17LLVMTargetMachineERNS_6legacy15PassManagerBaseE
   fun:AMDGPUPassConfig
   fun:GCNPassConfig
   fun:_ZN4llvm16GCNTargetMachine16createPassConfigERNS_6legacy15PassManagerBaseE
   fun:addPassesToGenerateCode
   fun:_ZN4llvm17LLVMTargetMachine19addPassesToEmitFileERNS_6legacy15PassManagerBaseERNS_17raw_pwrite_streamEPS4_NS_15CodeGenFileTypeEbPNS_28MachineModuleInfoWrapperPassE
   fun:ac_create_llvm_passes
   fun:si_init_compiler
   fun:radeonsi_screen_create_impl
   fun:amdgpu_winsys_create
}
{
   <insert_a_suppression_name_here>
   Memcheck:Leak
   match-leak-kinds: reachable
   fun:_Znwm
   fun:UnknownInlinedFun
   fun:UnknownInlinedFun
   fun:allocateWithKey<llvm::MallocAllocator>
   fun:Create<llvm::MallocAllocator>
   fun:try_emplace<>
   fun:operator[]
   fun:_ZN4llvm12PassRegistry12registerPassERKNS_8PassInfoEb
   fun:_ZL29initializeEdgeBundlesPassOnceRN4llvm12PassRegistryE.llvm.5621496247799032008
   fun:__pthread_once_slow
   fun:UnknownInlinedFun
   fun:UnknownInlinedFun
   fun:UnknownInlinedFun
   fun:UnknownInlinedFun
   fun:_ZL26initializeRAGreedyPassOnceRN4llvm12PassRegistryE.llvm.3047201845550902386
   fun:__pthread_once_slow
   fun:UnknownInlinedFun
   fun:UnknownInlinedFun
   fun:UnknownInlinedFun
   fun:UnknownInlinedFun
   fun:_ZN4llvm17initializeCodeGenERNS_12PassRegistryE
   fun:_ZN4llvm16TargetPassConfigC1ERNS_17LLVMTargetMachineERNS_6legacy15PassManagerBaseE
   fun:AMDGPUPassConfig
   fun:GCNPassConfig
   fun:_ZN4llvm16GCNTargetMachine16createPassConfigERNS_6legacy15PassManagerBaseE
   fun:addPassesToGenerateCode
   fun:_ZN4llvm17LLVMTargetMachine19addPassesToEmitFileERNS_6legacy15PassManagerBaseERNS_17raw_pwrite_streamEPS4_NS_15CodeGenFileTypeEbPNS_28MachineModuleInfoWrapperPassE
   fun:ac_create_llvm_passes
   fun:si_init_compiler
}
{
   <insert_a_suppression_name_here>
   Memcheck:Leak
   match-leak-kinds: reachable
   fun:_Znwm
   fun:UnknownInlinedFun
   fun:UnknownInlinedFun
   fun:allocateWithKey<llvm::MallocAllocator>
   fun:Create<llvm::MallocAllocator>
   fun:try_emplace<>
   fun:operator[]
   fun:_ZN4llvm12PassRegistry12registerPassERKNS_8PassInfoEb
   fun:_ZL30initializeRegAllocFastPassOnceRN4llvm12PassRegistryE.llvm.1905316547670657657
   fun:__pthread_once_slow
   fun:UnknownInlinedFun
   fun:UnknownInlinedFun
   fun:UnknownInlinedFun
   fun:UnknownInlinedFun
   fun:_ZN4llvm17initializeCodeGenERNS_12PassRegistryE
   fun:_ZN4llvm16TargetPassConfigC1ERNS_17LLVMTargetMachineERNS_6legacy15PassManagerBaseE
   fun:AMDGPUPassConfig
   fun:GCNPassConfig
   fun:_ZN4llvm16GCNTargetMachine16createPassConfigERNS_6legacy15PassManagerBaseE
   fun:addPassesToGenerateCode
   fun:_ZN4llvm17LLVMTargetMachine19addPassesToEmitFileERNS_6legacy15PassManagerBaseERNS_17raw_pwrite_streamEPS4_NS_15CodeGenFileTypeEbPNS_28MachineModuleInfoWrapperPassE
   fun:ac_create_llvm_passes
   fun:si_init_compiler
   fun:radeonsi_screen_create_impl
   fun:amdgpu_winsys_create
}
{
   <insert_a_suppression_name_here>
   Memcheck:Leak
   match-leak-kinds: reachable
   fun:_Znwm
   fun:UnknownInlinedFun
   fun:UnknownInlinedFun
   fun:allocateWithKey<llvm::MallocAllocator>
   fun:Create<llvm::MallocAllocator>
   fun:try_emplace<>
   fun:operator[]
   fun:_ZN4llvm12PassRegistry12registerPassERKNS_8PassInfoEb
   fun:_ZL30initializeWinEHPreparePassOnceRN4llvm12PassRegistryE.llvm.5947466701766425247
   fun:__pthread_once_slow
   fun:UnknownInlinedFun
   fun:UnknownInlinedFun
   fun:UnknownInlinedFun
   fun:UnknownInlinedFun
   fun:_ZN4llvm17initializeCodeGenERNS_12PassRegistryE
   fun:_ZN4llvm16TargetPassConfigC1ERNS_17LLVMTargetMachineERNS_6legacy15PassManagerBaseE
   fun:AMDGPUPassConfig
   fun:GCNPassConfig
   fun:_ZN4llvm16GCNTargetMachine16createPassConfigERNS_6legacy15PassManagerBaseE
   fun:addPassesToGenerateCode
   fun:_ZN4llvm17LLVMTargetMachine19addPassesToEmitFileERNS_6legacy15PassManagerBaseERNS_17raw_pwrite_streamEPS4_NS_15CodeGenFileTypeEbPNS_28MachineModuleInfoWrapperPassE
   fun:ac_create_llvm_passes
   fun:si_init_compiler
   fun:radeonsi_screen_create_impl
   fun:amdgpu_winsys_create
}
{
   <insert_a_suppression_name_here>
   Memcheck:Leak
   match-leak-kinds: reachable
   fun:_Znwm
   fun:UnknownInlinedFun
   fun:UnknownInlinedFun
   fun:allocateWithKey<llvm::MallocAllocator>
   fun:Create<llvm::MallocAllocator>
   fun:try_emplace<>
   fun:operator[]
   fun:_ZN4llvm12PassRegistry12registerPassERKNS_8PassInfoEb
   fun:_ZL43initializeCanonicalizeFreezeInLoopsPassOnceRN4llvm12PassRegistryE.llvm.6421769139817171942
   fun:__pthread_once_slow
   fun:UnknownInlinedFun
   fun:UnknownInlinedFun
   fun:UnknownInlinedFun
   fun:initializeCanonicalizeFreezeInLoopsPass
   fun:CanonicalizeFreezeInLoops
   fun:_ZN4llvm35createCanonicalizeFreezeInLoopsPassEv
   fun:_ZN4llvm16TargetPassConfig11addIRPassesEv
   fun:_ZN4llvm16AMDGPUPassConfig11addIRPassesEv
   fun:_ZN4llvm16TargetPassConfig13addISelPassesEv
   fun:addPassesToGenerateCode
   fun:_ZN4llvm17LLVMTargetMachine19addPassesToEmitFileERNS_6legacy15PassManagerBaseERNS_17raw_pwrite_streamEPS4_NS_15CodeGenFileTypeEbPNS_28MachineModuleInfoWrapperPassE
   fun:ac_create_llvm_passes
   fun:si_init_compiler
   fun:radeonsi_screen_create_impl
}
{
   <insert_a_suppression_name_here>
   Memcheck:Leak
   match-leak-kinds: reachable
   fun:malloc
   fun:_XUpdateAtomCache
   fun:XInternAtom
   fun:XSetWMProtocols
   fun:_ZN3olc14Platform_Linux16CreateWindowPaneERKNS_11v2d_genericIiEERS2_b
   fun:_ZN3olc15PixelGameEngine5StartEv
   fun:main
}
{
   <insert_a_suppression_name_here>
   Memcheck:Leak
   match-leak-kinds: reachable
   fun:_Znwm
   fun:UnknownInlinedFun
   fun:UnknownInlinedFun
   fun:allocateWithKey<llvm::MallocAllocator>
   fun:Create<llvm::MallocAllocator, llvm::cl::Option *>
   fun:try_emplace<llvm::cl::Option *>
   fun:insert
   fun:_ZN12_GLOBAL__N_117CommandLineParser9addOptionEPN4llvm2cl6OptionEPNS2_10SubCommandE
   fun:_ZN4llvm2cl6Option11addArgumentEv
   fun:done
   fun:opt<char[14], llvm::cl::desc, llvm::cl::OptionHidden, llvm::cl::ValueExpected, llvm::cl::initializer<llvm::ChangePrinter>, llvm::cl::ValuesClass>
   fun:UnknownInlinedFun
   fun:_GLOBAL__sub_I_PrintPasses.cpp
   fun:call_init
   fun:call_init
   fun:_dl_init
   fun:_dl_catch_exception
   fun:dl_open_worker
   fun:_dl_catch_exception
   fun:_dl_open
   fun:dlopen_doit
   fun:_dl_catch_exception
}
{
   <insert_a_suppression_name_here>
   Memcheck:Leak
   match-leak-kinds: reachable
   fun:_Znwm
   fun:UnknownInlinedFun
   fun:UnknownInlinedFun
   fun:allocateWithKey<llvm::MallocAllocator>
   fun:Create<llvm::MallocAllocator, llvm::cl::Option *>
   fun:try_emplace<llvm::cl::Option *>
   fun:insert
   fun:_ZN12_GLOBAL__N_117CommandLineParser9addOptionEPN4llvm2cl6OptionEPNS2_10SubCommandE
   fun:_ZN4llvm2cl6Option11addArgumentEv
   fun:UnknownInlinedFun
   fun:_GLOBAL__sub_I_IfConversion.cpp
   fun:call_init
   fun:call_init
   fun:_dl_init
   fun:_dl_catch_exception
   fun:dl_open_worker
   fun:_dl_catch_exception
   fun:_dl_open
   fun:dlopen_doit
   fun:_dl_catch_exception
}
{
   <insert_a_suppression_name_here>
   Memcheck:Leak
   match-leak-kinds: reachable
   fun:_Znwm
   fun:UnknownInlinedFun
   fun:UnknownInlinedFun
   fun:allocateWithKey<llvm::MallocAllocator>
   fun:Create<llvm::MallocAllocator, llvm::cl::Option *>
   fun:try_emplace<llvm::cl::Option *>
   fun:insert
   fun:_ZN12_GLOBAL__N_117CommandLineParser9addOptionEPN4llvm2cl6OptionEPNS2_10SubCommandE
   fun:_ZN4llvm2cl6Option11addArgumentEv
   fun:UnknownInlinedFun
   fun:_GLOBAL__sub_I_MachineBlockPlacement.cpp
   fun:call_init
   fun:call_init
   fun:_dl_init
   fun:_dl_catch_exception
   fun:dl_open_worker
   fun:_dl_catch_exception
   fun:_dl_open
   fun:dlopen_doit
   fun:_dl_catch_exception
}
{
   <insert_a_suppression_name_here>
   Memcheck:Leak
   match-leak-kinds: reachable
   fun:_Znwm
   fun:UnknownInlinedFun
   fun:UnknownInlinedFun
   fun:allocateWithKey<llvm::MallocAllocator>
   fun:Create<llvm::MallocAllocator, llvm::cl::Option *>
   fun:try_emplace<llvm::cl::Option *>
   fun:insert
   fun:_ZN12_GLOBAL__N_117CommandLineParser9addOptionEPN4llvm2cl6OptionEPNS2_10SubCommandE
   fun:_ZN4llvm2cl6Option11addArgumentEv
   fun:done
   fun:opt<char[14], llvm::cl::OptionHidden, llvm::cl::initializer<bool>, llvm::cl::desc>
   fun:UnknownInlinedFun
   fun:_GLOBAL__sub_I_MIRPrinter.cpp
   fun:call_init
   fun:call_init
   fun:_dl_init
   fun:_dl_catch_exception
   fun:dl_open_worker
   fun:_dl_catch_exception
   fun:_dl_open
   fun:dlopen_doit
   fun:_dl_catch_exception
}
{
   <insert_a_suppression_name_here>
   Memcheck:Leak
   match-leak-kinds: reachable
   fun:_Znwm
   fun:UnknownInlinedFun
   fun:UnknownInlinedFun
   fun:allocateWithKey<llvm::MallocAllocator>
   fun:Create<llvm::MallocAllocator, llvm::cl::Option *>
   fun:try_emplace<llvm::cl::Option *>
   fun:insert
   fun:_ZN12_GLOBAL__N_117CommandLineParser9addOptionEPN4llvm2cl6OptionEPNS2_10SubCommandE
   fun:_ZN4llvm2cl6Option11addArgumentEv
   fun:UnknownInlinedFun
   fun:_GLOBAL__sub_I_RegAllocGreedy.cpp
   fun:call_init
   fun:call_init
   fun:_dl_init
   fun:_dl_catch_exception
   fun:dl_open_worker
   fun:_dl_catch_exception
   fun:_dl_open
   fun:dlopen_doit
   fun:_dl_catch_exception
}
{
   <insert_a_suppression_name_here>
   Memcheck:Leak
   match-leak-kinds: reachable
   fun:_Znwm
   fun:UnknownInlinedFun
   fun:UnknownInlinedFun
   fun:allocateWithKey<llvm::MallocAllocator>
   fun:Create<llvm::MallocAllocator, llvm::cl::Option *>
   fun:try_emplace<llvm::cl::Option *>
   fun:insert
   fun:_ZN12_GLOBAL__N_117CommandLineParser9addOptionEPN4llvm2cl6OptionEPNS2_10SubCommandE
   fun:_ZN4llvm2cl6Option11addArgumentEv
   fun:UnknownInlinedFun
   fun:_GLOBAL__sub_I_RegisterCoalescer.cpp
   fun:call_init
   fun:call_init
   fun:_dl_init
   fun:_dl_catch_exception
   fun:dl_open_worker
   fun:_dl_catch_exception
   fun:_dl_open
   fun:dlopen_doit
   fun:_dl_catch_exception
}
{
   <insert_a_suppression_name_here>
   Memcheck:Leak
   match-leak-kinds: reachable
   fun:_Znwm
   fun:UnknownInlinedFun
   fun:UnknownInlinedFun
   fun:allocateWithKey<llvm::MallocAllocator>
   fun:Create<llvm::MallocAllocator, llvm::cl::Option *>
   fun:try_emplace<llvm::cl::Option *>
   fun:insert
   fun:_ZN12_GLOBAL__N_117CommandLineParser9addOptionEPN4llvm2cl6OptionEPNS2_10SubCommandE
   fun:_ZN4llvm2cl6Option11addArgumentEv
   fun:UnknownInlinedFun
   fun:_GLOBAL__sub_I_StackSlotColoring.cpp
   fun:call_init
   fun:call_init
   fun:_dl_init
   fun:_dl_catch_exception
   fun:dl_open_worker
   fun:_dl_catch_exception
   fun:_dl_open
   fun:dlopen_doit
   fun:_dl_catch_exception
}
{
   <insert_a_suppression_name_here>
   Memcheck:Leak
   match-leak-kinds: reachable
   fun:_Znwm
   fun:UnknownInlinedFun
   fun:UnknownInlinedFun
   fun:allocateWithKey<llvm::MallocAllocator>
   fun:Create<llvm::MallocAllocator, llvm::cl::Option *>
   fun:try_emplace<llvm::cl::Option *>
   fun:insert
   fun:_ZN12_GLOBAL__N_117CommandLineParser9addOptionEPN4llvm2cl6OptionEPNS2_10SubCommandE
   fun:_ZN4llvm2cl6Option11addArgumentEv
   fun:UnknownInlinedFun
   fun:_GLOBAL__sub_I_TailDuplicator.cpp
   fun:call_init
   fun:call_init
   fun:_dl_init
   fun:_dl_catch_exception
   fun:dl_open_worker
   fun:_dl_catch_exception
   fun:_dl_open
   fun:dlopen_doit
   fun:_dl_catch_exception
}
{
   <insert_a_suppression_name_here>
   Memcheck:Leak
   match-leak-kinds: reachable
   fun:_Znwm
   fun:UnknownInlinedFun
   fun:UnknownInlinedFun
   fun:allocateWithKey<llvm::MallocAllocator>
   fun:Create<llvm::MallocAllocator, llvm::cl::Option *>
   fun:try_emplace<llvm::cl::Option *>
   fun:insert
   fun:_ZN12_GLOBAL__N_117CommandLineParser9addOptionEPN4llvm2cl6OptionEPNS2_10SubCommandE
   fun:_ZN4llvm2cl6Option11addArgumentEv
   fun:done
   fun:opt<char[14], llvm::cl::OptionHidden, llvm::cl::initializer<int>, llvm::cl::desc>
   fun:UnknownInlinedFun
   fun:_GLOBAL__sub_I_ScheduleDAGRRList.cpp
   fun:call_init
   fun:call_init
   fun:_dl_init
   fun:_dl_catch_exception
   fun:dl_open_worker
   fun:_dl_catch_exception
   fun:_dl_open
   fun:dlopen_doit
   fun:_dl_catch_exception
}
{
   <insert_a_suppression_name_here>
   Memcheck:Leak
   match-leak-kinds: reachable
   fun:_Znwm
   fun:UnknownInlinedFun
   fun:UnknownInlinedFun
   fun:allocateWithKey<llvm::MallocAllocator>
   fun:Create<llvm::MallocAllocator, llvm::cl::Option *>
   fun:try_emplace<llvm::cl::Option *>
   fun:insert
   fun:_ZN12_GLOBAL__N_117CommandLineParser9addOptionEPN4llvm2cl6OptionEPNS2_10SubCommandE
   fun:_ZN4llvm2cl6Option11addArgumentEv
   fun:done
   fun:opt<char[14], llvm::cl::OptionHidden, llvm::cl::initializer<bool> >
   fun:UnknownInlinedFun
   fun:_GLOBAL__sub_I_DebugHandlerBase.cpp
   fun:call_init
   fun:call_init
   fun:_dl_init
   fun:_dl_catch_exception
   fun:dl_open_worker
   fun:_dl_catch_exception
   fun:_dl_open
   fun:dlopen_doit
   fun:_dl_catch_exception
}
{
   <insert_a_suppression_name_here>
   Memcheck:Leak
   match-leak-kinds: reachable
   fun:_Znwm
   fun:UnknownInlinedFun
   fun:UnknownInlinedFun
   fun:allocateWithKey<llvm::MallocAllocator>
   fun:Create<llvm::MallocAllocator, llvm::cl::Option *>
   fun:try_emplace<llvm::cl::Option *>
   fun:insert
   fun:_ZN12_GLOBAL__N_117CommandLineParser9addOptionEPN4llvm2cl6OptionEPNS2_10SubCommandE
   fun:_ZN4llvm2cl6Option11addArgumentEv
   fun:done
   fun:list<char[14], llvm::cl::desc, llvm::cl::OptionHidden>
   fun:__cxx_global_var_init.4
   fun:_GLOBAL__sub_I_DataFlowSanitizer.cpp
   fun:call_init
   fun:call_init
   fun:_dl_init
   fun:_dl_catch_exception
   fun:dl_open_worker
   fun:_dl_catch_exception
   fun:_dl_open
   fun:dlopen_doit
   fun:_dl_catch_exception
}
{
   <insert_a_suppression_name_here>
   Memcheck:Leak
   match-leak-kinds: reachable
   fun:_Znwm
   fun:UnknownInlinedFun
   fun:UnknownInlinedFun
   fun:allocateWithKey<llvm::MallocAllocator>
   fun:Create<llvm::MallocAllocator, llvm::cl::Option *>
   fun:try_emplace<llvm::cl::Option *>
   fun:insert
   fun:_ZN12_GLOBAL__N_117CommandLineParser9addOptionEPN4llvm2cl6OptionEPNS2_10SubCommandE
   fun:_ZN4llvm2cl6Option11addArgumentEv
   fun:done
   fun:opt<char[14], llvm::cl::desc, llvm::cl::OptionHidden, llvm::cl::initializer<int> >
   fun:UnknownInlinedFun
   fun:_GLOBAL__sub_I_MemProfiler.cpp
   fun:call_init
   fun:call_init
   fun:_dl_init
   fun:_dl_catch_exception
   fun:dl_open_worker
   fun:_dl_catch_exception
   fun:_dl_open
   fun:dlopen_doit
   fun:_dl_catch_exception
}
{
   <insert_a_suppression_name_here>
   Memcheck:Leak
   match-leak-kinds: reachable
   fun:_Znwm
   fun:UnknownInlinedFun
   fun:UnknownInlinedFun
   fun:allocateWithKey<llvm::MallocAllocator>
   fun:Create<llvm::MallocAllocator, llvm::cl::Option *>
   fun:try_emplace<llvm::cl::Option *>
   fun:insert
   fun:_ZN12_GLOBAL__N_117CommandLineParser9addOptionEPN4llvm2cl6OptionEPNS2_10SubCommandE
   fun:_ZN4llvm2cl6Option11addArgumentEv
   fun:UnknownInlinedFun
   fun:_GLOBAL__sub_I_MemorySanitizer.cpp
   fun:call_init
   fun:call_init
   fun:_dl_init
   fun:_dl_catch_exception
   fun:dl_open_worker
   fun:_dl_catch_exception
   fun:_dl_open
   fun:dlopen_doit
   fun:_dl_catch_exception
}
{
   <insert_a_suppression_name_here>
   Memcheck:Leak
   match-leak-kinds: reachable
   fun:_Znwm
   fun:UnknownInlinedFun
   fun:UnknownInlinedFun
   fun:allocateWithKey<llvm::MallocAllocator>
   fun:Create<llvm::MallocAllocator, llvm::cl::Option *>
   fun:try_emplace<llvm::cl::Option *>
   fun:insert
   fun:_ZN12_GLOBAL__N_117CommandLineParser9addOptionEPN4llvm2cl6OptionEPNS2_10SubCommandE
   fun:_ZN4llvm2cl6Option11addArgumentEv
   fun:done
   fun:opt<char[14], llvm::cl::desc, llvm::cl::OptionHidden, llvm::cl::initializer<bool> >
   fun:__cxx_global_var_init.48
   fun:_GLOBAL__sub_I_HWAddressSanitizer.cpp
   fun:call_init
   fun:call_init
   fun:_dl_init
   fun:_dl_catch_exception
   fun:dl_open_worker
   fun:_dl_catch_exception
   fun:_dl_open
   fun:dlopen_doit
   fun:_dl_catch_exception
}
{
   <insert_a_suppression_name_here>
   Memcheck:Leak
   match-leak-kinds: reachable
   fun:_Znwm
   fun:UnknownInlinedFun
   fun:UnknownInlinedFun
   fun:allocateWithKey<llvm::MallocAllocator>
   fun:Create<llvm::MallocAllocator, llvm::cl::Option *>
   fun:try_emplace<llvm::cl::Option *>
   fun:insert
   fun:_ZN12_GLOBAL__N_117CommandLineParser9addOptionEPN4llvm2cl6OptionEPNS2_10SubCommandE
   fun:_ZN4llvm2cl6Option11addArgumentEv
   fun:done
   fun:opt<char[14], llvm::cl::initializer<int>, llvm::cl::OptionHidden, llvm::cl::value_desc, llvm::cl::desc>
   fun:__cxx_global_var_init.31
   fun:_GLOBAL__sub_I_FunctionImport.cpp
   fun:call_init
   fun:call_init
   fun:_dl_init
   fun:_dl_catch_exception
   fun:dl_open_worker
   fun:_dl_catch_exception
   fun:_dl_open
   fun:dlopen_doit
   fun:_dl_catch_exception
}
{
   <insert_a_suppression_name_here>
   Memcheck:Leak
   match-leak-kinds: reachable
   fun:_Znwm
   fun:UnknownInlinedFun
   fun:UnknownInlinedFun
   fun:allocateWithKey<llvm::MallocAllocator>
   fun:Create<llvm::MallocAllocator, llvm::cl::Option *>
   fun:try_emplace<llvm::cl::Option *>
   fun:insert
   fun:_ZN12_GLOBAL__N_117CommandLineParser9addOptionEPN4llvm2cl6OptionEPNS2_10SubCommandE
   fun:_ZN4llvm2cl6Option11addArgumentEv
   fun:UnknownInlinedFun
   fun:_GLOBAL__sub_I_FunctionImport.cpp
   fun:call_init
   fun:call_init
   fun:_dl_init
   fun:_dl_catch_exception
   fun:dl_open_worker
   fun:_dl_catch_exception
   fun:_dl_open
   fun:dlopen_doit
   fun:_dl_catch_exception
}
{
   <insert_a_suppression_name_here>
   Memcheck:Leak
   match-leak-kinds: reachable
   fun:_Znwm
   fun:UnknownInlinedFun
   fun:UnknownInlinedFun
   fun:allocateWithKey<llvm::MallocAllocator>
   fun:Create<llvm::MallocAllocator, llvm::cl::Option *>
   fun:try_emplace<llvm::cl::Option *>
   fun:insert
   fun:_ZN12_GLOBAL__N_117CommandLineParser9addOptionEPN4llvm2cl6OptionEPNS2_10SubCommandE
   fun:_ZN4llvm2cl6Option11addArgumentEv
   fun:done
   fun:opt<char[14], llvm::cl::initializer<int>, llvm::cl::OptionHidden, llvm::cl::desc>
   fun:UnknownInlinedFun
   fun:_GLOBAL__sub_I_SLPVectorizer.cpp
   fun:call_init
   fun:call_init
   fun:_dl_init
   fun:_dl_catch_exception
   fun:dl_open_worker
   fun:_dl_catch_exception
   fun:_dl_open
   fun:dlopen_doit
   fun:_dl_catch_exception
}
{
   <insert_a_suppression_name_here>
   Memcheck:Leak
   match-leak-kinds: reachable
   fun:_Znwm
   fun:UnknownInlinedFun
   fun:UnknownInlinedFun
   fun:allocateWithKey<llvm::MallocAllocator>
   fun:Create<llvm::MallocAllocator, llvm::cl::Option *>
   fun:try_emplace<llvm::cl::Option *>
   fun:insert
   fun:_ZN12_GLOBAL__N_117CommandLineParser9addOptionEPN4llvm2cl6OptionEPNS2_10SubCommandE
   fun:_ZN4llvm2cl6Option11addArgumentEv
   fun:__cxx_global_var_init.41
   fun:_GLOBAL__sub_I_SLPVectorizer.cpp
   fun:call_init
   fun:call_init
   fun:_dl_init
   fun:_dl_catch_exception
   fun:dl_open_worker
   fun:_dl_catch_exception
   fun:_dl_open
   fun:dlopen_doit
   fun:_dl_catch_exception
}
{
   <insert_a_suppression_name_here>
   Memcheck:Leak
   match-leak-kinds: reachable
   fun:_Znwm
   fun:UnknownInlinedFun
   fun:UnknownInlinedFun
   fun:allocateWithKey<llvm::MallocAllocator>
   fun:Create<llvm::MallocAllocator, llvm::cl::Option *>
   fun:try_emplace<llvm::cl::Option *>
   fun:insert
   fun:_ZN12_GLOBAL__N_117CommandLineParser9addOptionEPN4llvm2cl6OptionEPNS2_10SubCommandE
   fun:_ZN4llvm2cl6Option11addArgumentEv
   fun:__cxx_global_var_init.19
   fun:_GLOBAL__sub_I_AliasAnalysisEvaluator.cpp
   fun:call_init
   fun:call_init
   fun:_dl_init
   fun:_dl_catch_exception
   fun:dl_open_worker
   fun:_dl_catch_exception
   fun:_dl_open
   fun:dlopen_doit
   fun:_dl_catch_exception
}
{
   <insert_a_suppression_name_here>
   Memcheck:Leak
   match-leak-kinds: reachable
   fun:_Znwm
   fun:UnknownInlinedFun
   fun:UnknownInlinedFun
   fun:allocateWithKey<llvm::MallocAllocator>
   fun:Create<llvm::MallocAllocator, llvm::cl::Option *>
   fun:try_emplace<llvm::cl::Option *>
   fun:insert
   fun:_ZN12_GLOBAL__N_117CommandLineParser9addOptionEPN4llvm2cl6OptionEPNS2_10SubCommandE
   fun:_ZN4llvm2cl6Option11addArgumentEv
   fun:done
   fun:opt<char[14], llvm::cl::OptionHidden, llvm::cl::desc>
   fun:UnknownInlinedFun
   fun:_GLOBAL__sub_I_CFGPrinter.cpp
   fun:call_init
   fun:call_init
   fun:_dl_init
   fun:_dl_catch_exception
   fun:dl_open_worker
   fun:_dl_catch_exception
   fun:_dl_open
   fun:dlopen_doit
   fun:_dl_catch_exception
}
{
   <insert_a_suppression_name_here>
   Memcheck:Leak
   match-leak-kinds: reachable
   fun:_Znwm
   fun:UnknownInlinedFun
   fun:UnknownInlinedFun
   fun:UnknownInlinedFun
   fun:UnknownInlinedFun
   fun:UnknownInlinedFun
   fun:pair<const std::__cxx11::basic_string<char, std::char_traits<char>, std::allocator<char> > &, 0UL>
   fun:pair<const std::__cxx11::basic_string<char, std::char_traits<char>, std::allocator<char> > &>
   fun:construct<std::pair<const std::__cxx11::basic_string<char, std::char_traits<char>, std::allocator<char> >, unsigned int>, const std::piecewise_construct_t &, std::tuple<const std::__cxx11::basic_string<char, std::char_traits<char>, std::allocator<char> > &>, std::tuple<> >
   fun:construct<std::pair<const std::__cxx11::basic_string<char, std::char_traits<char>, std::allocator<char> >, unsigned int>, const std::piecewise_construct_t &, std::tuple<const std::__cxx11::basic_string<char, std::char_traits<char>, std::allocator<char> > &>, std::tuple<> >
   fun:_M_construct_node<const std::piecewise_construct_t &, std::tuple<const std::__cxx11::basic_string<char, std::char_traits<char>, std::allocator<char> > &>, std::tuple<> >
   fun:_M_create_node<const std::piecewise_construct_t &, std::tuple<const std::__cxx11::basic_string<char, std::char_traits<char>, std::allocator<char> > &>, std::tuple<> >
   fun:_Auto_node<const std::piecewise_construct_t &, std::tuple<const std::__cxx11::basic_string<char, std::char_traits<char>, std::allocator<char> > &>, std::tuple<> >
   fun:_ZNSt8_Rb_treeINSt7__cxx1112basic_stringIcSt11char_traitsIcESaIcEEESt4pairIKS5_jESt10_Select1stIS8_ESt4lessIS5_ESaIS8_EE22_M_emplace_hint_uniqueIJRKSt21piecewise_construct_tSt5tupleIJRS7_EESJ_IJEEEEESt17_Rb_tree_iteratorIS8_ESt23_Rb_tree_const_iteratorIS8_EDpOT_
   fun:_ZNSt3mapINSt7__cxx1112basic_stringIcSt11char_traitsIcESaIcEEEjSt4lessIS5_ESaISt4pairIKS5_jEEEixERS9_
   fun:_ZN4llvm12UniqueVectorINSt7__cxx1112basic_stringIcSt11char_traitsIcESaIcEEEE6insertERKS6_
   fun:_ZN4llvm12DebugCounter10addCounterERKNSt7__cxx1112basic_stringIcSt11char_traitsIcESaIcEEES8_
   fun:_ZN4llvm12DebugCounter15registerCounterENS_9StringRefES1_
   fun:UnknownInlinedFun
   fun:_GLOBAL__sub_I_AArch64LoadStoreOptimizer.cpp
   fun:call_init
   fun:call_init
   fun:_dl_init
   fun:_dl_catch_exception
   fun:dl_open_worker
   fun:_dl_catch_exception
}
{
   <insert_a_suppression_name_here>
   Memcheck:Leak
   match-leak-kinds: reachable
   fun:_Znwm
   fun:UnknownInlinedFun
   fun:UnknownInlinedFun
   fun:UnknownInlinedFun
   fun:UnknownInlinedFun
   fun:UnknownInlinedFun
   fun:construct<std::__cxx11::basic_string<char, std::char_traits<char>, std::allocator<char> >, const std::__cxx11::basic_string<char, std::char_traits<char>, std::allocator<char> > &>
   fun:construct<std::__cxx11::basic_string<char, std::char_traits<char>, std::allocator<char> >, const std::__cxx11::basic_string<char, std::char_traits<char>, std::allocator<char> > &>
   fun:_ZNSt6vectorINSt7__cxx1112basic_stringIcSt11char_traitsIcESaIcEEESaIS5_EE17_M_realloc_insertIJRKS5_EEEvN9__gnu_cxx17__normal_iteratorIPS5_S7_EEDpOT_
   fun:push_back
   fun:_ZN4llvm12UniqueVectorINSt7__cxx1112basic_stringIcSt11char_traitsIcESaIcEEEE6insertERKS6_
   fun:_ZN4llvm12DebugCounter10addCounterERKNSt7__cxx1112basic_stringIcSt11char_traitsIcESaIcEEES8_
   fun:_ZN4llvm12DebugCounter15registerCounterENS_9StringRefES1_
   fun:UnknownInlinedFun
   fun:_GLOBAL__sub_I_AArch64LoadStoreOptimizer.cpp
   fun:call_init
   fun:call_init
   fun:_dl_init
   fun:_dl_catch_exception
   fun:dl_open_worker
   fun:_dl_catch_exception
   fun:_dl_open
}
{
   <insert_a_suppression_name_here>
   Memcheck:Leak
   match-leak-kinds: reachable
   fun:_Znwm
   fun:UnknownInlinedFun
   fun:UnknownInlinedFun
   fun:allocateWithKey<llvm::MallocAllocator>
   fun:Create<llvm::MallocAllocator, llvm::cl::Option *>
   fun:try_emplace<llvm::cl::Option *>
   fun:insert
   fun:_ZN12_GLOBAL__N_117CommandLineParser9addOptionEPN4llvm2cl6OptionEPNS2_10SubCommandE
   fun:_ZN4llvm2cl6Option11addArgumentEv
   fun:done
   fun:opt<char[14], llvm::cl::OptionHidden, llvm::cl::initializer<llvm::FunctionPass *(*)()>, llvm::cl::desc>
   fun:UnknownInlinedFun
   fun:_GLOBAL__sub_I_AMDGPUTargetMachine.cpp
   fun:call_init
   fun:call_init
   fun:_dl_init
   fun:_dl_catch_exception
   fun:dl_open_worker
   fun:_dl_catch_exception
   fun:_dl_open
   fun:dlopen_doit
   fun:_dl_catch_exception
}
{
   <insert_a_suppression_name_here>
   Memcheck:Leak
   match-leak-kinds: reachable
   fun:_Znwm
   fun:UnknownInlinedFun
   fun:UnknownInlinedFun
   fun:allocateWithKey<llvm::MallocAllocator>
   fun:Create<llvm::MallocAllocator, llvm::cl::Option *>
   fun:try_emplace<llvm::cl::Option *>
   fun:insert
   fun:_ZN12_GLOBAL__N_117CommandLineParser9addOptionEPN4llvm2cl6OptionEPNS2_10SubCommandE
   fun:_ZN4llvm2cl6Option11addArgumentEv
   fun:done
   fun:opt<char[14], llvm::cl::initializer<bool>, llvm::cl::OptionHidden>
   fun:UnknownInlinedFun
   fun:_GLOBAL__sub_I_HexagonCommonGEP.cpp
   fun:call_init
   fun:call_init
   fun:_dl_init
   fun:_dl_catch_exception
   fun:dl_open_worker
   fun:_dl_catch_exception
   fun:_dl_open
   fun:dlopen_doit
   fun:_dl_catch_exception
}
{
   <insert_a_suppression_name_here>
   Memcheck:Leak
   match-leak-kinds: reachable
   fun:_Znwm
   fun:UnknownInlinedFun
   fun:UnknownInlinedFun
   fun:allocateWithKey<llvm::MallocAllocator>
   fun:Create<llvm::MallocAllocator, llvm::cl::Option *>
   fun:try_emplace<llvm::cl::Option *>
   fun:insert
   fun:_ZN12_GLOBAL__N_117CommandLineParser9addOptionEPN4llvm2cl6OptionEPNS2_10SubCommandE
   fun:_ZN4llvm2cl6Option11addArgumentEv
   fun:UnknownInlinedFun
   fun:_GLOBAL__sub_I_HexagonGenExtract.cpp
   fun:call_init
   fun:call_init
   fun:_dl_init
   fun:_dl_catch_exception
   fun:dl_open_worker
   fun:_dl_catch_exception
   fun:_dl_open
   fun:dlopen_doit
   fun:_dl_catch_exception
}
{
   <insert_a_suppression_name_here>
   Memcheck:Leak
   match-leak-kinds: reachable
   fun:_Znwm
   fun:UnknownInlinedFun
   fun:UnknownInlinedFun
   fun:allocateWithKey<llvm::MallocAllocator>
   fun:Create<llvm::MallocAllocator, llvm::cl::Option *>
   fun:try_emplace<llvm::cl::Option *>
   fun:insert
   fun:_ZN12_GLOBAL__N_117CommandLineParser9addOptionEPN4llvm2cl6OptionEPNS2_10SubCommandE
   fun:_ZN4llvm2cl6Option11addArgumentEv
   fun:done
   fun:opt<char[14], llvm::cl::initializer<bool>, llvm::cl::desc>
   fun:UnknownInlinedFun
   fun:_GLOBAL__sub_I_MipsSEISelLowering.cpp
   fun:call_init
   fun:call_init
   fun:_dl_init
   fun:_dl_catch_exception
   fun:dl_open_worker
   fun:_dl_catch_exception
   fun:_dl_open
   fun:dlopen_doit
   fun:_dl_catch_exception
}
{
   <insert_a_suppression_name_here>
   Memcheck:Leak
   match-leak-kinds: reachable
   fun:_Znwm
   fun:UnknownInlinedFun
   fun:UnknownInlinedFun
   fun:allocateWithKey<llvm::MallocAllocator>
   fun:Create<llvm::MallocAllocator, llvm::cl::Option *>
   fun:try_emplace<llvm::cl::Option *>
   fun:insert
   fun:_ZN12_GLOBAL__N_117CommandLineParser9addOptionEPN4llvm2cl6OptionEPNS2_10SubCommandE
   fun:_ZN4llvm2cl6Option11addArgumentEv
   fun:done
   fun:opt<char[14], llvm::cl::OptionHidden, llvm::cl::desc, llvm::cl::initializer<bool> >
   fun:UnknownInlinedFun
   fun:_GLOBAL__sub_I_MipsTargetObjectFile.cpp
   fun:call_init
   fun:call_init
   fun:_dl_init
   fun:_dl_catch_exception
   fun:dl_open_worker
   fun:_dl_catch_exception
   fun:_dl_open
   fun:dlopen_doit
   fun:_dl_catch_exception
}
{
   <insert_a_suppression_name_here>
   Memcheck:Leak
   match-leak-kinds: reachable
   fun:_Znwm
   fun:UnknownInlinedFun
   fun:UnknownInlinedFun
   fun:allocateWithKey<llvm::MallocAllocator>
   fun:Create<llvm::MallocAllocator, llvm::cl::Option *>
   fun:try_emplace<llvm::cl::Option *>
   fun:insert
   fun:_ZN12_GLOBAL__N_117CommandLineParser9addOptionEPN4llvm2cl6OptionEPNS2_10SubCommandE
   fun:_ZN4llvm2cl6Option11addArgumentEv
   fun:done
   fun:opt<char[14], llvm::cl::OptionHidden, llvm::cl::initializer<ICmpInGPRType>, llvm::cl::desc, llvm::cl::ValuesClass>
   fun:UnknownInlinedFun
   fun:_GLOBAL__sub_I_PPCISelDAGToDAG.cpp
   fun:call_init
   fun:call_init
   fun:_dl_init
   fun:_dl_catch_exception
   fun:dl_open_worker
   fun:_dl_catch_exception
   fun:_dl_open
   fun:dlopen_doit
   fun:_dl_catch_exception
}
{
   <insert_a_suppression_name_here>
   Memcheck:Leak
   match-leak-kinds: reachable
   fun:_Znwm
   fun:UnknownInlinedFun
   fun:UnknownInlinedFun
   fun:allocateWithKey<llvm::MallocAllocator>
   fun:Create<llvm::MallocAllocator, llvm::cl::Option *>
   fun:try_emplace<llvm::cl::Option *>
   fun:insert
   fun:_ZN12_GLOBAL__N_117CommandLineParser9addOptionEPN4llvm2cl6OptionEPNS2_10SubCommandE
   fun:_ZN4llvm2cl6Option11addArgumentEv
   fun:UnknownInlinedFun
   fun:_GLOBAL__sub_I_X86SpeculativeLoadHardening.cpp
   fun:call_init
   fun:call_init
   fun:_dl_init
   fun:_dl_catch_exception
   fun:dl_open_worker
   fun:_dl_catch_exception
   fun:_dl_open
   fun:dlopen_doit
   fun:_dl_catch_exception
}
{
   <insert_a_suppression_name_here>
   Memcheck:Leak
   match-leak-kinds: reachable
   fun:_Znwm
   fun:UnknownInlinedFun
   fun:UnknownInlinedFun
   fun:allocateWithKey<llvm::MallocAllocator>
   fun:Create<llvm::MallocAllocator, llvm::cl::Option *>
   fun:try_emplace<llvm::cl::Option *>
   fun:insert
   fun:_ZN12_GLOBAL__N_117CommandLineParser9addOptionEPN4llvm2cl6OptionEPNS2_10SubCommandE
   fun:_ZN4llvm2cl6Option11addArgumentEv
   fun:done
   fun:list<char[14], llvm::cl::value_desc, llvm::cl::desc, llvm::cl::MiscFlags, llvm::cl::OptionHidden>
   fun:UnknownInlinedFun
   fun:_GLOBAL__sub_I_StandardInstrumentations.cpp
   fun:call_init
   fun:call_init
   fun:_dl_init
   fun:_dl_catch_exception
   fun:dl_open_worker
   fun:_dl_catch_exception
   fun:_dl_open
   fun:dlopen_doit
   fun:_dl_catch_exception
}
{
   <insert_a_suppression_name_here>
   Memcheck:Leak
   match-leak-kinds: reachable
   fun:_Znwm
   fun:UnknownInlinedFun
   fun:UnknownInlinedFun
   fun:allocateWithKey<llvm::MallocAllocator>
   fun:Create<llvm::MallocAllocator>
   fun:try_emplace<>
   fun:operator[]
   fun:_ZN4llvm12PassRegistry12registerPassERKNS_8PassInfoEb
   fun:_ZL46initializeTargetLibraryInfoWrapperPassPassOnceRN4llvm12PassRegistryE.llvm.16926270155090426765
   fun:__pthread_once_slow
   fun:UnknownInlinedFun
   fun:UnknownInlinedFun
   fun:UnknownInlinedFun
   fun:UnknownInlinedFun
   fun:_ZL50initializeBranchProbabilityInfoWrapperPassPassOnceRN4llvm12PassRegistryE.llvm.3079600055323173122
   fun:__pthread_once_slow
   fun:UnknownInlinedFun
   fun:UnknownInlinedFun
   fun:UnknownInlinedFun
   fun:UnknownInlinedFun
   fun:_ZL47initializeBlockFrequencyInfoWrapperPassPassOnceRN4llvm12PassRegistryE.llvm.2361570520918676161
   fun:__pthread_once_slow
   fun:UnknownInlinedFun
   fun:UnknownInlinedFun
   fun:UnknownInlinedFun
   fun:UnknownInlinedFun
   fun:_ZL30initializeIRTranslatorPassOnceRN4llvm12PassRegistryE.llvm.9446234758661035977
   fun:__pthread_once_slow
   fun:UnknownInlinedFun
   fun:UnknownInlinedFun
   fun:UnknownInlinedFun
   fun:UnknownInlinedFun
   fun:_ZN4llvm20initializeGlobalISelERNS_12PassRegistryE
   fun:LLVMInitializeAMDGPUTarget
}
{
   <insert_a_suppression_name_here>
   Memcheck:Leak
   match-leak-kinds: reachable
   fun:_Znwm
   fun:UnknownInlinedFun
   fun:UnknownInlinedFun
   fun:allocateWithKey<llvm::MallocAllocator>
   fun:Create<llvm::MallocAllocator>
   fun:try_emplace<>
   fun:operator[]
   fun:_ZN4llvm12PassRegistry12registerPassERKNS_8PassInfoEb
   fun:_ZL30initializeLoadStoreOptPassOnceRN4llvm12PassRegistryE.llvm.8743599012853936538
   fun:__pthread_once_slow
   fun:UnknownInlinedFun
   fun:UnknownInlinedFun
   fun:UnknownInlinedFun
   fun:UnknownInlinedFun
   fun:_ZN4llvm20initializeGlobalISelERNS_12PassRegistryE
   fun:LLVMInitializeAMDGPUTarget
   fun:ac_init_llvm_target
   fun:__pthread_once_slow
   fun:si_init_compiler
   fun:radeonsi_screen_create_impl
   fun:amdgpu_winsys_create
   fun:radeonsi_screen_create
}
{
   <insert_a_suppression_name_here>
   Memcheck:Leak
   match-leak-kinds: reachable
   fun:_Znwm
   fun:UnknownInlinedFun
   fun:UnknownInlinedFun
   fun:allocateWithKey<llvm::MallocAllocator>
   fun:Create<llvm::MallocAllocator>
   fun:try_emplace<>
   fun:operator[]
   fun:_ZN4llvm12PassRegistry12registerPassERKNS_8PassInfoEb
   fun:_ZL33initializeMachineLoopInfoPassOnceRN4llvm12PassRegistryE.llvm.7251125861979809918
   fun:__pthread_once_slow
   fun:UnknownInlinedFun
   fun:UnknownInlinedFun
   fun:UnknownInlinedFun
   fun:UnknownInlinedFun
   fun:_ZL43initializeMachineBlockFrequencyInfoPassOnceRN4llvm12PassRegistryE.llvm.18278538367858580169
   fun:__pthread_once_slow
   fun:UnknownInlinedFun
   fun:UnknownInlinedFun
   fun:UnknownInlinedFun
   fun:UnknownInlinedFun
   fun:_ZL31initializeRegBankSelectPassOnceRN4llvm12PassRegistryE.llvm.2769780510161164253
   fun:__pthread_once_slow
   fun:UnknownInlinedFun
   fun:UnknownInlinedFun
   fun:UnknownInlinedFun
   fun:UnknownInlinedFun
   fun:_ZN4llvm20initializeGlobalISelERNS_12PassRegistryE
   fun:LLVMInitializeAMDGPUTarget
   fun:ac_init_llvm_target
   fun:__pthread_once_slow
}
{
   <insert_a_suppression_name_here>
   Memcheck:Leak
   match-leak-kinds: reachable
   fun:_Znwm
   fun:UnknownInlinedFun
   fun:UnknownInlinedFun
   fun:allocateWithKey<llvm::MallocAllocator>
   fun:Create<llvm::MallocAllocator>
   fun:try_emplace<>
   fun:operator[]
   fun:_ZN4llvm12PassRegistry12registerPassERKNS_8PassInfoEb
   fun:_ZL31initializeRegBankSelectPassOnceRN4llvm12PassRegistryE.llvm.2769780510161164253
   fun:__pthread_once_slow
   fun:UnknownInlinedFun
   fun:UnknownInlinedFun
   fun:UnknownInlinedFun
   fun:UnknownInlinedFun
   fun:_ZN4llvm20initializeGlobalISelERNS_12PassRegistryE
   fun:LLVMInitializeAMDGPUTarget
   fun:ac_init_llvm_target
   fun:__pthread_once_slow
   fun:si_init_compiler
   fun:radeonsi_screen_create_impl
   fun:amdgpu_winsys_create
   fun:radeonsi_screen_create
}
{
   <insert_a_suppression_name_here>
   Memcheck:Leak
   match-leak-kinds: reachable
   fun:_Znwm
   fun:UnknownInlinedFun
   fun:UnknownInlinedFun
   fun:allocateWithKey<llvm::MallocAllocator>
   fun:Create<llvm::MallocAllocator>
   fun:try_emplace<>
   fun:operator[]
   fun:_ZN4llvm12PassRegistry12registerPassERKNS_8PassInfoEb
   fun:_ZL31initializeLiveIntervalsPassOnceRN4llvm12PassRegistryE.llvm.15981564654989006005
   fun:__pthread_once_slow
   fun:UnknownInlinedFun
   fun:UnknownInlinedFun
   fun:UnknownInlinedFun
   fun:UnknownInlinedFun
   fun:_ZL35initializeSILowerSGPRSpillsPassOnceRN4llvm12PassRegistryE.llvm.5111126068679622768
   fun:__pthread_once_slow
   fun:UnknownInlinedFun
   fun:UnknownInlinedFun
   fun:UnknownInlinedFun
   fun:UnknownInlinedFun
   fun:LLVMInitializeAMDGPUTarget
   fun:ac_init_llvm_target
   fun:__pthread_once_slow
   fun:si_init_compiler
   fun:radeonsi_screen_create_impl
   fun:amdgpu_winsys_create
}
{
   <insert_a_suppression_name_here>
   Memcheck:Leak
   match-leak-kinds: reachable
   fun:_Znwm
   fun:UnknownInlinedFun
   fun:UnknownInlinedFun
   fun:allocateWithKey<llvm::MallocAllocator>
   fun:Create<llvm::MallocAllocator>
   fun:try_emplace<>
   fun:operator[]
   fun:_ZN4llvm12PassRegistry12registerPassERKNS_8PassInfoEb
   fun:_ZL40initializeCFLAndersAAWrapperPassPassOnceRN4llvm12PassRegistryE.llvm.7735458656432800050
   fun:__pthread_once_slow
   fun:UnknownInlinedFun
   fun:UnknownInlinedFun
   fun:UnknownInlinedFun
   fun:UnknownInlinedFun
   fun:_ZL38initializeAAResultsWrapperPassPassOnceRN4llvm12PassRegistryE.llvm.3986720190912680915
   fun:__pthread_once_slow
   fun:UnknownInlinedFun
   fun:UnknownInlinedFun
   fun:UnknownInlinedFun
   fun:UnknownInlinedFun
   fun:_ZL38initializeSILoadStoreOptimizerPassOnceRN4llvm12PassRegistryE.llvm.375695131650757695
   fun:__pthread_once_slow
   fun:UnknownInlinedFun
   fun:UnknownInlinedFun
   fun:UnknownInlinedFun
   fun:UnknownInlinedFun
   fun:LLVMInitializeAMDGPUTarget
   fun:ac_init_llvm_target
   fun:__pthread_once_slow
   fun:si_init_compiler
}
{
   <insert_a_suppression_name_here>
   Memcheck:Leak
   match-leak-kinds: reachable
   fun:_Znwm
   fun:UnknownInlinedFun
   fun:UnknownInlinedFun
   fun:allocateWithKey<llvm::MallocAllocator>
   fun:Create<llvm::MallocAllocator>
   fun:try_emplace<>
   fun:operator[]
   fun:_ZN4llvm12PassRegistry12registerPassERKNS_8PassInfoEb
   fun:_ZL40initializeCFLSteensAAWrapperPassPassOnceRN4llvm12PassRegistryE.llvm.12432333219647551665
   fun:__pthread_once_slow
   fun:UnknownInlinedFun
   fun:UnknownInlinedFun
   fun:UnknownInlinedFun
   fun:UnknownInlinedFun
   fun:_ZL38initializeAAResultsWrapperPassPassOnceRN4llvm12PassRegistryE.llvm.3986720190912680915
   fun:__pthread_once_slow
   fun:UnknownInlinedFun
   fun:UnknownInlinedFun
   fun:UnknownInlinedFun
   fun:UnknownInlinedFun
   fun:_ZL38initializeSILoadStoreOptimizerPassOnceRN4llvm12PassRegistryE.llvm.375695131650757695
   fun:__pthread_once_slow
   fun:UnknownInlinedFun
   fun:UnknownInlinedFun
   fun:UnknownInlinedFun
   fun:UnknownInlinedFun
   fun:LLVMInitializeAMDGPUTarget
   fun:ac_init_llvm_target
   fun:__pthread_once_slow
   fun:si_init_compiler
}
{
   <insert_a_suppression_name_here>
   Memcheck:Leak
   match-leak-kinds: reachable
   fun:_Znwm
   fun:UnknownInlinedFun
   fun:UnknownInlinedFun
   fun:allocateWithKey<llvm::MallocAllocator>
   fun:Create<llvm::MallocAllocator>
   fun:try_emplace<>
   fun:operator[]
   fun:_ZN4llvm12PassRegistry12registerPassERKNS_8PassInfoEb
   fun:_ZL36initializeAMDGPUReleaseVGPRsPassOnceRN4llvm12PassRegistryE.llvm.1965190358897903296
   fun:__pthread_once_slow
   fun:UnknownInlinedFun
   fun:UnknownInlinedFun
   fun:UnknownInlinedFun
   fun:UnknownInlinedFun
   fun:LLVMInitializeAMDGPUTarget
   fun:ac_init_llvm_target
   fun:__pthread_once_slow
   fun:si_init_compiler
   fun:radeonsi_screen_create_impl
   fun:amdgpu_winsys_create
   fun:radeonsi_screen_create
   fun:pipe_radeonsi_create_screen
}
{
   <insert_a_suppression_name_here>
   Memcheck:Leak
   match-leak-kinds: reachable
   fun:_Znwm
   fun:UnknownInlinedFun
   fun:UnknownInlinedFun
   fun:allocateWithKey<llvm::MallocAllocator>
   fun:Create<llvm::MallocAllocator>
   fun:try_emplace<>
   fun:operator[]
   fun:_ZN4llvm12PassRegistry12registerPassERKNS_8PassInfoEb
   fun:_ZL31initializeLiveRegMatrixPassOnceRN4llvm12PassRegistryE.llvm.12900389029893746761
   fun:__pthread_once_slow
   fun:UnknownInlinedFun
   fun:UnknownInlinedFun
   fun:UnknownInlinedFun
   fun:UnknownInlinedFun
   fun:_ZL38initializeSIPreAllocateWWMRegsPassOnceRN4llvm12PassRegistryE.llvm.3825268544933440907
   fun:__pthread_once_slow
   fun:UnknownInlinedFun
   fun:UnknownInlinedFun
   fun:UnknownInlinedFun
   fun:UnknownInlinedFun
   fun:LLVMInitializeAMDGPUTarget
   fun:ac_init_llvm_target
   fun:__pthread_once_slow
   fun:si_init_compiler
   fun:radeonsi_screen_create_impl
   fun:amdgpu_winsys_create
}
{
   <insert_a_suppression_name_here>
   Memcheck:Leak
   match-leak-kinds: reachable
   fun:_Znwm
   fun:UnknownInlinedFun
   fun:UnknownInlinedFun
   fun:allocateWithKey<llvm::MallocAllocator>
   fun:Create<llvm::MallocAllocator, llvm::cl::Option *>
   fun:try_emplace<llvm::cl::Option *>
   fun:insert
   fun:_ZN12_GLOBAL__N_117CommandLineParser9addOptionEPN4llvm2cl6OptionEPNS2_10SubCommandE
   fun:_ZN12_GLOBAL__N_117CommandLineParser9addOptionEPN4llvm2cl6OptionEb.llvm.9260085712697943389
   fun:addArgument
   fun:done
   fun:opt<char[14], llvm::cl::desc, llvm::cl::OptionHidden, llvm::cl::initializer<bool>, llvm::cl::cat, llvm::cl::sub>
   fun:CommandLineCommonOptions
   fun:_ZN4llvm14object_creatorIN12_GLOBAL__N_124CommandLineCommonOptionsEE4callEv
   fun:UnknownInlinedFun
   fun:operator*
   fun:_ZL17initCommonOptionsv
   fun:_ZN4llvm2cl23ParseCommandLineOptionsEiPKPKcNS_9StringRefEPNS_11raw_ostreamES2_b
   fun:LLVMParseCommandLineOptions
   fun:ac_init_llvm_target
   fun:__pthread_once_slow
   fun:si_init_compiler
   fun:radeonsi_screen_create_impl
   fun:amdgpu_winsys_create
}
{
   <insert_a_suppression_name_here>
   Memcheck:Leak
   match-leak-kinds: reachable
   fun:_Znwm
   fun:UnknownInlinedFun
   fun:UnknownInlinedFun
   fun:allocateWithKey<llvm::MallocAllocator>
   fun:Create<llvm::MallocAllocator, llvm::cl::Option *>
   fun:try_emplace<llvm::cl::Option *>
   fun:insert
   fun:_ZN12_GLOBAL__N_117CommandLineParser9addOptionEPN4llvm2cl6OptionEPNS2_10SubCommandE
   fun:_ZN12_GLOBAL__N_117CommandLineParser9addOptionEPN4llvm2cl6OptionEPNS2_10SubCommandE
   fun:_ZN12_GLOBAL__N_117CommandLineParser9addOptionEPN4llvm2cl6OptionEb.llvm.9260085712697943389
   fun:addArgument
   fun:done
   fun:opt<char[14], llvm::cl::desc, llvm::cl::OptionHidden, llvm::cl::initializer<bool>, llvm::cl::cat, llvm::cl::sub>
   fun:CommandLineCommonOptions
   fun:_ZN4llvm14object_creatorIN12_GLOBAL__N_124CommandLineCommonOptionsEE4callEv
   fun:UnknownInlinedFun
   fun:operator*
   fun:_ZL17initCommonOptionsv
   fun:_ZN4llvm2cl23ParseCommandLineOptionsEiPKPKcNS_9StringRefEPNS_11raw_ostreamES2_b
   fun:LLVMParseCommandLineOptions
   fun:ac_init_llvm_target
   fun:__pthread_once_slow
   fun:si_init_compiler
   fun:radeonsi_screen_create_impl
}
{
   <insert_a_suppression_name_here>
   Memcheck:Leak
   match-leak-kinds: reachable
   fun:_Znwm
   fun:UnknownInlinedFun
   fun:UnknownInlinedFun
   fun:allocateWithKey<llvm::MallocAllocator>
   fun:Create<llvm::MallocAllocator, llvm::cl::Option *>
   fun:try_emplace<llvm::cl::Option *>
   fun:insert
   fun:_ZN12_GLOBAL__N_117CommandLineParser9addOptionEPN4llvm2cl6OptionEPNS2_10SubCommandE
   fun:_ZN4llvm2cl6Option11addArgumentEv
   fun:done
   fun:list<char[14], llvm::cl::OptionHidden, llvm::cl::desc, llvm::cl::MiscFlags, llvm::cl::LocationClass<llvm::DebugCounter> >
   fun:DebugCounterList<const char (&)[14], llvm::cl::OptionHidden, llvm::cl::desc, llvm::cl::MiscFlags, llvm::cl::LocationClass<llvm::DebugCounter> >
   fun:_ZN12_GLOBAL__N_124CreateDebugCounterOption4callEv.llvm.5056149180323372231
   fun:UnknownInlinedFun
   fun:operator*
   fun:_ZN4llvm23initDebugCounterOptionsEv
   fun:_ZL17initCommonOptionsv
   fun:_ZN4llvm2cl23ParseCommandLineOptionsEiPKPKcNS_9StringRefEPNS_11raw_ostreamES2_b
   fun:LLVMParseCommandLineOptions
   fun:ac_init_llvm_target
   fun:__pthread_once_slow
   fun:si_init_compiler
   fun:radeonsi_screen_create_impl
}
{
   <insert_a_suppression_name_here>
   Memcheck:Leak
   match-leak-kinds: reachable
   fun:_Znwm
   fun:UnknownInlinedFun
   fun:UnknownInlinedFun
   fun:allocateWithKey<llvm::MallocAllocator>
   fun:Create<llvm::MallocAllocator>
   fun:try_emplace<>
   fun:operator[]
   fun:_ZN4llvm12PassRegistry12registerPassERKNS_8PassInfoEb
   fun:_ZL41initializeAlwaysInlinerLegacyPassPassOnceRN4llvm12PassRegistryE.llvm.13208069491734723662
   fun:__pthread_once_slow
   fun:UnknownInlinedFun
   fun:UnknownInlinedFun
   fun:UnknownInlinedFun
   fun:initializeAlwaysInlinerLegacyPassPass
   fun:AlwaysInlinerLegacyPass
   fun:_ZN4llvm29createAlwaysInlinerLegacyPassEb
   fun:LLVMAddAlwaysInlinerPass
   fun:ac_create_passmgr
   fun:ac_init_llvm_compiler
   fun:si_init_compiler
   fun:radeonsi_screen_create_impl
   fun:amdgpu_winsys_create
   fun:radeonsi_screen_create
   fun:pipe_radeonsi_create_screen
}
{
   <insert_a_suppression_name_here>
   Memcheck:Leak
   match-leak-kinds: reachable
   fun:_Znwm
   fun:UnknownInlinedFun
   fun:UnknownInlinedFun
   fun:allocateWithKey<llvm::MallocAllocator>
   fun:Create<llvm::MallocAllocator>
   fun:try_emplace<>
   fun:operator[]
   fun:_ZN4llvm12PassRegistry12registerPassERKNS_8PassInfoEb
   fun:_ZL30initializeLoopSimplifyPassOnceRN4llvm12PassRegistryE.llvm.10015115073247795761
   fun:__pthread_once_slow
   fun:UnknownInlinedFun
   fun:UnknownInlinedFun
   fun:UnknownInlinedFun
   fun:UnknownInlinedFun
   fun:_ZN4llvm22initializeLoopPassPassERNS_12PassRegistryE
   fun:_ZL32initializeLegacyLICMPassPassOnceRN4llvm12PassRegistryE.llvm.1358161256474175904
   fun:__pthread_once_slow
   fun:UnknownInlinedFun
   fun:UnknownInlinedFun
   fun:UnknownInlinedFun
   fun:initializeLegacyLICMPassPass
   fun:LegacyLICMPass
   fun:_ZN4llvm14createLICMPassEv
   fun:LLVMAddLICMPass
   fun:ac_create_passmgr
   fun:ac_init_llvm_compiler
   fun:si_init_compiler
   fun:radeonsi_screen_create_impl
}
{
   <insert_a_suppression_name_here>
   Memcheck:Leak
   match-leak-kinds: reachable
   fun:_Znwm
   fun:UnknownInlinedFun
   fun:UnknownInlinedFun
   fun:allocateWithKey<llvm::MallocAllocator>
   fun:Create<llvm::MallocAllocator>
   fun:try_emplace<>
   fun:operator[]
   fun:_ZN4llvm12PassRegistry12registerPassERKNS_8PassInfoEb
   fun:_ZL30initializeAtomicExpandPassOnceRN4llvm12PassRegistryE.llvm.6491095109263601223
   fun:__pthread_once_slow
   fun:UnknownInlinedFun
   fun:UnknownInlinedFun
   fun:UnknownInlinedFun
   fun:UnknownInlinedFun
   fun:_ZN4llvm17initializeCodeGenERNS_12PassRegistryE
   fun:_ZN4llvm16TargetPassConfigC1ERNS_17LLVMTargetMachineERNS_6legacy15PassManagerBaseE
   fun:AMDGPUPassConfig
   fun:GCNPassConfig
   fun:_ZN4llvm16GCNTargetMachine16createPassConfigERNS_6legacy15PassManagerBaseE
   fun:addPassesToGenerateCode
   fun:_ZN4llvm17LLVMTargetMachine19addPassesToEmitFileERNS_6legacy15PassManagerBaseERNS_17raw_pwrite_streamEPS4_NS_15CodeGenFileTypeEbPNS_28MachineModuleInfoWrapperPassE
   fun:ac_create_llvm_passes
   fun:si_init_compiler
   fun:radeonsi_screen_create_impl
   fun:amdgpu_winsys_create
}
{
   <insert_a_suppression_name_here>
   Memcheck:Leak
   match-leak-kinds: reachable
   fun:_Znwm
   fun:UnknownInlinedFun
   fun:UnknownInlinedFun
   fun:allocateWithKey<llvm::MallocAllocator>
   fun:Create<llvm::MallocAllocator>
   fun:try_emplace<>
   fun:operator[]
   fun:_ZN4llvm12PassRegistry12registerPassERKNS_8PassInfoEb
   fun:_ZL34initializeBranchFolderPassPassOnceRN4llvm12PassRegistryE.llvm.423700071379910505
   fun:__pthread_once_slow
   fun:UnknownInlinedFun
   fun:UnknownInlinedFun
   fun:UnknownInlinedFun
   fun:UnknownInlinedFun
   fun:_ZN4llvm17initializeCodeGenERNS_12PassRegistryE
   fun:_ZN4llvm16TargetPassConfigC1ERNS_17LLVMTargetMachineERNS_6legacy15PassManagerBaseE
   fun:AMDGPUPassConfig
   fun:GCNPassConfig
   fun:_ZN4llvm16GCNTargetMachine16createPassConfigERNS_6legacy15PassManagerBaseE
   fun:addPassesToGenerateCode
   fun:_ZN4llvm17LLVMTargetMachine19addPassesToEmitFileERNS_6legacy15PassManagerBaseERNS_17raw_pwrite_streamEPS4_NS_15CodeGenFileTypeEbPNS_28MachineModuleInfoWrapperPassE
   fun:ac_create_llvm_passes
   fun:si_init_compiler
   fun:radeonsi_screen_create_impl
   fun:amdgpu_winsys_create
}
{
   <insert_a_suppression_name_here>
   Memcheck:Leak
   match-leak-kinds: reachable
   fun:_Znwm
   fun:UnknownInlinedFun
   fun:UnknownInlinedFun
   fun:allocateWithKey<llvm::MallocAllocator>
   fun:Create<llvm::MallocAllocator>
   fun:try_emplace<>
   fun:operator[]
   fun:_ZN4llvm12PassRegistry12registerPassERKNS_8PassInfoEb
   fun:_ZL30initializeExpandPostRAPassOnceRN4llvm12PassRegistryE.llvm.6351572894715585476
   fun:__pthread_once_slow
   fun:UnknownInlinedFun
   fun:UnknownInlinedFun
   fun:UnknownInlinedFun
   fun:UnknownInlinedFun
   fun:_ZN4llvm17initializeCodeGenERNS_12PassRegistryE
   fun:_ZN4llvm16TargetPassConfigC1ERNS_17LLVMTargetMachineERNS_6legacy15PassManagerBaseE
   fun:AMDGPUPassConfig
   fun:GCNPassConfig
   fun:_ZN4llvm16GCNTargetMachine16createPassConfigERNS_6legacy15PassManagerBaseE
   fun:addPassesToGenerateCode
   fun:_ZN4llvm17LLVMTargetMachine19addPassesToEmitFileERNS_6legacy15PassManagerBaseERNS_17raw_pwrite_streamEPS4_NS_15CodeGenFileTypeEbPNS_28MachineModuleInfoWrapperPassE
   fun:ac_create_llvm_passes
   fun:si_init_compiler
   fun:radeonsi_screen_create_impl
   fun:amdgpu_winsys_create
}
{
   <insert_a_suppression_name_here>
   Memcheck:Leak
   match-leak-kinds: reachable
   fun:_Znwm
   fun:UnknownInlinedFun
   fun:UnknownInlinedFun
   fun:allocateWithKey<llvm::MallocAllocator>
   fun:Create<llvm::MallocAllocator>
   fun:try_emplace<>
   fun:operator[]
   fun:_ZN4llvm12PassRegistry12registerPassERKNS_8PassInfoEb
   fun:_ZL32initializeFEntryInserterPassOnceRN4llvm12PassRegistryE.llvm.7859969180454361030
   fun:__pthread_once_slow
   fun:UnknownInlinedFun
   fun:UnknownInlinedFun
   fun:UnknownInlinedFun
   fun:UnknownInlinedFun
   fun:_ZN4llvm17initializeCodeGenERNS_12PassRegistryE
   fun:_ZN4llvm16TargetPassConfigC1ERNS_17LLVMTargetMachineERNS_6legacy15PassManagerBaseE
   fun:AMDGPUPassConfig
   fun:GCNPassConfig
   fun:_ZN4llvm16GCNTargetMachine16createPassConfigERNS_6legacy15PassManagerBaseE
   fun:addPassesToGenerateCode
   fun:_ZN4llvm17LLVMTargetMachine19addPassesToEmitFileERNS_6legacy15PassManagerBaseERNS_17raw_pwrite_streamEPS4_NS_15CodeGenFileTypeEbPNS_28MachineModuleInfoWrapperPassE
   fun:ac_create_llvm_passes
   fun:si_init_compiler
   fun:radeonsi_screen_create_impl
   fun:amdgpu_winsys_create
}
{
   <insert_a_suppression_name_here>
   Memcheck:Leak
   match-leak-kinds: reachable
   fun:_Znwm
   fun:UnknownInlinedFun
   fun:UnknownInlinedFun
   fun:allocateWithKey<llvm::MallocAllocator>
   fun:Create<llvm::MallocAllocator>
   fun:try_emplace<>
   fun:operator[]
   fun:_ZN4llvm12PassRegistry12registerPassERKNS_8PassInfoEb
   fun:_ZL30initializeFinalizeISelPassOnceRN4llvm12PassRegistryE.llvm.11139036623597493068
   fun:__pthread_once_slow
   fun:UnknownInlinedFun
   fun:UnknownInlinedFun
   fun:UnknownInlinedFun
   fun:UnknownInlinedFun
   fun:_ZN4llvm17initializeCodeGenERNS_12PassRegistryE
   fun:_ZN4llvm16TargetPassConfigC1ERNS_17LLVMTargetMachineERNS_6legacy15PassManagerBaseE
   fun:AMDGPUPassConfig
   fun:GCNPassConfig
   fun:_ZN4llvm16GCNTargetMachine16createPassConfigERNS_6legacy15PassManagerBaseE
   fun:addPassesToGenerateCode
   fun:_ZN4llvm17LLVMTargetMachine19addPassesToEmitFileERNS_6legacy15PassManagerBaseERNS_17raw_pwrite_streamEPS4_NS_15CodeGenFileTypeEbPNS_28MachineModuleInfoWrapperPassE
   fun:ac_create_llvm_passes
   fun:si_init_compiler
   fun:radeonsi_screen_create_impl
   fun:amdgpu_winsys_create
}
{
   <insert_a_suppression_name_here>
   Memcheck:Leak
   match-leak-kinds: reachable
   fun:_Znwm
   fun:UnknownInlinedFun
   fun:UnknownInlinedFun
   fun:allocateWithKey<llvm::MallocAllocator>
   fun:Create<llvm::MallocAllocator>
   fun:try_emplace<>
   fun:operator[]
   fun:_ZN4llvm12PassRegistry12registerPassERKNS_8PassInfoEb
   fun:_ZL36initializeLiveDebugVariablesPassOnceRN4llvm12PassRegistryE.llvm.10991217120739636477
   fun:__pthread_once_slow
   fun:UnknownInlinedFun
   fun:UnknownInlinedFun
   fun:UnknownInlinedFun
   fun:UnknownInlinedFun
   fun:_ZN4llvm17initializeCodeGenERNS_12PassRegistryE
   fun:_ZN4llvm16TargetPassConfigC1ERNS_17LLVMTargetMachineERNS_6legacy15PassManagerBaseE
   fun:AMDGPUPassConfig
   fun:GCNPassConfig
   fun:_ZN4llvm16GCNTargetMachine16createPassConfigERNS_6legacy15PassManagerBaseE
   fun:addPassesToGenerateCode
   fun:_ZN4llvm17LLVMTargetMachine19addPassesToEmitFileERNS_6legacy15PassManagerBaseERNS_17raw_pwrite_streamEPS4_NS_15CodeGenFileTypeEbPNS_28MachineModuleInfoWrapperPassE
   fun:ac_create_llvm_passes
   fun:si_init_compiler
   fun:radeonsi_screen_create_impl
   fun:amdgpu_winsys_create
}
{
   <insert_a_suppression_name_here>
   Memcheck:Leak
   match-leak-kinds: reachable
   fun:_Znwm
   fun:UnknownInlinedFun
   fun:UnknownInlinedFun
   fun:allocateWithKey<llvm::MallocAllocator>
   fun:Create<llvm::MallocAllocator>
   fun:try_emplace<>
   fun:operator[]
   fun:_ZN4llvm12PassRegistry12registerPassERKNS_8PassInfoEb
   fun:_ZL33initializePostRASchedulerPassOnceRN4llvm12PassRegistryE.llvm.12789740808609932502
   fun:__pthread_once_slow
   fun:UnknownInlinedFun
   fun:UnknownInlinedFun
   fun:UnknownInlinedFun
   fun:UnknownInlinedFun
   fun:_ZN4llvm17initializeCodeGenERNS_12PassRegistryE
   fun:_ZN4llvm16TargetPassConfigC1ERNS_17LLVMTargetMachineERNS_6legacy15PassManagerBaseE
   fun:AMDGPUPassConfig
   fun:GCNPassConfig
   fun:_ZN4llvm16GCNTargetMachine16createPassConfigERNS_6legacy15PassManagerBaseE
   fun:addPassesToGenerateCode
   fun:_ZN4llvm17LLVMTargetMachine19addPassesToEmitFileERNS_6legacy15PassManagerBaseERNS_17raw_pwrite_streamEPS4_NS_15CodeGenFileTypeEbPNS_28MachineModuleInfoWrapperPassE
   fun:ac_create_llvm_passes
   fun:si_init_compiler
   fun:radeonsi_screen_create_impl
   fun:amdgpu_winsys_create
}
{
   <insert_a_suppression_name_here>
   Memcheck:Leak
   match-leak-kinds: reachable
   fun:_Znwm
   fun:UnknownInlinedFun
   fun:UnknownInlinedFun
   fun:allocateWithKey<llvm::MallocAllocator>
   fun:Create<llvm::MallocAllocator>
   fun:try_emplace<>
   fun:operator[]
   fun:_ZN4llvm12PassRegistry12registerPassERKNS_8PassInfoEb
   fun:_ZL25initializeRABasicPassOnceRN4llvm12PassRegistryE.llvm.5204174629127559520
   fun:__pthread_once_slow
   fun:UnknownInlinedFun
   fun:UnknownInlinedFun
   fun:UnknownInlinedFun
   fun:UnknownInlinedFun
   fun:_ZN4llvm17initializeCodeGenERNS_12PassRegistryE
   fun:_ZN4llvm16TargetPassConfigC1ERNS_17LLVMTargetMachineERNS_6legacy15PassManagerBaseE
   fun:AMDGPUPassConfig
   fun:GCNPassConfig
   fun:_ZN4llvm16GCNTargetMachine16createPassConfigERNS_6legacy15PassManagerBaseE
   fun:addPassesToGenerateCode
   fun:_ZN4llvm17LLVMTargetMachine19addPassesToEmitFileERNS_6legacy15PassManagerBaseERNS_17raw_pwrite_streamEPS4_NS_15CodeGenFileTypeEbPNS_28MachineModuleInfoWrapperPassE
   fun:ac_create_llvm_passes
   fun:si_init_compiler
   fun:radeonsi_screen_create_impl
   fun:amdgpu_winsys_create
}
{
   <insert_a_suppression_name_here>
   Memcheck:Leak
   match-leak-kinds: reachable
   fun:_Znwm
   fun:UnknownInlinedFun
   fun:UnknownInlinedFun
   fun:allocateWithKey<llvm::MallocAllocator>
   fun:Create<llvm::MallocAllocator>
   fun:try_emplace<>
   fun:operator[]
   fun:_ZN4llvm12PassRegistry12registerPassERKNS_8PassInfoEb
   fun:_ZL31initializeSjLjEHPreparePassOnceRN4llvm12PassRegistryE.llvm.2238391639186759698
   fun:__pthread_once_slow
   fun:UnknownInlinedFun
   fun:UnknownInlinedFun
   fun:UnknownInlinedFun
   fun:UnknownInlinedFun
   fun:_ZN4llvm17initializeCodeGenERNS_12PassRegistryE
   fun:_ZN4llvm16TargetPassConfigC1ERNS_17LLVMTargetMachineERNS_6legacy15PassManagerBaseE
   fun:AMDGPUPassConfig
   fun:GCNPassConfig
   fun:_ZN4llvm16GCNTargetMachine16createPassConfigERNS_6legacy15PassManagerBaseE
   fun:addPassesToGenerateCode
   fun:_ZN4llvm17LLVMTargetMachine19addPassesToEmitFileERNS_6legacy15PassManagerBaseERNS_17raw_pwrite_streamEPS4_NS_15CodeGenFileTypeEbPNS_28MachineModuleInfoWrapperPassE
   fun:ac_create_llvm_passes
   fun:si_init_compiler
   fun:radeonsi_screen_create_impl
   fun:amdgpu_winsys_create
}
{
   <insert_a_suppression_name_here>
   Memcheck:Leak
   match-leak-kinds: reachable
   fun:_Znwm
   fun:UnknownInlinedFun
   fun:UnknownInlinedFun
   fun:allocateWithKey<llvm::MallocAllocator>
   fun:Create<llvm::MallocAllocator>
   fun:try_emplace<>
   fun:operator[]
   fun:_ZN4llvm12PassRegistry12registerPassERKNS_8PassInfoEb
   fun:_ZL31initializeWasmEHPreparePassOnceRN4llvm12PassRegistryE.llvm.6887814740842855659
   fun:__pthread_once_slow
   fun:UnknownInlinedFun
   fun:UnknownInlinedFun
   fun:UnknownInlinedFun
   fun:UnknownInlinedFun
   fun:_ZN4llvm17initializeCodeGenERNS_12PassRegistryE
   fun:_ZN4llvm16TargetPassConfigC1ERNS_17LLVMTargetMachineERNS_6legacy15PassManagerBaseE
   fun:AMDGPUPassConfig
   fun:GCNPassConfig
   fun:_ZN4llvm16GCNTargetMachine16createPassConfigERNS_6legacy15PassManagerBaseE
   fun:addPassesToGenerateCode
   fun:_ZN4llvm17LLVMTargetMachine19addPassesToEmitFileERNS_6legacy15PassManagerBaseERNS_17raw_pwrite_streamEPS4_NS_15CodeGenFileTypeEbPNS_28MachineModuleInfoWrapperPassE
   fun:ac_create_llvm_passes
   fun:si_init_compiler
   fun:radeonsi_screen_create_impl
   fun:amdgpu_winsys_create
}
{
   <insert_a_suppression_name_here>
   Memcheck:Leak
   match-leak-kinds: reachable
   fun:malloc
   fun:malloc
   fun:strdup
   fun:_dl_map_object
   fun:dl_open_worker_begin
   fun:_dl_catch_exception
   fun:dl_open_worker
   fun:_dl_catch_exception
   fun:_dl_open
   fun:dlopen_doit
   fun:_dl_catch_exception
   fun:_dl_catch_error
   fun:_dlerror_run
}
{
   <insert_a_suppression_name_here>
   Memcheck:Leak
   match-leak-kinds: reachable
   fun:_Znwm
   fun:UnknownInlinedFun
   fun:UnknownInlinedFun
   fun:allocateWithKey<llvm::MallocAllocator>
   fun:Create<llvm::MallocAllocator, llvm::cl::Option *>
   fun:try_emplace<llvm::cl::Option *>
   fun:insert
   fun:_ZN12_GLOBAL__N_117CommandLineParser9addOptionEPN4llvm2cl6OptionEPNS2_10SubCommandE
   fun:_ZN4llvm2cl6Option11addArgumentEv
   fun:done
   fun:opt<char[15], llvm::cl::initializer<int>, llvm::cl::OptionHidden>
   fun:UnknownInlinedFun
   fun:_GLOBAL__sub_I_IfConversion.cpp
   fun:call_init
   fun:call_init
   fun:_dl_init
   fun:_dl_catch_exception
   fun:dl_open_worker
   fun:_dl_catch_exception
   fun:_dl_open
   fun:dlopen_doit
   fun:_dl_catch_exception
}
{
   <insert_a_suppression_name_here>
   Memcheck:Leak
   match-leak-kinds: reachable
   fun:_Znwm
   fun:UnknownInlinedFun
   fun:UnknownInlinedFun
   fun:allocateWithKey<llvm::MallocAllocator>
   fun:Create<llvm::MallocAllocator, llvm::cl::Option *>
   fun:try_emplace<llvm::cl::Option *>
   fun:insert
   fun:_ZN12_GLOBAL__N_117CommandLineParser9addOptionEPN4llvm2cl6OptionEPNS2_10SubCommandE
   fun:_ZN4llvm2cl6Option11addArgumentEv
   fun:UnknownInlinedFun
   fun:_GLOBAL__sub_I_MachineFunctionSplitter.cpp
   fun:call_init
   fun:call_init
   fun:_dl_init
   fun:_dl_catch_exception
   fun:dl_open_worker
   fun:_dl_catch_exception
   fun:_dl_open
   fun:dlopen_doit
   fun:_dl_catch_exception
}
{
   <insert_a_suppression_name_here>
   Memcheck:Leak
   match-leak-kinds: reachable
   fun:_Znwm
   fun:UnknownInlinedFun
   fun:UnknownInlinedFun
   fun:allocateWithKey<llvm::MallocAllocator>
   fun:Create<llvm::MallocAllocator, llvm::cl::Option *>
   fun:try_emplace<llvm::cl::Option *>
   fun:insert
   fun:_ZN12_GLOBAL__N_117CommandLineParser9addOptionEPN4llvm2cl6OptionEPNS2_10SubCommandE
   fun:_ZN4llvm2cl6Option11addArgumentEv
   fun:UnknownInlinedFun
   fun:_GLOBAL__sub_I_MacroFusion.cpp
   fun:call_init
   fun:call_init
   fun:_dl_init
   fun:_dl_catch_exception
   fun:dl_open_worker
   fun:_dl_catch_exception
   fun:_dl_open
   fun:dlopen_doit
   fun:_dl_catch_exception
}
{
   <insert_a_suppression_name_here>
   Memcheck:Leak
   match-leak-kinds: reachable
   fun:_Znwm
   fun:UnknownInlinedFun
   fun:UnknownInlinedFun
   fun:allocateWithKey<llvm::MallocAllocator>
   fun:Create<llvm::MallocAllocator, llvm::cl::Option *>
   fun:try_emplace<llvm::cl::Option *>
   fun:insert
   fun:_ZN12_GLOBAL__N_117CommandLineParser9addOptionEPN4llvm2cl6OptionEPNS2_10SubCommandE
   fun:_ZN4llvm2cl6Option11addArgumentEv
   fun:done
   fun:opt<char[15], llvm::cl::OptionHidden, llvm::cl::desc, llvm::cl::initializer<int> >
   fun:UnknownInlinedFun
   fun:_GLOBAL__sub_I_RegAllocGreedy.cpp
   fun:call_init
   fun:call_init
   fun:_dl_init
   fun:_dl_catch_exception
   fun:dl_open_worker
   fun:_dl_catch_exception
   fun:_dl_open
   fun:dlopen_doit
   fun:_dl_catch_exception
}
{
   <insert_a_suppression_name_here>
   Memcheck:Leak
   match-leak-kinds: reachable
   fun:_Znwm
   fun:UnknownInlinedFun
   fun:UnknownInlinedFun
   fun:allocateWithKey<llvm::MallocAllocator>
   fun:Create<llvm::MallocAllocator, llvm::cl::Option *>
   fun:try_emplace<llvm::cl::Option *>
   fun:insert
   fun:_ZN12_GLOBAL__N_117CommandLineParser9addOptionEPN4llvm2cl6OptionEPNS2_10SubCommandE
   fun:_ZN4llvm2cl6Option11addArgumentEv
   fun:UnknownInlinedFun
   fun:_GLOBAL__sub_I_RegisterUsageInfo.cpp
   fun:call_init
   fun:call_init
   fun:_dl_init
   fun:_dl_catch_exception
   fun:dl_open_worker
   fun:_dl_catch_exception
   fun:_dl_open
   fun:dlopen_doit
   fun:_dl_catch_exception
}
{
   <insert_a_suppression_name_here>
   Memcheck:Leak
   match-leak-kinds: reachable
   fun:_Znwm
   fun:UnknownInlinedFun
   fun:UnknownInlinedFun
   fun:allocateWithKey<llvm::MallocAllocator>
   fun:Create<llvm::MallocAllocator, llvm::cl::Option *>
   fun:try_emplace<llvm::cl::Option *>
   fun:insert
   fun:_ZN12_GLOBAL__N_117CommandLineParser9addOptionEPN4llvm2cl6OptionEPNS2_10SubCommandE
   fun:_ZN4llvm2cl6Option11addArgumentEv
   fun:done
   fun:opt<char[15], llvm::cl::initializer<unsigned int>, llvm::cl::OptionHidden>
   fun:UnknownInlinedFun
   fun:_GLOBAL__sub_I_TailDuplicator.cpp
   fun:call_init
   fun:call_init
   fun:_dl_init
   fun:_dl_catch_exception
   fun:dl_open_worker
   fun:_dl_catch_exception
   fun:_dl_open
   fun:dlopen_doit
   fun:_dl_catch_exception
}
{
   <insert_a_suppression_name_here>
   Memcheck:Leak
   match-leak-kinds: reachable
   fun:_Znwm
   fun:UnknownInlinedFun
   fun:UnknownInlinedFun
   fun:allocateWithKey<llvm::MallocAllocator>
   fun:Create<llvm::MallocAllocator, llvm::cl::Option *>
   fun:try_emplace<llvm::cl::Option *>
   fun:insert
   fun:_ZN12_GLOBAL__N_117CommandLineParser9addOptionEPN4llvm2cl6OptionEPNS2_10SubCommandE
   fun:_ZN4llvm2cl6Option11addArgumentEv
   fun:__cxx_global_var_init.130
   fun:_GLOBAL__sub_I_TargetPassConfig.cpp
   fun:call_init
   fun:call_init
   fun:_dl_init
   fun:_dl_catch_exception
   fun:dl_open_worker
   fun:_dl_catch_exception
   fun:_dl_open
   fun:dlopen_doit
   fun:_dl_catch_exception
}
{
   <insert_a_suppression_name_here>
   Memcheck:Leak
   match-leak-kinds: reachable
   fun:_Znwm
   fun:UnknownInlinedFun
   fun:UnknownInlinedFun
   fun:allocateWithKey<llvm::MallocAllocator>
   fun:Create<llvm::MallocAllocator, llvm::cl::Option *>
   fun:try_emplace<llvm::cl::Option *>
   fun:insert
   fun:_ZN12_GLOBAL__N_117CommandLineParser9addOptionEPN4llvm2cl6OptionEPNS2_10SubCommandE
   fun:_ZN4llvm2cl6Option11addArgumentEv
   fun:UnknownInlinedFun
   fun:_GLOBAL__sub_I_Debugify.cpp
   fun:call_init
   fun:call_init
   fun:_dl_init
   fun:_dl_catch_exception
   fun:dl_open_worker
   fun:_dl_catch_exception
   fun:_dl_open
   fun:dlopen_doit
   fun:_dl_catch_exception
}
{
   <insert_a_suppression_name_here>
   Memcheck:Leak
   match-leak-kinds: reachable
   fun:_Znwm
   fun:UnknownInlinedFun
   fun:UnknownInlinedFun
   fun:allocateWithKey<llvm::MallocAllocator>
   fun:Create<llvm::MallocAllocator, llvm::cl::Option *>
   fun:try_emplace<llvm::cl::Option *>
   fun:insert
   fun:_ZN12_GLOBAL__N_117CommandLineParser9addOptionEPN4llvm2cl6OptionEPNS2_10SubCommandE
   fun:_ZN4llvm2cl6Option11addArgumentEv
   fun:done
   fun:opt<char[15], llvm::cl::desc, llvm::cl::ValuesClass, llvm::cl::initializer<(anonymous namespace)::Level> >
   fun:UnknownInlinedFun
   fun:_GLOBAL__sub_I_Debugify.cpp
   fun:call_init
   fun:call_init
   fun:_dl_init
   fun:_dl_catch_exception
   fun:dl_open_worker
   fun:_dl_catch_exception
   fun:_dl_open
   fun:dlopen_doit
   fun:_dl_catch_exception
}
{
   <insert_a_suppression_name_here>
   Memcheck:Leak
   match-leak-kinds: reachable
   fun:_Znwm
   fun:UnknownInlinedFun
   fun:UnknownInlinedFun
   fun:allocateWithKey<llvm::MallocAllocator>
   fun:Create<llvm::MallocAllocator>
   fun:try_emplace<>
   fun:operator[]
   fun:_ZN4llvm12PassRegistry12registerPassERKNS_8PassInfoEb
   fun:RegisterPass
   fun:UnknownInlinedFun
   fun:_GLOBAL__sub_I_Debugify.cpp
   fun:call_init
   fun:call_init
   fun:_dl_init
   fun:_dl_catch_exception
   fun:dl_open_worker
   fun:_dl_catch_exception
   fun:_dl_open
   fun:dlopen_doit
   fun:_dl_catch_exception
   fun:_dl_catch_error
}
{
   <insert_a_suppression_name_here>
   Memcheck:Leak
   match-leak-kinds: reachable
   fun:_Znwm
   fun:UnknownInlinedFun
   fun:UnknownInlinedFun
   fun:allocateWithKey<llvm::MallocAllocator>
   fun:Create<llvm::MallocAllocator, llvm::cl::Option *>
   fun:try_emplace<llvm::cl::Option *>
   fun:insert
   fun:_ZN12_GLOBAL__N_117CommandLineParser9addOptionEPN4llvm2cl6OptionEPNS2_10SubCommandE
   fun:_ZN4llvm2cl6Option11addArgumentEv
   fun:__cxx_global_var_init.111
   fun:_GLOBAL__sub_I_AddressSanitizer.cpp
   fun:call_init
   fun:call_init
   fun:_dl_init
   fun:_dl_catch_exception
   fun:dl_open_worker
   fun:_dl_catch_exception
   fun:_dl_open
   fun:dlopen_doit
   fun:_dl_catch_exception
}
{
   <insert_a_suppression_name_here>
   Memcheck:Leak
   match-leak-kinds: reachable
   fun:_Znwm
   fun:UnknownInlinedFun
   fun:UnknownInlinedFun
   fun:allocateWithKey<llvm::MallocAllocator>
   fun:Create<llvm::MallocAllocator, llvm::cl::Option *>
   fun:try_emplace<llvm::cl::Option *>
   fun:insert
   fun:_ZN12_GLOBAL__N_117CommandLineParser9addOptionEPN4llvm2cl6OptionEPNS2_10SubCommandE
   fun:_ZN4llvm2cl6Option11addArgumentEv
   fun:__cxx_global_var_init.148
   fun:_GLOBAL__sub_I_AddressSanitizer.cpp
   fun:call_init
   fun:call_init
   fun:_dl_init
   fun:_dl_catch_exception
   fun:dl_open_worker
   fun:_dl_catch_exception
   fun:_dl_open
   fun:dlopen_doit
   fun:_dl_catch_exception
}
{
   <insert_a_suppression_name_here>
   Memcheck:Leak
   match-leak-kinds: reachable
   fun:_Znwm
   fun:UnknownInlinedFun
   fun:UnknownInlinedFun
   fun:allocateWithKey<llvm::MallocAllocator>
   fun:Create<llvm::MallocAllocator, llvm::cl::Option *>
   fun:try_emplace<llvm::cl::Option *>
   fun:insert
   fun:_ZN12_GLOBAL__N_117CommandLineParser9addOptionEPN4llvm2cl6OptionEPNS2_10SubCommandE
   fun:_ZN4llvm2cl6Option11addArgumentEv
   fun:__cxx_global_var_init.151
   fun:_GLOBAL__sub_I_AddressSanitizer.cpp
   fun:call_init
   fun:call_init
   fun:_dl_init
   fun:_dl_catch_exception
   fun:dl_open_worker
   fun:_dl_catch_exception
   fun:_dl_open
   fun:dlopen_doit
   fun:_dl_catch_exception
}
{
   <insert_a_suppression_name_here>
   Memcheck:Leak
   match-leak-kinds: reachable
   fun:_Znwm
   fun:UnknownInlinedFun
   fun:UnknownInlinedFun
   fun:allocateWithKey<llvm::MallocAllocator>
   fun:Create<llvm::MallocAllocator, llvm::cl::Option *>
   fun:try_emplace<llvm::cl::Option *>
   fun:insert
   fun:_ZN12_GLOBAL__N_117CommandLineParser9addOptionEPN4llvm2cl6OptionEPNS2_10SubCommandE
   fun:_ZN4llvm2cl6Option11addArgumentEv
   fun:__cxx_global_var_init.116
   fun:_GLOBAL__sub_I_PGOInstrumentation.cpp
   fun:call_init
   fun:call_init
   fun:_dl_init
   fun:_dl_catch_exception
   fun:dl_open_worker
   fun:_dl_catch_exception
   fun:_dl_open
   fun:dlopen_doit
   fun:_dl_catch_exception
}
{
   <insert_a_suppression_name_here>
   Memcheck:Leak
   match-leak-kinds: reachable
   fun:_Znwm
   fun:UnknownInlinedFun
   fun:UnknownInlinedFun
   fun:allocateWithKey<llvm::MallocAllocator>
   fun:Create<llvm::MallocAllocator, llvm::cl::Option *>
   fun:try_emplace<llvm::cl::Option *>
   fun:insert
   fun:_ZN12_GLOBAL__N_117CommandLineParser9addOptionEPN4llvm2cl6OptionEPNS2_10SubCommandE
   fun:_ZN4llvm2cl6Option11addArgumentEv
   fun:UnknownInlinedFun
   fun:_GLOBAL__sub_I_HWAddressSanitizer.cpp
   fun:call_init
   fun:call_init
   fun:_dl_init
   fun:_dl_catch_exception
   fun:dl_open_worker
   fun:_dl_catch_exception
   fun:_dl_open
   fun:dlopen_doit
   fun:_dl_catch_exception
}
{
   <insert_a_suppression_name_here>
   Memcheck:Leak
   match-leak-kinds: reachable
   fun:_Znwm
   fun:UnknownInlinedFun
   fun:UnknownInlinedFun
   fun:allocateWithKey<llvm::MallocAllocator>
   fun:Create<llvm::MallocAllocator, llvm::cl::Option *>
   fun:try_emplace<llvm::cl::Option *>
   fun:insert
   fun:_ZN12_GLOBAL__N_117CommandLineParser9addOptionEPN4llvm2cl6OptionEPNS2_10SubCommandE
   fun:_ZN4llvm2cl6Option11addArgumentEv
   fun:UnknownInlinedFun
   fun:_GLOBAL__sub_I_ConstantHoisting.cpp
   fun:call_init
   fun:call_init
   fun:_dl_init
   fun:_dl_catch_exception
   fun:dl_open_worker
   fun:_dl_catch_exception
   fun:_dl_open
   fun:dlopen_doit
   fun:_dl_catch_exception
}
{
   <insert_a_suppression_name_here>
   Memcheck:Leak
   match-leak-kinds: reachable
   fun:_Znwm
   fun:UnknownInlinedFun
   fun:UnknownInlinedFun
   fun:allocateWithKey<llvm::MallocAllocator>
   fun:Create<llvm::MallocAllocator, llvm::cl::Option *>
   fun:try_emplace<llvm::cl::Option *>
   fun:insert
   fun:_ZN12_GLOBAL__N_117CommandLineParser9addOptionEPN4llvm2cl6OptionEPNS2_10SubCommandE
   fun:_ZN4llvm2cl6Option11addArgumentEv
   fun:UnknownInlinedFun
   fun:_GLOBAL__sub_I_IndVarSimplify.cpp
   fun:call_init
   fun:call_init
   fun:_dl_init
   fun:_dl_catch_exception
   fun:dl_open_worker
   fun:_dl_catch_exception
   fun:_dl_open
   fun:dlopen_doit
   fun:_dl_catch_exception
}
{
   <insert_a_suppression_name_here>
   Memcheck:Leak
   match-leak-kinds: reachable
   fun:_Znwm
   fun:UnknownInlinedFun
   fun:UnknownInlinedFun
   fun:allocateWithKey<llvm::MallocAllocator>
   fun:Create<llvm::MallocAllocator, llvm::cl::Option *>
   fun:try_emplace<llvm::cl::Option *>
   fun:insert
   fun:_ZN12_GLOBAL__N_117CommandLineParser9addOptionEPN4llvm2cl6OptionEPNS2_10SubCommandE
   fun:_ZN4llvm2cl6Option11addArgumentEv
   fun:UnknownInlinedFun
   fun:_GLOBAL__sub_I_LoopStrengthReduce.cpp
   fun:call_init
   fun:call_init
   fun:_dl_init
   fun:_dl_catch_exception
   fun:dl_open_worker
   fun:_dl_catch_exception
   fun:_dl_open
   fun:dlopen_doit
   fun:_dl_catch_exception
}
{
   <insert_a_suppression_name_here>
   Memcheck:Leak
   match-leak-kinds: reachable
   fun:_Znwm
   fun:UnknownInlinedFun
   fun:UnknownInlinedFun
   fun:allocateWithKey<llvm::MallocAllocator>
   fun:Create<llvm::MallocAllocator, llvm::cl::Option *>
   fun:try_emplace<llvm::cl::Option *>
   fun:insert
   fun:_ZN12_GLOBAL__N_117CommandLineParser9addOptionEPN4llvm2cl6OptionEPNS2_10SubCommandE
   fun:_ZN4llvm2cl6Option11addArgumentEv
   fun:UnknownInlinedFun
   fun:_GLOBAL__sub_I_LoopUnrollPass.cpp
   fun:call_init
   fun:call_init
   fun:_dl_init
   fun:_dl_catch_exception
   fun:dl_open_worker
   fun:_dl_catch_exception
   fun:_dl_open
   fun:dlopen_doit
   fun:_dl_catch_exception
}
{
   <insert_a_suppression_name_here>
   Memcheck:Leak
   match-leak-kinds: reachable
   fun:_Znwm
   fun:UnknownInlinedFun
   fun:UnknownInlinedFun
   fun:allocateWithKey<llvm::MallocAllocator>
   fun:Create<llvm::MallocAllocator, llvm::cl::Option *>
   fun:try_emplace<llvm::cl::Option *>
   fun:insert
   fun:_ZN12_GLOBAL__N_117CommandLineParser9addOptionEPN4llvm2cl6OptionEPNS2_10SubCommandE
   fun:_ZN4llvm2cl6Option11addArgumentEv
   fun:UnknownInlinedFun
   fun:_GLOBAL__sub_I_TLSVariableHoist.cpp
   fun:call_init
   fun:call_init
   fun:_dl_init
   fun:_dl_catch_exception
   fun:dl_open_worker
   fun:_dl_catch_exception
   fun:_dl_open
   fun:dlopen_doit
   fun:_dl_catch_exception
}
{
   <insert_a_suppression_name_here>
   Memcheck:Leak
   match-leak-kinds: reachable
   fun:_Znwm
   fun:UnknownInlinedFun
   fun:UnknownInlinedFun
   fun:allocateWithKey<llvm::MallocAllocator>
   fun:Create<llvm::MallocAllocator, llvm::cl::Option *>
   fun:try_emplace<llvm::cl::Option *>
   fun:insert
   fun:_ZN12_GLOBAL__N_117CommandLineParser9addOptionEPN4llvm2cl6OptionEPNS2_10SubCommandE
   fun:_ZN4llvm2cl6Option11addArgumentEv
   fun:UnknownInlinedFun
   fun:_GLOBAL__sub_I_PartialInlining.cpp
   fun:call_init
   fun:call_init
   fun:_dl_init
   fun:_dl_catch_exception
   fun:dl_open_worker
   fun:_dl_catch_exception
   fun:_dl_open
   fun:dlopen_doit
   fun:_dl_catch_exception
}
{
   <insert_a_suppression_name_here>
   Memcheck:Leak
   match-leak-kinds: reachable
   fun:_Znwm
   fun:UnknownInlinedFun
   fun:UnknownInlinedFun
   fun:allocateWithKey<llvm::MallocAllocator>
   fun:Create<llvm::MallocAllocator, llvm::cl::Option *>
   fun:try_emplace<llvm::cl::Option *>
   fun:insert
   fun:_ZN12_GLOBAL__N_117CommandLineParser9addOptionEPN4llvm2cl6OptionEPNS2_10SubCommandE
   fun:_ZN4llvm2cl6Option11addArgumentEv
   fun:__cxx_global_var_init.37
   fun:_GLOBAL__sub_I_PassManagerBuilder.cpp
   fun:call_init
   fun:call_init
   fun:_dl_init
   fun:_dl_catch_exception
   fun:dl_open_worker
   fun:_dl_catch_exception
   fun:_dl_open
   fun:dlopen_doit
   fun:_dl_catch_exception
}
{
   <insert_a_suppression_name_here>
   Memcheck:Leak
   match-leak-kinds: reachable
   fun:_Znwm
   fun:UnknownInlinedFun
   fun:UnknownInlinedFun
   fun:allocateWithKey<llvm::MallocAllocator>
   fun:Create<llvm::MallocAllocator, llvm::cl::Option *>
   fun:try_emplace<llvm::cl::Option *>
   fun:insert
   fun:_ZN12_GLOBAL__N_117CommandLineParser9addOptionEPN4llvm2cl6OptionEPNS2_10SubCommandE
   fun:_ZN4llvm2cl6Option11addArgumentEv
   fun:UnknownInlinedFun
   fun:_GLOBAL__sub_I_DependenceAnalysis.cpp
   fun:call_init
   fun:call_init
   fun:_dl_init
   fun:_dl_catch_exception
   fun:dl_open_worker
   fun:_dl_catch_exception
   fun:_dl_open
   fun:dlopen_doit
   fun:_dl_catch_exception
}
{
   <insert_a_suppression_name_here>
   Memcheck:Leak
   match-leak-kinds: reachable
   fun:_Znwm
   fun:UnknownInlinedFun
   fun:UnknownInlinedFun
   fun:allocateWithKey<llvm::MallocAllocator>
   fun:Create<llvm::MallocAllocator, llvm::cl::Option *>
   fun:try_emplace<llvm::cl::Option *>
   fun:insert
   fun:_ZN12_GLOBAL__N_117CommandLineParser9addOptionEPN4llvm2cl6OptionEPNS2_10SubCommandE
   fun:_ZN4llvm2cl6Option11addArgumentEv
   fun:UnknownInlinedFun
   fun:_GLOBAL__sub_I_ScalarEvolution.cpp
   fun:call_init
   fun:call_init
   fun:_dl_init
   fun:_dl_catch_exception
   fun:dl_open_worker
   fun:_dl_catch_exception
   fun:_dl_open
   fun:dlopen_doit
   fun:_dl_catch_exception
}
{
   <insert_a_suppression_name_here>
   Memcheck:Leak
   match-leak-kinds: reachable
   fun:_Znwm
   fun:UnknownInlinedFun
   fun:UnknownInlinedFun
   fun:allocateWithKey<llvm::MallocAllocator>
   fun:Create<llvm::MallocAllocator, llvm::cl::Option *>
   fun:try_emplace<llvm::cl::Option *>
   fun:insert
   fun:_ZN12_GLOBAL__N_117CommandLineParser9addOptionEPN4llvm2cl6OptionEPNS2_10SubCommandE
   fun:_ZN4llvm2cl6Option11addArgumentEv
   fun:done
   fun:opt<char[15], llvm::cl::OptionHidden, llvm::cl::desc, llvm::cl::initializer<llvm::TargetLibraryInfoImpl::VectorLibrary>, llvm::cl::ValuesClass>
   fun:UnknownInlinedFun
   fun:_GLOBAL__sub_I_TargetLibraryInfo.cpp
   fun:call_init
   fun:call_init
   fun:_dl_init
   fun:_dl_catch_exception
   fun:dl_open_worker
   fun:_dl_catch_exception
   fun:_dl_open
   fun:dlopen_doit
   fun:_dl_catch_exception
}
{
   <insert_a_suppression_name_here>
   Memcheck:Leak
   match-leak-kinds: reachable
   fun:_Znwm
   fun:UnknownInlinedFun
   fun:UnknownInlinedFun
   fun:allocateWithKey<llvm::MallocAllocator>
   fun:Create<llvm::MallocAllocator, llvm::cl::Option *>
   fun:try_emplace<llvm::cl::Option *>
   fun:insert
   fun:_ZN12_GLOBAL__N_117CommandLineParser9addOptionEPN4llvm2cl6OptionEPNS2_10SubCommandE
   fun:_ZN4llvm2cl6Option11addArgumentEv
   fun:done
   fun:opt<char[15], llvm::cl::desc, llvm::cl::OptionHidden>
   fun:UnknownInlinedFun
   fun:_GLOBAL__sub_I_LTOCodeGenerator.cpp
   fun:call_init
   fun:call_init
   fun:_dl_init
   fun:_dl_catch_exception
   fun:dl_open_worker
   fun:_dl_catch_exception
   fun:_dl_open
   fun:dlopen_doit
   fun:_dl_catch_exception
}
{
   <insert_a_suppression_name_here>
   Memcheck:Leak
   match-leak-kinds: reachable
   fun:_Znwm
   fun:UnknownInlinedFun
   fun:UnknownInlinedFun
   fun:allocateWithKey<llvm::MallocAllocator>
   fun:Create<llvm::MallocAllocator, llvm::cl::Option *>
   fun:try_emplace<llvm::cl::Option *>
   fun:insert
   fun:_ZN12_GLOBAL__N_117CommandLineParser9addOptionEPN4llvm2cl6OptionEPNS2_10SubCommandE
   fun:_ZN4llvm2cl6Option11addArgumentEv
   fun:done
   fun:opt<char[15], llvm::cl::initializer<bool>, llvm::cl::desc>
   fun:UnknownInlinedFun
   fun:_GLOBAL__sub_I_AArch64Subtarget.cpp
   fun:call_init
   fun:call_init
   fun:_dl_init
   fun:_dl_catch_exception
   fun:dl_open_worker
   fun:_dl_catch_exception
   fun:_dl_open
   fun:dlopen_doit
   fun:_dl_catch_exception
}
{
   <insert_a_suppression_name_here>
   Memcheck:Leak
   match-leak-kinds: reachable
   fun:_Znwm
   fun:UnknownInlinedFun
   fun:UnknownInlinedFun
   fun:allocateWithKey<llvm::MallocAllocator>
   fun:Create<llvm::MallocAllocator, llvm::cl::Option *>
   fun:try_emplace<llvm::cl::Option *>
   fun:insert
   fun:_ZN12_GLOBAL__N_117CommandLineParser9addOptionEPN4llvm2cl6OptionEPNS2_10SubCommandE
   fun:_ZN4llvm2cl6Option11addArgumentEv
   fun:UnknownInlinedFun
   fun:_GLOBAL__sub_I_AMDGPULibCalls.cpp
   fun:call_init
   fun:call_init
   fun:_dl_init
   fun:_dl_catch_exception
   fun:dl_open_worker
   fun:_dl_catch_exception
   fun:_dl_open
   fun:dlopen_doit
   fun:_dl_catch_exception
}
{
   <insert_a_suppression_name_here>
   Memcheck:Leak
   match-leak-kinds: reachable
   fun:_Znwm
   fun:UnknownInlinedFun
   fun:UnknownInlinedFun
   fun:allocateWithKey<llvm::MallocAllocator>
   fun:Create<llvm::MallocAllocator, llvm::cl::Option *>
   fun:try_emplace<llvm::cl::Option *>
   fun:insert
   fun:_ZN12_GLOBAL__N_117CommandLineParser9addOptionEPN4llvm2cl6OptionEPNS2_10SubCommandE
   fun:_ZN4llvm2cl6Option11addArgumentEv
   fun:done
   fun:opt<char[15], llvm::cl::initializer<bool>, llvm::cl::OptionHidden>
   fun:UnknownInlinedFun
   fun:_GLOBAL__sub_I_ARMSubtarget.cpp
   fun:call_init
   fun:call_init
   fun:_dl_init
   fun:_dl_catch_exception
   fun:dl_open_worker
   fun:_dl_catch_exception
   fun:_dl_open
   fun:dlopen_doit
   fun:_dl_catch_exception
}
{
   <insert_a_suppression_name_here>
   Memcheck:Leak
   match-leak-kinds: reachable
   fun:_Znwm
   fun:UnknownInlinedFun
   fun:UnknownInlinedFun
   fun:allocateWithKey<llvm::MallocAllocator>
   fun:Create<llvm::MallocAllocator, llvm::cl::Option *>
   fun:try_emplace<llvm::cl::Option *>
   fun:insert
   fun:_ZN12_GLOBAL__N_117CommandLineParser9addOptionEPN4llvm2cl6OptionEPNS2_10SubCommandE
   fun:_ZN4llvm2cl6Option11addArgumentEv
   fun:UnknownInlinedFun
   fun:_GLOBAL__sub_I_Thumb2InstrInfo.cpp
   fun:call_init
   fun:call_init
   fun:_dl_init
   fun:_dl_catch_exception
   fun:dl_open_worker
   fun:_dl_catch_exception
   fun:_dl_open
   fun:dlopen_doit
   fun:_dl_catch_exception
}
{
   <insert_a_suppression_name_here>
   Memcheck:Leak
   match-leak-kinds: reachable
   fun:_Znwm
   fun:UnknownInlinedFun
   fun:UnknownInlinedFun
   fun:allocateWithKey<llvm::MallocAllocator>
   fun:Create<llvm::MallocAllocator, llvm::cl::Option *>
   fun:try_emplace<llvm::cl::Option *>
   fun:insert
   fun:_ZN12_GLOBAL__N_117CommandLineParser9addOptionEPN4llvm2cl6OptionEPNS2_10SubCommandE
   fun:_ZN4llvm2cl6Option11addArgumentEv
   fun:UnknownInlinedFun
   fun:_GLOBAL__sub_I_HexagonBitSimplify.cpp
   fun:call_init
   fun:call_init
   fun:_dl_init
   fun:_dl_catch_exception
   fun:dl_open_worker
   fun:_dl_catch_exception
   fun:_dl_open
   fun:dlopen_doit
   fun:_dl_catch_exception
}
{
   <insert_a_suppression_name_here>
   Memcheck:Leak
   match-leak-kinds: reachable
   fun:_Znwm
   fun:UnknownInlinedFun
   fun:UnknownInlinedFun
   fun:allocateWithKey<llvm::MallocAllocator>
   fun:Create<llvm::MallocAllocator, llvm::cl::Option *>
   fun:try_emplace<llvm::cl::Option *>
   fun:insert
   fun:_ZN12_GLOBAL__N_117CommandLineParser9addOptionEPN4llvm2cl6OptionEPNS2_10SubCommandE
   fun:_ZN4llvm2cl6Option11addArgumentEv
   fun:done
   fun:opt<char[15], llvm::cl::initializer<unsigned int>, llvm::cl::OptionHidden, llvm::cl::desc>
   fun:UnknownInlinedFun
   fun:_GLOBAL__sub_I_HexagonGenExtract.cpp
   fun:call_init
   fun:call_init
   fun:_dl_init
   fun:_dl_catch_exception
   fun:dl_open_worker
   fun:_dl_catch_exception
   fun:_dl_open
   fun:dlopen_doit
   fun:_dl_catch_exception
}
{
   <insert_a_suppression_name_here>
   Memcheck:Leak
   match-leak-kinds: reachable
   fun:_Znwm
   fun:UnknownInlinedFun
   fun:UnknownInlinedFun
   fun:allocateWithKey<llvm::MallocAllocator>
   fun:Create<llvm::MallocAllocator, llvm::cl::Option *>
   fun:try_emplace<llvm::cl::Option *>
   fun:insert
   fun:_ZN12_GLOBAL__N_117CommandLineParser9addOptionEPN4llvm2cl6OptionEPNS2_10SubCommandE
   fun:_ZN4llvm2cl6Option11addArgumentEv
   fun:done
   fun:opt<char[15], llvm::cl::initializer<int>, llvm::cl::OptionHidden, llvm::cl::desc>
   fun:UnknownInlinedFun
   fun:_GLOBAL__sub_I_HexagonGenInsert.cpp
   fun:call_init
   fun:call_init
   fun:_dl_init
   fun:_dl_catch_exception
   fun:dl_open_worker
   fun:_dl_catch_exception
   fun:_dl_open
   fun:dlopen_doit
   fun:_dl_catch_exception
}
{
   <insert_a_suppression_name_here>
   Memcheck:Leak
   match-leak-kinds: reachable
   fun:_Znwm
   fun:UnknownInlinedFun
   fun:UnknownInlinedFun
   fun:allocateWithKey<llvm::MallocAllocator>
   fun:Create<llvm::MallocAllocator, llvm::cl::Option *>
   fun:try_emplace<llvm::cl::Option *>
   fun:insert
   fun:_ZN12_GLOBAL__N_117CommandLineParser9addOptionEPN4llvm2cl6OptionEPNS2_10SubCommandE
   fun:_ZN4llvm2cl6Option11addArgumentEv
   fun:UnknownInlinedFun
   fun:_GLOBAL__sub_I_HexagonInstrInfo.cpp
   fun:call_init
   fun:call_init
   fun:_dl_init
   fun:_dl_catch_exception
   fun:dl_open_worker
   fun:_dl_catch_exception
   fun:_dl_open
   fun:dlopen_doit
   fun:_dl_catch_exception
}
{
   <insert_a_suppression_name_here>
   Memcheck:Leak
   match-leak-kinds: reachable
   fun:_Znwm
   fun:UnknownInlinedFun
   fun:UnknownInlinedFun
   fun:allocateWithKey<llvm::MallocAllocator>
   fun:Create<llvm::MallocAllocator, llvm::cl::Option *>
   fun:try_emplace<llvm::cl::Option *>
   fun:insert
   fun:_ZN12_GLOBAL__N_117CommandLineParser9addOptionEPN4llvm2cl6OptionEPNS2_10SubCommandE
   fun:_ZN4llvm2cl6Option11addArgumentEv
   fun:UnknownInlinedFun
   fun:_GLOBAL__sub_I_HexagonNewValueJump.cpp
   fun:call_init
   fun:call_init
   fun:_dl_init
   fun:_dl_catch_exception
   fun:dl_open_worker
   fun:_dl_catch_exception
   fun:_dl_open
   fun:dlopen_doit
   fun:_dl_catch_exception
}
{
   <insert_a_suppression_name_here>
   Memcheck:Leak
   match-leak-kinds: reachable
   fun:_Znwm
   fun:UnknownInlinedFun
   fun:UnknownInlinedFun
   fun:allocateWithKey<llvm::MallocAllocator>
   fun:Create<llvm::MallocAllocator, llvm::cl::Option *>
   fun:try_emplace<llvm::cl::Option *>
   fun:insert
   fun:_ZN12_GLOBAL__N_117CommandLineParser9addOptionEPN4llvm2cl6OptionEPNS2_10SubCommandE
   fun:_ZN4llvm2cl6Option11addArgumentEv
   fun:UnknownInlinedFun
   fun:_GLOBAL__sub_I_HexagonSplitDouble.cpp
   fun:call_init
   fun:call_init
   fun:_dl_init
   fun:_dl_catch_exception
   fun:dl_open_worker
   fun:_dl_catch_exception
   fun:_dl_open
   fun:dlopen_doit
   fun:_dl_catch_exception
}
{
   <insert_a_suppression_name_here>
   Memcheck:Leak
   match-leak-kinds: reachable
   fun:_Znwm
   fun:UnknownInlinedFun
   fun:UnknownInlinedFun
   fun:allocateWithKey<llvm::MallocAllocator>
   fun:Create<llvm::MallocAllocator, llvm::cl::Option *>
   fun:try_emplace<llvm::cl::Option *>
   fun:insert
   fun:_ZN12_GLOBAL__N_117CommandLineParser9addOptionEPN4llvm2cl6OptionEPNS2_10SubCommandE
   fun:_ZN4llvm2cl6Option11addArgumentEv
   fun:UnknownInlinedFun
   fun:_GLOBAL__sub_I_MipsTargetObjectFile.cpp
   fun:call_init
   fun:call_init
   fun:_dl_init
   fun:_dl_catch_exception
   fun:dl_open_worker
   fun:_dl_catch_exception
   fun:_dl_open
   fun:dlopen_doit
   fun:_dl_catch_exception
}
{
   <insert_a_suppression_name_here>
   Memcheck:Leak
   match-leak-kinds: reachable
   fun:_Znwm
   fun:UnknownInlinedFun
   fun:UnknownInlinedFun
   fun:allocateWithKey<llvm::MallocAllocator>
   fun:Create<llvm::MallocAllocator, llvm::cl::Option *>
   fun:try_emplace<llvm::cl::Option *>
   fun:insert
   fun:_ZN12_GLOBAL__N_117CommandLineParser9addOptionEPN4llvm2cl6OptionEPNS2_10SubCommandE
   fun:_ZN4llvm2cl6Option11addArgumentEv
   fun:done
   fun:opt<char[15], llvm::cl::initializer<bool>, llvm::cl::desc, llvm::cl::OptionHidden>
   fun:UnknownInlinedFun
   fun:_GLOBAL__sub_I_PPCAsmPrinter.cpp
   fun:call_init
   fun:call_init
   fun:_dl_init
   fun:_dl_catch_exception
   fun:dl_open_worker
   fun:_dl_catch_exception
   fun:_dl_open
   fun:dlopen_doit
   fun:_dl_catch_exception
}
{
   <insert_a_suppression_name_here>
   Memcheck:Leak
   match-leak-kinds: reachable
   fun:_Znwm
   fun:UnknownInlinedFun
   fun:UnknownInlinedFun
   fun:allocateWithKey<llvm::MallocAllocator>
   fun:Create<llvm::MallocAllocator, llvm::cl::Option *>
   fun:try_emplace<llvm::cl::Option *>
   fun:insert
   fun:_ZN12_GLOBAL__N_117CommandLineParser9addOptionEPN4llvm2cl6OptionEPNS2_10SubCommandE
   fun:_ZN4llvm2cl6Option11addArgumentEv
   fun:done
   fun:opt<char[15], llvm::cl::desc, llvm::cl::initializer<bool> >
   fun:UnknownInlinedFun
   fun:_GLOBAL__sub_I_WebAssemblyUtilities.cpp
   fun:call_init
   fun:call_init
   fun:_dl_init
   fun:_dl_catch_exception
   fun:dl_open_worker
   fun:_dl_catch_exception
   fun:_dl_open
   fun:dlopen_doit
   fun:_dl_catch_exception
}
{
   <insert_a_suppression_name_here>
   Memcheck:Leak
   match-leak-kinds: reachable
   fun:_Znwm
   fun:UnknownInlinedFun
   fun:UnknownInlinedFun
   fun:allocateWithKey<llvm::MallocAllocator>
   fun:Create<llvm::MallocAllocator, llvm::cl::Option *>
   fun:try_emplace<llvm::cl::Option *>
   fun:insert
   fun:_ZN12_GLOBAL__N_117CommandLineParser9addOptionEPN4llvm2cl6OptionEPNS2_10SubCommandE
   fun:_ZN4llvm2cl6Option11addArgumentEv
   fun:done
   fun:opt<char[15], llvm::cl::initializer<AsmWriterFlavorTy>, llvm::cl::OptionHidden, llvm::cl::desc, llvm::cl::ValuesClass>
   fun:UnknownInlinedFun
   fun:_GLOBAL__sub_I_X86MCAsmInfo.cpp
   fun:call_init
   fun:call_init
   fun:_dl_init
   fun:_dl_catch_exception
   fun:dl_open_worker
   fun:_dl_catch_exception
   fun:_dl_open
   fun:dlopen_doit
   fun:_dl_catch_exception
}
{
   <insert_a_suppression_name_here>
   Memcheck:Leak
   match-leak-kinds: reachable
   fun:_Znwm
   fun:UnknownInlinedFun
   fun:UnknownInlinedFun
   fun:allocateWithKey<llvm::MallocAllocator>
   fun:Create<llvm::MallocAllocator, llvm::cl::Option *>
   fun:try_emplace<llvm::cl::Option *>
   fun:insert
   fun:_ZN12_GLOBAL__N_117CommandLineParser9addOptionEPN4llvm2cl6OptionEPNS2_10SubCommandE
   fun:_ZN4llvm2cl6Option11addArgumentEv
   fun:UnknownInlinedFun
   fun:_GLOBAL__sub_I_StandardInstrumentations.cpp
   fun:call_init
   fun:call_init
   fun:_dl_init
   fun:_dl_catch_exception
   fun:dl_open_worker
   fun:_dl_catch_exception
   fun:_dl_open
   fun:dlopen_doit
   fun:_dl_catch_exception
}
{
   <insert_a_suppression_name_here>
   Memcheck:Leak
   match-leak-kinds: reachable
   fun:_Znwm
   fun:UnknownInlinedFun
   fun:UnknownInlinedFun
   fun:allocateWithKey<llvm::MallocAllocator>
   fun:Create<llvm::MallocAllocator>
   fun:try_emplace<>
   fun:operator[]
   fun:_ZN4llvm12PassRegistry12registerPassERKNS_8PassInfoEb
   fun:_ZL38initializeMachineDominatorTreePassOnceRN4llvm12PassRegistryE.llvm.15070888983306398181
   fun:__pthread_once_slow
   fun:UnknownInlinedFun
   fun:UnknownInlinedFun
   fun:UnknownInlinedFun
   fun:UnknownInlinedFun
   fun:_ZL33initializeMachineLoopInfoPassOnceRN4llvm12PassRegistryE.llvm.7251125861979809918
   fun:__pthread_once_slow
   fun:UnknownInlinedFun
   fun:UnknownInlinedFun
   fun:UnknownInlinedFun
   fun:UnknownInlinedFun
   fun:_ZL43initializeMachineBlockFrequencyInfoPassOnceRN4llvm12PassRegistryE.llvm.18278538367858580169
   fun:__pthread_once_slow
   fun:UnknownInlinedFun
   fun:UnknownInlinedFun
   fun:UnknownInlinedFun
   fun:UnknownInlinedFun
   fun:_ZL31initializeRegBankSelectPassOnceRN4llvm12PassRegistryE.llvm.2769780510161164253
   fun:__pthread_once_slow
   fun:UnknownInlinedFun
   fun:UnknownInlinedFun
   fun:UnknownInlinedFun
   fun:UnknownInlinedFun
   fun:_ZN4llvm20initializeGlobalISelERNS_12PassRegistryE
   fun:LLVMInitializeAMDGPUTarget
}
{
   <insert_a_suppression_name_here>
   Memcheck:Leak
   match-leak-kinds: reachable
   fun:_Znwm
   fun:UnknownInlinedFun
   fun:UnknownInlinedFun
   fun:allocateWithKey<llvm::MallocAllocator>
   fun:Create<llvm::MallocAllocator>
   fun:try_emplace<>
   fun:operator[]
   fun:_ZN4llvm12PassRegistry12registerPassERKNS_8PassInfoEb
   fun:_ZL32initializeCFGuardLongjmpPassOnceRN4llvm12PassRegistryE.llvm.4696572211024245273
   fun:__pthread_once_slow
   fun:UnknownInlinedFun
   fun:UnknownInlinedFun
   fun:UnknownInlinedFun
   fun:UnknownInlinedFun
   fun:_ZN4llvm17initializeCodeGenERNS_12PassRegistryE
   fun:_ZN4llvm16TargetPassConfigC1ERNS_17LLVMTargetMachineERNS_6legacy15PassManagerBaseE
   fun:AMDGPUPassConfig
   fun:GCNPassConfig
   fun:_ZN4llvm16GCNTargetMachine16createPassConfigERNS_6legacy15PassManagerBaseE
   fun:addPassesToGenerateCode
   fun:_ZN4llvm17LLVMTargetMachine19addPassesToEmitFileERNS_6legacy15PassManagerBaseERNS_17raw_pwrite_streamEPS4_NS_15CodeGenFileTypeEbPNS_28MachineModuleInfoWrapperPassE
   fun:ac_create_llvm_passes
   fun:si_init_compiler
   fun:radeonsi_screen_create_impl
   fun:amdgpu_winsys_create
}
{
   <insert_a_suppression_name_here>
   Memcheck:Leak
   match-leak-kinds: reachable
   fun:_Znwm
   fun:UnknownInlinedFun
   fun:UnknownInlinedFun
   fun:allocateWithKey<llvm::MallocAllocator>
   fun:Create<llvm::MallocAllocator>
   fun:try_emplace<>
   fun:operator[]
   fun:_ZN4llvm12PassRegistry12registerPassERKNS_8PassInfoEb
   fun:_ZL32initializeCodeGenPreparePassOnceRN4llvm12PassRegistryE.llvm.10544464724014542461
   fun:__pthread_once_slow
   fun:UnknownInlinedFun
   fun:UnknownInlinedFun
   fun:UnknownInlinedFun
   fun:UnknownInlinedFun
   fun:_ZN4llvm17initializeCodeGenERNS_12PassRegistryE
   fun:_ZN4llvm16TargetPassConfigC1ERNS_17LLVMTargetMachineERNS_6legacy15PassManagerBaseE
   fun:AMDGPUPassConfig
   fun:GCNPassConfig
   fun:_ZN4llvm16GCNTargetMachine16createPassConfigERNS_6legacy15PassManagerBaseE
   fun:addPassesToGenerateCode
   fun:_ZN4llvm17LLVMTargetMachine19addPassesToEmitFileERNS_6legacy15PassManagerBaseERNS_17raw_pwrite_streamEPS4_NS_15CodeGenFileTypeEbPNS_28MachineModuleInfoWrapperPassE
   fun:ac_create_llvm_passes
   fun:si_init_compiler
   fun:radeonsi_screen_create_impl
   fun:amdgpu_winsys_create
}
{
   <insert_a_suppression_name_here>
   Memcheck:Leak
   match-leak-kinds: reachable
   fun:_Znwm
   fun:UnknownInlinedFun
   fun:UnknownInlinedFun
   fun:allocateWithKey<llvm::MallocAllocator>
   fun:Create<llvm::MallocAllocator>
   fun:try_emplace<>
   fun:operator[]
   fun:_ZN4llvm12PassRegistry12registerPassERKNS_8PassInfoEb
   fun:_ZL42initializeDwarfEHPrepareLegacyPassPassOnceRN4llvm12PassRegistryE.llvm.15102560912171387406
   fun:__pthread_once_slow
   fun:UnknownInlinedFun
   fun:UnknownInlinedFun
   fun:UnknownInlinedFun
   fun:UnknownInlinedFun
   fun:_ZN4llvm17initializeCodeGenERNS_12PassRegistryE
   fun:_ZN4llvm16TargetPassConfigC1ERNS_17LLVMTargetMachineERNS_6legacy15PassManagerBaseE
   fun:AMDGPUPassConfig
   fun:GCNPassConfig
   fun:_ZN4llvm16GCNTargetMachine16createPassConfigERNS_6legacy15PassManagerBaseE
   fun:addPassesToGenerateCode
   fun:_ZN4llvm17LLVMTargetMachine19addPassesToEmitFileERNS_6legacy15PassManagerBaseERNS_17raw_pwrite_streamEPS4_NS_15CodeGenFileTypeEbPNS_28MachineModuleInfoWrapperPassE
   fun:ac_create_llvm_passes
   fun:si_init_compiler
   fun:radeonsi_screen_create_impl
   fun:amdgpu_winsys_create
}
{
   <insert_a_suppression_name_here>
   Memcheck:Leak
   match-leak-kinds: reachable
   fun:_Znwm
   fun:UnknownInlinedFun
   fun:UnknownInlinedFun
   fun:allocateWithKey<llvm::MallocAllocator>
   fun:Create<llvm::MallocAllocator>
   fun:try_emplace<>
   fun:operator[]
   fun:_ZN4llvm12PassRegistry12registerPassERKNS_8PassInfoEb
   fun:_ZL31initializeFuncletLayoutPassOnceRN4llvm12PassRegistryE.llvm.2337900023938490438
   fun:__pthread_once_slow
   fun:UnknownInlinedFun
   fun:UnknownInlinedFun
   fun:UnknownInlinedFun
   fun:UnknownInlinedFun
   fun:_ZN4llvm17initializeCodeGenERNS_12PassRegistryE
   fun:_ZN4llvm16TargetPassConfigC1ERNS_17LLVMTargetMachineERNS_6legacy15PassManagerBaseE
   fun:AMDGPUPassConfig
   fun:GCNPassConfig
   fun:_ZN4llvm16GCNTargetMachine16createPassConfigERNS_6legacy15PassManagerBaseE
   fun:addPassesToGenerateCode
   fun:_ZN4llvm17LLVMTargetMachine19addPassesToEmitFileERNS_6legacy15PassManagerBaseERNS_17raw_pwrite_streamEPS4_NS_15CodeGenFileTypeEbPNS_28MachineModuleInfoWrapperPassE
   fun:ac_create_llvm_passes
   fun:si_init_compiler
   fun:radeonsi_screen_create_impl
   fun:amdgpu_winsys_create
}
{
   <insert_a_suppression_name_here>
   Memcheck:Leak
   match-leak-kinds: reachable
   fun:_Znwm
   fun:UnknownInlinedFun
   fun:UnknownInlinedFun
   fun:allocateWithKey<llvm::MallocAllocator>
   fun:Create<llvm::MallocAllocator>
   fun:try_emplace<>
   fun:operator[]
   fun:_ZN4llvm12PassRegistry12registerPassERKNS_8PassInfoEb
   fun:_ZL31initializeHardwareLoopsPassOnceRN4llvm12PassRegistryE.llvm.12022431524192397297
   fun:__pthread_once_slow
   fun:UnknownInlinedFun
   fun:UnknownInlinedFun
   fun:UnknownInlinedFun
   fun:UnknownInlinedFun
   fun:_ZN4llvm17initializeCodeGenERNS_12PassRegistryE
   fun:_ZN4llvm16TargetPassConfigC1ERNS_17LLVMTargetMachineERNS_6legacy15PassManagerBaseE
   fun:AMDGPUPassConfig
   fun:GCNPassConfig
   fun:_ZN4llvm16GCNTargetMachine16createPassConfigERNS_6legacy15PassManagerBaseE
   fun:addPassesToGenerateCode
   fun:_ZN4llvm17LLVMTargetMachine19addPassesToEmitFileERNS_6legacy15PassManagerBaseERNS_17raw_pwrite_streamEPS4_NS_15CodeGenFileTypeEbPNS_28MachineModuleInfoWrapperPassE
   fun:ac_create_llvm_passes
   fun:si_init_compiler
   fun:radeonsi_screen_create_impl
   fun:amdgpu_winsys_create
}
{
   <insert_a_suppression_name_here>
   Memcheck:Leak
   match-leak-kinds: reachable
   fun:_Znwm
   fun:UnknownInlinedFun
   fun:UnknownInlinedFun
   fun:allocateWithKey<llvm::MallocAllocator>
   fun:Create<llvm::MallocAllocator>
   fun:try_emplace<>
   fun:operator[]
   fun:_ZN4llvm12PassRegistry12registerPassERKNS_8PassInfoEb
   fun:_ZL33initializeJMCInstrumenterPassOnceRN4llvm12PassRegistryE.llvm.4771038176371020222
   fun:__pthread_once_slow
   fun:UnknownInlinedFun
   fun:UnknownInlinedFun
   fun:UnknownInlinedFun
   fun:UnknownInlinedFun
   fun:_ZN4llvm17initializeCodeGenERNS_12PassRegistryE
   fun:_ZN4llvm16TargetPassConfigC1ERNS_17LLVMTargetMachineERNS_6legacy15PassManagerBaseE
   fun:AMDGPUPassConfig
   fun:GCNPassConfig
   fun:_ZN4llvm16GCNTargetMachine16createPassConfigERNS_6legacy15PassManagerBaseE
   fun:addPassesToGenerateCode
   fun:_ZN4llvm17LLVMTargetMachine19addPassesToEmitFileERNS_6legacy15PassManagerBaseERNS_17raw_pwrite_streamEPS4_NS_15CodeGenFileTypeEbPNS_28MachineModuleInfoWrapperPassE
   fun:ac_create_llvm_passes
   fun:si_init_compiler
   fun:radeonsi_screen_create_impl
   fun:amdgpu_winsys_create
}
{
   <insert_a_suppression_name_here>
   Memcheck:Leak
   match-leak-kinds: reachable
   fun:_Znwm
   fun:UnknownInlinedFun
   fun:UnknownInlinedFun
   fun:allocateWithKey<llvm::MallocAllocator>
   fun:Create<llvm::MallocAllocator>
   fun:try_emplace<>
   fun:operator[]
   fun:_ZN4llvm12PassRegistry12registerPassERKNS_8PassInfoEb
   fun:_ZL45initializeMachineCycleInfoWrapperPassPassOnceRN4llvm12PassRegistryE.llvm.8218539339066745689
   fun:__pthread_once_slow
   fun:UnknownInlinedFun
   fun:UnknownInlinedFun
   fun:UnknownInlinedFun
   fun:initializeMachineCycleInfoWrapperPassPass
   fun:_ZL45initializeMachineCycleInfoPrinterPassPassOnceRN4llvm12PassRegistryE.llvm.8218539339066745689
   fun:__pthread_once_slow
   fun:UnknownInlinedFun
   fun:UnknownInlinedFun
   fun:UnknownInlinedFun
   fun:UnknownInlinedFun
   fun:_ZN4llvm17initializeCodeGenERNS_12PassRegistryE
   fun:_ZN4llvm16TargetPassConfigC1ERNS_17LLVMTargetMachineERNS_6legacy15PassManagerBaseE
   fun:AMDGPUPassConfig
   fun:GCNPassConfig
   fun:_ZN4llvm16GCNTargetMachine16createPassConfigERNS_6legacy15PassManagerBaseE
   fun:addPassesToGenerateCode
   fun:_ZN4llvm17LLVMTargetMachine19addPassesToEmitFileERNS_6legacy15PassManagerBaseERNS_17raw_pwrite_streamEPS4_NS_15CodeGenFileTypeEbPNS_28MachineModuleInfoWrapperPassE
   fun:ac_create_llvm_passes
   fun:si_init_compiler
}
{
   <insert_a_suppression_name_here>
   Memcheck:Leak
   match-leak-kinds: reachable
   fun:_Znwm
   fun:UnknownInlinedFun
   fun:UnknownInlinedFun
   fun:allocateWithKey<llvm::MallocAllocator>
   fun:Create<llvm::MallocAllocator>
   fun:try_emplace<>
   fun:operator[]
   fun:_ZN4llvm12PassRegistry12registerPassERKNS_8PassInfoEb
   fun:_ZL37initializeProcessImplicitDefsPassOnceRN4llvm12PassRegistryE.llvm.732354439397351163
   fun:__pthread_once_slow
   fun:UnknownInlinedFun
   fun:UnknownInlinedFun
   fun:UnknownInlinedFun
   fun:UnknownInlinedFun
   fun:_ZN4llvm17initializeCodeGenERNS_12PassRegistryE
   fun:_ZN4llvm16TargetPassConfigC1ERNS_17LLVMTargetMachineERNS_6legacy15PassManagerBaseE
   fun:AMDGPUPassConfig
   fun:GCNPassConfig
   fun:_ZN4llvm16GCNTargetMachine16createPassConfigERNS_6legacy15PassManagerBaseE
   fun:addPassesToGenerateCode
   fun:_ZN4llvm17LLVMTargetMachine19addPassesToEmitFileERNS_6legacy15PassManagerBaseERNS_17raw_pwrite_streamEPS4_NS_15CodeGenFileTypeEbPNS_28MachineModuleInfoWrapperPassE
   fun:ac_create_llvm_passes
   fun:si_init_compiler
   fun:radeonsi_screen_create_impl
   fun:amdgpu_winsys_create
}
{
   <insert_a_suppression_name_here>
   Memcheck:Leak
   match-leak-kinds: reachable
   fun:_Znwm
   fun:UnknownInlinedFun
   fun:UnknownInlinedFun
   fun:allocateWithKey<llvm::MallocAllocator>
   fun:Create<llvm::MallocAllocator>
   fun:try_emplace<>
   fun:operator[]
   fun:_ZN4llvm12PassRegistry12registerPassERKNS_8PassInfoEb
   fun:_ZL49initializeRegAllocEvictionAdvisorAnalysisPassOnceRN4llvm12PassRegistryE.llvm.12124752359271847039
   fun:__pthread_once_slow
   fun:UnknownInlinedFun
   fun:UnknownInlinedFun
   fun:UnknownInlinedFun
   fun:UnknownInlinedFun
   fun:_ZL26initializeRAGreedyPassOnceRN4llvm12PassRegistryE.llvm.3047201845550902386
   fun:__pthread_once_slow
   fun:UnknownInlinedFun
   fun:UnknownInlinedFun
   fun:UnknownInlinedFun
   fun:UnknownInlinedFun
   fun:_ZN4llvm17initializeCodeGenERNS_12PassRegistryE
   fun:_ZN4llvm16TargetPassConfigC1ERNS_17LLVMTargetMachineERNS_6legacy15PassManagerBaseE
   fun:AMDGPUPassConfig
   fun:GCNPassConfig
   fun:_ZN4llvm16GCNTargetMachine16createPassConfigERNS_6legacy15PassManagerBaseE
   fun:addPassesToGenerateCode
   fun:_ZN4llvm17LLVMTargetMachine19addPassesToEmitFileERNS_6legacy15PassManagerBaseERNS_17raw_pwrite_streamEPS4_NS_15CodeGenFileTypeEbPNS_28MachineModuleInfoWrapperPassE
   fun:ac_create_llvm_passes
   fun:si_init_compiler
}
{
   <insert_a_suppression_name_here>
   Memcheck:Leak
   match-leak-kinds: reachable
   fun:_Znwm
   fun:UnknownInlinedFun
   fun:UnknownInlinedFun
   fun:allocateWithKey<llvm::MallocAllocator>
   fun:Create<llvm::MallocAllocator>
   fun:try_emplace<>
   fun:operator[]
   fun:_ZN4llvm12PassRegistry12registerPassERKNS_8PassInfoEb
   fun:_ZL43initializePhysicalRegisterUsageInfoPassOnceRN4llvm12PassRegistryE.llvm.3819132008997010646
   fun:__pthread_once_slow
   fun:UnknownInlinedFun
   fun:UnknownInlinedFun
   fun:UnknownInlinedFun
   fun:UnknownInlinedFun
   fun:_ZL39initializeRegUsageInfoCollectorPassOnceRN4llvm12PassRegistryE.llvm.17075876163698021100
   fun:__pthread_once_slow
   fun:UnknownInlinedFun
   fun:UnknownInlinedFun
   fun:UnknownInlinedFun
   fun:UnknownInlinedFun
   fun:_ZN4llvm17initializeCodeGenERNS_12PassRegistryE
   fun:_ZN4llvm16TargetPassConfigC1ERNS_17LLVMTargetMachineERNS_6legacy15PassManagerBaseE
   fun:AMDGPUPassConfig
   fun:GCNPassConfig
   fun:_ZN4llvm16GCNTargetMachine16createPassConfigERNS_6legacy15PassManagerBaseE
   fun:addPassesToGenerateCode
   fun:_ZN4llvm17LLVMTargetMachine19addPassesToEmitFileERNS_6legacy15PassManagerBaseERNS_17raw_pwrite_streamEPS4_NS_15CodeGenFileTypeEbPNS_28MachineModuleInfoWrapperPassE
   fun:ac_create_llvm_passes
   fun:si_init_compiler
}
{
   <insert_a_suppression_name_here>
   Memcheck:Leak
   match-leak-kinds: reachable
   fun:_Znwm
   fun:UnknownInlinedFun
   fun:UnknownInlinedFun
   fun:allocateWithKey<llvm::MallocAllocator>
   fun:Create<llvm::MallocAllocator>
   fun:try_emplace<>
   fun:operator[]
   fun:_ZN4llvm12PassRegistry12registerPassERKNS_8PassInfoEb
   fun:_ZL31initializeStackColoringPassOnceRN4llvm12PassRegistryE.llvm.17147895867011580005
   fun:__pthread_once_slow
   fun:UnknownInlinedFun
   fun:UnknownInlinedFun
   fun:UnknownInlinedFun
   fun:UnknownInlinedFun
   fun:_ZN4llvm17initializeCodeGenERNS_12PassRegistryE
   fun:_ZN4llvm16TargetPassConfigC1ERNS_17LLVMTargetMachineERNS_6legacy15PassManagerBaseE
   fun:AMDGPUPassConfig
   fun:GCNPassConfig
   fun:_ZN4llvm16GCNTargetMachine16createPassConfigERNS_6legacy15PassManagerBaseE
   fun:addPassesToGenerateCode
   fun:_ZN4llvm17LLVMTargetMachine19addPassesToEmitFileERNS_6legacy15PassManagerBaseERNS_17raw_pwrite_streamEPS4_NS_15CodeGenFileTypeEbPNS_28MachineModuleInfoWrapperPassE
   fun:ac_create_llvm_passes
   fun:si_init_compiler
   fun:radeonsi_screen_create_impl
   fun:amdgpu_winsys_create
}
{
   <insert_a_suppression_name_here>
   Memcheck:Leak
   match-leak-kinds: reachable
   fun:_Znwm
   fun:UnknownInlinedFun
   fun:UnknownInlinedFun
   fun:allocateWithKey<llvm::MallocAllocator>
   fun:Create<llvm::MallocAllocator>
   fun:try_emplace<>
   fun:operator[]
   fun:_ZN4llvm12PassRegistry12registerPassERKNS_8PassInfoEb
   fun:_ZL31initializeTypePromotionPassOnceRN4llvm12PassRegistryE.llvm.14377818403002650040
   fun:__pthread_once_slow
   fun:UnknownInlinedFun
   fun:UnknownInlinedFun
   fun:UnknownInlinedFun
   fun:UnknownInlinedFun
   fun:_ZN4llvm17initializeCodeGenERNS_12PassRegistryE
   fun:_ZN4llvm16TargetPassConfigC1ERNS_17LLVMTargetMachineERNS_6legacy15PassManagerBaseE
   fun:AMDGPUPassConfig
   fun:GCNPassConfig
   fun:_ZN4llvm16GCNTargetMachine16createPassConfigERNS_6legacy15PassManagerBaseE
   fun:addPassesToGenerateCode
   fun:_ZN4llvm17LLVMTargetMachine19addPassesToEmitFileERNS_6legacy15PassManagerBaseERNS_17raw_pwrite_streamEPS4_NS_15CodeGenFileTypeEbPNS_28MachineModuleInfoWrapperPassE
   fun:ac_create_llvm_passes
   fun:si_init_compiler
   fun:radeonsi_screen_create_impl
   fun:amdgpu_winsys_create
}
{
   <insert_a_suppression_name_here>
   Memcheck:Leak
   match-leak-kinds: reachable
   fun:_Znwm
   fun:UnknownInlinedFun
   fun:UnknownInlinedFun
   fun:allocateWithKey<llvm::MallocAllocator>
   fun:Create<llvm::MallocAllocator>
   fun:try_emplace<>
   fun:operator[]
   fun:_ZN4llvm12PassRegistry12registerPassERKNS_8PassInfoEb
   fun:_ZL42initializeStructurizeCFGLegacyPassPassOnceRN4llvm12PassRegistryE.llvm.5155288106195394348
   fun:__pthread_once_slow
   fun:UnknownInlinedFun
   fun:UnknownInlinedFun
   fun:UnknownInlinedFun
   fun:initializeStructurizeCFGLegacyPassPass
   fun:StructurizeCFGLegacyPass
   fun:_ZN4llvm24createStructurizeCFGPassEb
   fun:_ZN12_GLOBAL__N_113GCNPassConfig10addPreISelEv
   fun:_ZN4llvm16TargetPassConfig14addISelPrepareEv
   fun:_ZN4llvm16TargetPassConfig13addISelPassesEv
   fun:addPassesToGenerateCode
   fun:_ZN4llvm17LLVMTargetMachine19addPassesToEmitFileERNS_6legacy15PassManagerBaseERNS_17raw_pwrite_streamEPS4_NS_15CodeGenFileTypeEbPNS_28MachineModuleInfoWrapperPassE
   fun:ac_create_llvm_passes
   fun:si_init_compiler
   fun:radeonsi_screen_create_impl
}
{
   <insert_a_suppression_name_here>
   Memcheck:Leak
   match-leak-kinds: reachable
   fun:_Znwm
   fun:UnknownInlinedFun
   fun:UnknownInlinedFun
   fun:allocateWithKey<llvm::MallocAllocator>
   fun:Create<llvm::MallocAllocator>
   fun:try_emplace<>
   fun:operator[]
   fun:_ZN4llvm12PassRegistry12registerPassERKNS_8PassInfoEb
   fun:_ZL32initializeDummyCGSCCPassPassOnceRN4llvm12PassRegistryE.llvm.5058642158555198799
   fun:__pthread_once_slow
   fun:UnknownInlinedFun
   fun:UnknownInlinedFun
   fun:UnknownInlinedFun
   fun:UnknownInlinedFun
   fun:DummyCGSCCPass
   fun:_ZN4llvm16TargetPassConfig14addISelPrepareEv
   fun:_ZN4llvm16TargetPassConfig13addISelPassesEv
   fun:addPassesToGenerateCode
   fun:_ZN4llvm17LLVMTargetMachine19addPassesToEmitFileERNS_6legacy15PassManagerBaseERNS_17raw_pwrite_streamEPS4_NS_15CodeGenFileTypeEbPNS_28MachineModuleInfoWrapperPassE
   fun:ac_create_llvm_passes
   fun:si_init_compiler
   fun:radeonsi_screen_create_impl
   fun:amdgpu_winsys_create
   fun:radeonsi_screen_create
}
{
   <insert_a_suppression_name_here>
   Memcheck:Leak
   match-leak-kinds: reachable
   fun:_Znwm
   fun:UnknownInlinedFun
   fun:UnknownInlinedFun
   fun:UnknownInlinedFun
   fun:_ZNSt7__cxx1112basic_stringIcSt11char_traitsIcESaIcEE9_M_mutateEmmPKcm
   fun:UnknownInlinedFun
   fun:UnknownInlinedFun
   fun:_ZN4llvm18raw_string_ostream10write_implEPKcm
   fun:_ZN4llvm11raw_ostream5writeEPKcm
   fun:_ZN4llvm17AMDGPUInstPrinter19printRegularOperandEPKNS_6MCInstEjRKNS_15MCSubtargetInfoERNS_11raw_ostreamE
   fun:_ZN4llvm17AMDGPUInstPrinter16printInstructionEPKNS_6MCInstEmRKNS_15MCSubtargetInfoERNS_11raw_ostreamE
   fun:UnknownInlinedFun
   fun:_ZN4llvm16AMDGPUAsmPrinter15emitInstructionEPKNS_12MachineInstrE
   fun:_ZN4llvm10AsmPrinter16emitFunctionBodyEv
   fun:_ZN4llvm16AMDGPUAsmPrinter20runOnMachineFunctionERNS_15MachineFunctionE
   fun:_ZN4llvm19MachineFunctionPass13runOnFunctionERNS_8FunctionE
   fun:_ZN4llvm13FPPassManager13runOnFunctionERNS_8FunctionE
   fun:_ZN4llvm13FPPassManager11runOnModuleERNS_6ModuleE
}
{
   <insert_a_suppression_name_here>
   Memcheck:Leak
   match-leak-kinds: reachable
   fun:malloc
   fun:UnknownInlinedFun
   fun:_xcb_in_read
   fun:_xcb_conn_wait.part.0
   fun:UnknownInlinedFun
   fun:wait_for_reply
   fun:xcb_wait_for_reply
   fun:xcb_get_extension_data
   fun:UnknownInlinedFun
   fun:xcb_prefetch_maximum_request_length
   fun:UnknownInlinedFun
   fun:xcb_get_maximum_request_length
   fun:XOpenDisplay
   fun:_ZN3olc14Platform_Linux16CreateWindowPaneERKNS_11v2d_genericIiEERS2_b
   fun:_ZN3olc15PixelGameEngine5StartEv
   fun:main
}
{
   <insert_a_suppression_name_here>
   Memcheck:Leak
   match-leak-kinds: reachable
   fun:malloc
   fun:UnknownInlinedFun
   fun:_xcb_in_read
   fun:_xcb_conn_wait.part.0
   fun:UnknownInlinedFun
   fun:wait_for_reply
   fun:xcb_wait_for_reply
   fun:xcb_get_extension_data
   fun:xcb_send_request_with_fds64
   fun:xcb_send_request
   fun:xcb_glx_query_version
   fun:QueryVersion
   fun:__glXInitialize
   fun:GetGLXPrivScreenConfig
   fun:glXChooseVisual
   fun:_ZN3olc14Platform_Linux16CreateWindowPaneERKNS_11v2d_genericIiEERS2_b
}
{
   <insert_a_suppression_name_here>
   Memcheck:Leak
   match-leak-kinds: reachable
   fun:malloc
   fun:XextAddDisplay
   fun:DRI2QueryExtension
   fun:dri2CreateDisplay
   fun:__glXInitialize
   fun:GetGLXPrivScreenConfig
   fun:glXChooseVisual
   fun:_ZN3olc14Platform_Linux16CreateWindowPaneERKNS_11v2d_genericIiEERS2_b
   fun:_ZN3olc15PixelGameEngine5StartEv
   fun:main
}
{
   <insert_a_suppression_name_here>
   Memcheck:Leak
   match-leak-kinds: reachable
   fun:malloc
   fun:UnknownInlinedFun
   fun:_xcb_in_read
   fun:_xcb_conn_wait.part.0
   fun:UnknownInlinedFun
   fun:wait_for_reply
   fun:xcb_wait_for_reply
   fun:xcb_get_extension_data
   fun:xcb_send_request_with_fds64
   fun:xcb_send_request
   fun:xcb_xfixes_query_version
   fun:loader_dri3_open
   fun:dri3_create_screen
   fun:AllocAndFetchScreenConfigs
   fun:__glXInitialize
}
{
   <insert_a_suppression_name_here>
   Memcheck:Leak
   match-leak-kinds: reachable
   fun:_Znwm
   fun:UnknownInlinedFun
   fun:UnknownInlinedFun
   fun:allocateWithKey<llvm::MallocAllocator>
   fun:Create<llvm::MallocAllocator, llvm::cl::Option *>
   fun:try_emplace<llvm::cl::Option *>
   fun:insert
   fun:_ZN12_GLOBAL__N_117CommandLineParser9addOptionEPN4llvm2cl6OptionEPNS2_10SubCommandE
   fun:_ZN4llvm2cl6Option11addArgumentEv
   fun:UnknownInlinedFun
   fun:_GLOBAL__sub_I_Dominators.cpp
   fun:call_init
   fun:call_init
   fun:_dl_init
   fun:_dl_catch_exception
   fun:dl_open_worker
   fun:_dl_catch_exception
   fun:_dl_open
   fun:dlopen_doit
   fun:_dl_catch_exception
}
{
   <insert_a_suppression_name_here>
   Memcheck:Leak
   match-leak-kinds: reachable
   fun:_Znwm
   fun:UnknownInlinedFun
   fun:UnknownInlinedFun
   fun:allocateWithKey<llvm::MallocAllocator>
   fun:Create<llvm::MallocAllocator, llvm::cl::Option *>
   fun:try_emplace<llvm::cl::Option *>
   fun:insert
   fun:_ZN12_GLOBAL__N_117CommandLineParser9addOptionEPN4llvm2cl6OptionEPNS2_10SubCommandE
   fun:_ZN4llvm2cl6Option11addArgumentEv
   fun:UnknownInlinedFun
   fun:_GLOBAL__sub_I_LLVMContextImpl.cpp
   fun:call_init
   fun:call_init
   fun:_dl_init
   fun:_dl_catch_exception
   fun:dl_open_worker
   fun:_dl_catch_exception
   fun:_dl_open
   fun:dlopen_doit
   fun:_dl_catch_exception
}
{
   <insert_a_suppression_name_here>
   Memcheck:Leak
   match-leak-kinds: reachable
   fun:_Znwm
   fun:UnknownInlinedFun
   fun:UnknownInlinedFun
   fun:allocateWithKey<llvm::MallocAllocator>
   fun:Create<llvm::MallocAllocator, llvm::cl::Option *>
   fun:try_emplace<llvm::cl::Option *>
   fun:insert
   fun:_ZN12_GLOBAL__N_117CommandLineParser9addOptionEPN4llvm2cl6OptionEPNS2_10SubCommandE
   fun:_ZN4llvm2cl6Option11addArgumentEv
   fun:UnknownInlinedFun
   fun:_GLOBAL__sub_I_ModuleSummaryIndex.cpp
   fun:call_init
   fun:call_init
   fun:_dl_init
   fun:_dl_catch_exception
   fun:dl_open_worker
   fun:_dl_catch_exception
   fun:_dl_open
   fun:dlopen_doit
   fun:_dl_catch_exception
}
{
   <insert_a_suppression_name_here>
   Memcheck:Leak
   match-leak-kinds: reachable
   fun:_Znwm
   fun:UnknownInlinedFun
   fun:UnknownInlinedFun
   fun:UnknownInlinedFun
   fun:UnknownInlinedFun
   fun:UnknownInlinedFun
   fun:UnknownInlinedFun
   fun:UnknownInlinedFun
   fun:UnknownInlinedFun
   fun:UnknownInlinedFun
   fun:UnknownInlinedFun
   fun:UnknownInlinedFun
   fun:UnknownInlinedFun
   fun:UnknownInlinedFun
   fun:UnknownInlinedFun
   fun:UnknownInlinedFun
   fun:UnknownInlinedFun
   fun:_GLOBAL__sub_I_OptBisect.cpp
   fun:call_init
   fun:call_init
   fun:_dl_init
   fun:_dl_catch_exception
   fun:dl_open_worker
   fun:_dl_catch_exception
   fun:_dl_open
   fun:dlopen_doit
   fun:_dl_catch_exception
   fun:_dl_catch_error
   fun:_dlerror_run
}
{
   <insert_a_suppression_name_here>
   Memcheck:Leak
   match-leak-kinds: reachable
   fun:_Znwm
   fun:UnknownInlinedFun
   fun:UnknownInlinedFun
   fun:allocateWithKey<llvm::MallocAllocator>
   fun:Create<llvm::MallocAllocator, llvm::cl::Option *>
   fun:try_emplace<llvm::cl::Option *>
   fun:insert
   fun:_ZN12_GLOBAL__N_117CommandLineParser9addOptionEPN4llvm2cl6OptionEPNS2_10SubCommandE
   fun:_ZN4llvm2cl6Option11addArgumentEv
   fun:UnknownInlinedFun
   fun:_GLOBAL__sub_I_PrintPasses.cpp
   fun:call_init
   fun:call_init
   fun:_dl_init
   fun:_dl_catch_exception
   fun:dl_open_worker
   fun:_dl_catch_exception
   fun:_dl_open
   fun:dlopen_doit
   fun:_dl_catch_exception
}
{
   <insert_a_suppression_name_here>
   Memcheck:Leak
   match-leak-kinds: reachable
   fun:_Znwm
   fun:UnknownInlinedFun
   fun:UnknownInlinedFun
   fun:allocateWithKey<llvm::MallocAllocator>
   fun:Create<llvm::MallocAllocator, llvm::cl::Option *>
   fun:try_emplace<llvm::cl::Option *>
   fun:insert
   fun:_ZN12_GLOBAL__N_117CommandLineParser9addOptionEPN4llvm2cl6OptionEPNS2_10SubCommandE
   fun:_ZN4llvm2cl6Option11addArgumentEv
   fun:done
   fun:opt<char[16], llvm::cl::desc, llvm::cl::initializer<int>, llvm::cl::OptionHidden>
   fun:UnknownInlinedFun
   fun:_GLOBAL__sub_I_BranchFolding.cpp
   fun:call_init
   fun:call_init
   fun:_dl_init
   fun:_dl_catch_exception
   fun:dl_open_worker
   fun:_dl_catch_exception
   fun:_dl_open
   fun:dlopen_doit
   fun:_dl_catch_exception
}
{
   <insert_a_suppression_name_here>
   Memcheck:Leak
   match-leak-kinds: reachable
   fun:_Znwm
   fun:UnknownInlinedFun
   fun:UnknownInlinedFun
   fun:allocateWithKey<llvm::MallocAllocator>
   fun:Create<llvm::MallocAllocator, llvm::cl::Option *>
   fun:try_emplace<llvm::cl::Option *>
   fun:insert
   fun:_ZN12_GLOBAL__N_117CommandLineParser9addOptionEPN4llvm2cl6OptionEPNS2_10SubCommandE
   fun:_ZN4llvm2cl6Option11addArgumentEv
   fun:done
   fun:opt<char[16], llvm::cl::OptionHidden, llvm::cl::initializer<int>, llvm::cl::desc>
   fun:UnknownInlinedFun
   fun:_GLOBAL__sub_I_DFAPacketizer.cpp
   fun:call_init
   fun:call_init
   fun:_dl_init
   fun:_dl_catch_exception
   fun:dl_open_worker
   fun:_dl_catch_exception
   fun:_dl_open
   fun:dlopen_doit
   fun:_dl_catch_exception
}
{
   <insert_a_suppression_name_here>
   Memcheck:Leak
   match-leak-kinds: reachable
   fun:_Znwm
   fun:UnknownInlinedFun
   fun:UnknownInlinedFun
   fun:allocateWithKey<llvm::MallocAllocator>
   fun:Create<llvm::MallocAllocator, llvm::cl::Option *>
   fun:try_emplace<llvm::cl::Option *>
   fun:insert
   fun:_ZN12_GLOBAL__N_117CommandLineParser9addOptionEPN4llvm2cl6OptionEPNS2_10SubCommandE
   fun:_ZN4llvm2cl6Option11addArgumentEv
   fun:UnknownInlinedFun
   fun:_GLOBAL__sub_I_RegAllocBase.cpp
   fun:call_init
   fun:call_init
   fun:_dl_init
   fun:_dl_catch_exception
   fun:dl_open_worker
   fun:_dl_catch_exception
   fun:_dl_open
   fun:dlopen_doit
   fun:_dl_catch_exception
}
{
   <insert_a_suppression_name_here>
   Memcheck:Leak
   match-leak-kinds: reachable
   fun:_Znwm
   fun:UnknownInlinedFun
   fun:UnknownInlinedFun
   fun:allocateWithKey<llvm::MallocAllocator>
   fun:Create<llvm::MallocAllocator, llvm::cl::Option *>
   fun:try_emplace<llvm::cl::Option *>
   fun:insert
   fun:_ZN12_GLOBAL__N_117CommandLineParser9addOptionEPN4llvm2cl6OptionEPNS2_10SubCommandE
   fun:_ZN4llvm2cl6Option11addArgumentEv
   fun:UnknownInlinedFun
   fun:_GLOBAL__sub_I_RegAllocPBQP.cpp
   fun:call_init
   fun:call_init
   fun:_dl_init
   fun:_dl_catch_exception
   fun:dl_open_worker
   fun:_dl_catch_exception
   fun:_dl_open
   fun:dlopen_doit
   fun:_dl_catch_exception
}
{
   <insert_a_suppression_name_here>
   Memcheck:Leak
   match-leak-kinds: reachable
   fun:_Znwm
   fun:UnknownInlinedFun
   fun:UnknownInlinedFun
   fun:allocateWithKey<llvm::MallocAllocator>
   fun:Create<llvm::MallocAllocator, llvm::cl::Option *>
   fun:try_emplace<llvm::cl::Option *>
   fun:insert
   fun:_ZN12_GLOBAL__N_117CommandLineParser9addOptionEPN4llvm2cl6OptionEPNS2_10SubCommandE
   fun:_ZN4llvm2cl6Option11addArgumentEv
   fun:done
   fun:opt<char[16], llvm::cl::OptionHidden, llvm::cl::initializer<int>, llvm::cl::value_desc, llvm::cl::desc>
   fun:UnknownInlinedFun
   fun:_GLOBAL__sub_I_RegisterClassInfo.cpp
   fun:call_init
   fun:call_init
   fun:_dl_init
   fun:_dl_catch_exception
   fun:dl_open_worker
   fun:_dl_catch_exception
   fun:_dl_open
   fun:dlopen_doit
   fun:_dl_catch_exception
}
{
   <insert_a_suppression_name_here>
   Memcheck:Leak
   match-leak-kinds: reachable
   fun:_Znwm
   fun:UnknownInlinedFun
   fun:UnknownInlinedFun
   fun:allocateWithKey<llvm::MallocAllocator>
   fun:Create<llvm::MallocAllocator, llvm::cl::Option *>
   fun:try_emplace<llvm::cl::Option *>
   fun:insert
   fun:_ZN12_GLOBAL__N_117CommandLineParser9addOptionEPN4llvm2cl6OptionEPNS2_10SubCommandE
   fun:_ZN4llvm2cl6Option11addArgumentEv
   fun:done
   fun:opt<char[16], llvm::cl::initializer<char[1]>, llvm::cl::value_desc, llvm::cl::desc, llvm::cl::OptionHidden>
   fun:__cxx_global_var_init.123
   fun:_GLOBAL__sub_I_TargetPassConfig.cpp
   fun:call_init
   fun:call_init
   fun:_dl_init
   fun:_dl_catch_exception
   fun:dl_open_worker
   fun:_dl_catch_exception
   fun:_dl_open
   fun:dlopen_doit
   fun:_dl_catch_exception
}
{
   <insert_a_suppression_name_here>
   Memcheck:Leak
   match-leak-kinds: reachable
   fun:_Znwm
   fun:UnknownInlinedFun
   fun:UnknownInlinedFun
   fun:allocateWithKey<llvm::MallocAllocator>
   fun:Create<llvm::MallocAllocator, llvm::cl::Option *>
   fun:try_emplace<llvm::cl::Option *>
   fun:insert
   fun:_ZN12_GLOBAL__N_117CommandLineParser9addOptionEPN4llvm2cl6OptionEPNS2_10SubCommandE
   fun:_ZN4llvm2cl6Option11addArgumentEv
   fun:done
   fun:opt<char[16], llvm::cl::OptionHidden, llvm::cl::desc>
   fun:UnknownInlinedFun
   fun:_GLOBAL__sub_I_SelectionDAGISel.cpp
   fun:call_init
   fun:call_init
   fun:_dl_init
   fun:_dl_catch_exception
   fun:dl_open_worker
   fun:_dl_catch_exception
   fun:_dl_open
   fun:dlopen_doit
   fun:_dl_catch_exception
}
{
   <insert_a_suppression_name_here>
   Memcheck:Leak
   match-leak-kinds: reachable
   fun:_Znwm
   fun:UnknownInlinedFun
   fun:UnknownInlinedFun
   fun:allocateWithKey<llvm::MallocAllocator>
   fun:Create<llvm::MallocAllocator, llvm::cl::Option *>
   fun:try_emplace<llvm::cl::Option *>
   fun:insert
   fun:_ZN12_GLOBAL__N_117CommandLineParser9addOptionEPN4llvm2cl6OptionEPNS2_10SubCommandE
   fun:_ZN4llvm2cl6Option11addArgumentEv
   fun:done
   fun:opt<char[16], llvm::cl::OptionHidden, llvm::cl::desc>
   fun:__cxx_global_var_init.145
   fun:_GLOBAL__sub_I_AddressSanitizer.cpp
   fun:call_init
   fun:call_init
   fun:_dl_init
   fun:_dl_catch_exception
   fun:dl_open_worker
   fun:_dl_catch_exception
   fun:_dl_open
   fun:dlopen_doit
   fun:_dl_catch_exception
}
{
   <insert_a_suppression_name_here>
   Memcheck:Leak
   match-leak-kinds: reachable
   fun:_Znwm
   fun:UnknownInlinedFun
   fun:UnknownInlinedFun
   fun:allocateWithKey<llvm::MallocAllocator>
   fun:Create<llvm::MallocAllocator, llvm::cl::Option *>
   fun:try_emplace<llvm::cl::Option *>
   fun:insert
   fun:_ZN12_GLOBAL__N_117CommandLineParser9addOptionEPN4llvm2cl6OptionEPNS2_10SubCommandE
   fun:_ZN4llvm2cl6Option11addArgumentEv
   fun:done
   fun:opt<char[16], llvm::cl::initializer<char[1]>, llvm::cl::OptionHidden, llvm::cl::desc>
   fun:UnknownInlinedFun
   fun:_GLOBAL__sub_I_ControlHeightReduction.cpp
   fun:call_init
   fun:call_init
   fun:_dl_init
   fun:_dl_catch_exception
   fun:dl_open_worker
   fun:_dl_catch_exception
   fun:_dl_open
   fun:dlopen_doit
   fun:_dl_catch_exception
}
{
   <insert_a_suppression_name_here>
   Memcheck:Leak
   match-leak-kinds: reachable
   fun:_Znwm
   fun:UnknownInlinedFun
   fun:UnknownInlinedFun
   fun:allocateWithKey<llvm::MallocAllocator>
   fun:Create<llvm::MallocAllocator, llvm::cl::Option *>
   fun:try_emplace<llvm::cl::Option *>
   fun:insert
   fun:_ZN12_GLOBAL__N_117CommandLineParser9addOptionEPN4llvm2cl6OptionEPNS2_10SubCommandE
   fun:_ZN4llvm2cl6Option11addArgumentEv
   fun:__cxx_global_var_init.4
   fun:_GLOBAL__sub_I_MemorySanitizer.cpp
   fun:call_init
   fun:call_init
   fun:_dl_init
   fun:_dl_catch_exception
   fun:dl_open_worker
   fun:_dl_catch_exception
   fun:_dl_open
   fun:dlopen_doit
   fun:_dl_catch_exception
}
{
   <insert_a_suppression_name_here>
   Memcheck:Leak
   match-leak-kinds: reachable
   fun:_Znwm
   fun:UnknownInlinedFun
   fun:UnknownInlinedFun
   fun:allocateWithKey<llvm::MallocAllocator>
   fun:Create<llvm::MallocAllocator, llvm::cl::Option *>
   fun:try_emplace<llvm::cl::Option *>
   fun:insert
   fun:_ZN12_GLOBAL__N_117CommandLineParser9addOptionEPN4llvm2cl6OptionEPNS2_10SubCommandE
   fun:_ZN4llvm2cl6Option11addArgumentEv
   fun:UnknownInlinedFun
   fun:_GLOBAL__sub_I_InstrProfiling.cpp
   fun:call_init
   fun:call_init
   fun:_dl_init
   fun:_dl_catch_exception
   fun:dl_open_worker
   fun:_dl_catch_exception
   fun:_dl_open
   fun:dlopen_doit
   fun:_dl_catch_exception
}
{
   <insert_a_suppression_name_here>
   Memcheck:Leak
   match-leak-kinds: reachable
   fun:_Znwm
   fun:UnknownInlinedFun
   fun:UnknownInlinedFun
   fun:allocateWithKey<llvm::MallocAllocator>
   fun:Create<llvm::MallocAllocator, llvm::cl::Option *>
   fun:try_emplace<llvm::cl::Option *>
   fun:insert
   fun:_ZN12_GLOBAL__N_117CommandLineParser9addOptionEPN4llvm2cl6OptionEPNS2_10SubCommandE
   fun:_ZN4llvm2cl6Option11addArgumentEv
   fun:UnknownInlinedFun
   fun:_GLOBAL__sub_I_PGOInstrumentation.cpp
   fun:call_init
   fun:call_init
   fun:_dl_init
   fun:_dl_catch_exception
   fun:dl_open_worker
   fun:_dl_catch_exception
   fun:_dl_open
   fun:dlopen_doit
   fun:_dl_catch_exception
}
{
   <insert_a_suppression_name_here>
   Memcheck:Leak
   match-leak-kinds: reachable
   fun:_Znwm
   fun:UnknownInlinedFun
   fun:UnknownInlinedFun
   fun:allocateWithKey<llvm::MallocAllocator>
   fun:Create<llvm::MallocAllocator, llvm::cl::Option *>
   fun:try_emplace<llvm::cl::Option *>
   fun:insert
   fun:_ZN12_GLOBAL__N_117CommandLineParser9addOptionEPN4llvm2cl6OptionEPNS2_10SubCommandE
   fun:_ZN4llvm2cl6Option11addArgumentEv
   fun:__cxx_global_var_init.57
   fun:_GLOBAL__sub_I_HWAddressSanitizer.cpp
   fun:call_init
   fun:call_init
   fun:_dl_init
   fun:_dl_catch_exception
   fun:dl_open_worker
   fun:_dl_catch_exception
   fun:_dl_open
   fun:dlopen_doit
   fun:_dl_catch_exception
}
{
   <insert_a_suppression_name_here>
   Memcheck:Leak
   match-leak-kinds: reachable
   fun:_Znwm
   fun:UnknownInlinedFun
   fun:UnknownInlinedFun
   fun:allocateWithKey<llvm::MallocAllocator>
   fun:Create<llvm::MallocAllocator, llvm::cl::Option *>
   fun:try_emplace<llvm::cl::Option *>
   fun:insert
   fun:_ZN12_GLOBAL__N_117CommandLineParser9addOptionEPN4llvm2cl6OptionEPNS2_10SubCommandE
   fun:_ZN4llvm2cl6Option11addArgumentEv
   fun:done
   fun:opt<char[16], llvm::cl::initializer<bool> >
   fun:UnknownInlinedFun
   fun:_GLOBAL__sub_I_GVN.cpp
   fun:call_init
   fun:call_init
   fun:_dl_init
   fun:_dl_catch_exception
   fun:dl_open_worker
   fun:_dl_catch_exception
   fun:_dl_open
   fun:dlopen_doit
   fun:_dl_catch_exception
}
{
   <insert_a_suppression_name_here>
   Memcheck:Leak
   match-leak-kinds: reachable
   fun:_Znwm
   fun:UnknownInlinedFun
   fun:UnknownInlinedFun
   fun:allocateWithKey<llvm::MallocAllocator>
   fun:Create<llvm::MallocAllocator, llvm::cl::Option *>
   fun:try_emplace<llvm::cl::Option *>
   fun:insert
   fun:_ZN12_GLOBAL__N_117CommandLineParser9addOptionEPN4llvm2cl6OptionEPNS2_10SubCommandE
   fun:_ZN4llvm2cl6Option11addArgumentEv
   fun:UnknownInlinedFun
   fun:_GLOBAL__sub_I_GVNHoist.cpp
   fun:call_init
   fun:call_init
   fun:_dl_init
   fun:_dl_catch_exception
   fun:dl_open_worker
   fun:_dl_catch_exception
   fun:_dl_open
   fun:dlopen_doit
   fun:_dl_catch_exception
}
{
   <insert_a_suppression_name_here>
   Memcheck:Leak
   match-leak-kinds: reachable
   fun:_Znwm
   fun:UnknownInlinedFun
   fun:UnknownInlinedFun
   fun:allocateWithKey<llvm::MallocAllocator>
   fun:Create<llvm::MallocAllocator, llvm::cl::Option *>
   fun:try_emplace<llvm::cl::Option *>
   fun:insert
   fun:_ZN12_GLOBAL__N_117CommandLineParser9addOptionEPN4llvm2cl6OptionEPNS2_10SubCommandE
   fun:_ZN4llvm2cl6Option11addArgumentEv
   fun:__cxx_global_var_init.22
   fun:_GLOBAL__sub_I_PlaceSafepoints.cpp
   fun:call_init
   fun:call_init
   fun:_dl_init
   fun:_dl_catch_exception
   fun:dl_open_worker
   fun:_dl_catch_exception
   fun:_dl_open
   fun:dlopen_doit
   fun:_dl_catch_exception
}
{
   <insert_a_suppression_name_here>
   Memcheck:Leak
   match-leak-kinds: reachable
   fun:_Znwm
   fun:UnknownInlinedFun
   fun:UnknownInlinedFun
   fun:allocateWithKey<llvm::MallocAllocator>
   fun:Create<llvm::MallocAllocator, llvm::cl::Option *>
   fun:try_emplace<llvm::cl::Option *>
   fun:insert
   fun:_ZN12_GLOBAL__N_117CommandLineParser9addOptionEPN4llvm2cl6OptionEPNS2_10SubCommandE
   fun:_ZN4llvm2cl6Option11addArgumentEv
   fun:done
   fun:list<char[16], llvm::cl::OptionHidden, llvm::cl::desc>
   fun:UnknownInlinedFun
   fun:_GLOBAL__sub_I_ForceFunctionAttrs.cpp
   fun:call_init
   fun:call_init
   fun:_dl_init
   fun:_dl_catch_exception
   fun:dl_open_worker
   fun:_dl_catch_exception
   fun:_dl_open
   fun:dlopen_doit
   fun:_dl_catch_exception
}
{
   <insert_a_suppression_name_here>
   Memcheck:Leak
   match-leak-kinds: reachable
   fun:_Znwm
   fun:UnknownInlinedFun
   fun:UnknownInlinedFun
   fun:allocateWithKey<llvm::MallocAllocator>
   fun:Create<llvm::MallocAllocator, llvm::cl::Option *>
   fun:try_emplace<llvm::cl::Option *>
   fun:insert
   fun:_ZN12_GLOBAL__N_117CommandLineParser9addOptionEPN4llvm2cl6OptionEPNS2_10SubCommandE
   fun:_ZN4llvm2cl6Option11addArgumentEv
   fun:UnknownInlinedFun
   fun:_GLOBAL__sub_I_GlobalOpt.cpp
   fun:call_init
   fun:call_init
   fun:_dl_init
   fun:_dl_catch_exception
   fun:dl_open_worker
   fun:_dl_catch_exception
   fun:_dl_open
   fun:dlopen_doit
   fun:_dl_catch_exception
}
{
   <insert_a_suppression_name_here>
   Memcheck:Leak
   match-leak-kinds: reachable
   fun:_Znwm
   fun:UnknownInlinedFun
   fun:UnknownInlinedFun
   fun:allocateWithKey<llvm::MallocAllocator>
   fun:Create<llvm::MallocAllocator, llvm::cl::Option *>
   fun:try_emplace<llvm::cl::Option *>
   fun:insert
   fun:_ZN12_GLOBAL__N_117CommandLineParser9addOptionEPN4llvm2cl6OptionEPNS2_10SubCommandE
   fun:_ZN4llvm2cl6Option11addArgumentEv
   fun:done
   fun:opt<char[16], llvm::cl::desc>
   fun:UnknownInlinedFun
   fun:_GLOBAL__sub_I_PassManagerBuilder.cpp
   fun:call_init
   fun:call_init
   fun:_dl_init
   fun:_dl_catch_exception
   fun:dl_open_worker
   fun:_dl_catch_exception
   fun:_dl_open
   fun:dlopen_doit
   fun:_dl_catch_exception
}
{
   <insert_a_suppression_name_here>
   Memcheck:Leak
   match-leak-kinds: reachable
   fun:_Znwm
   fun:UnknownInlinedFun
   fun:UnknownInlinedFun
   fun:allocateWithKey<llvm::MallocAllocator>
   fun:Create<llvm::MallocAllocator, llvm::cl::Option *>
   fun:try_emplace<llvm::cl::Option *>
   fun:insert
   fun:_ZN12_GLOBAL__N_117CommandLineParser9addOptionEPN4llvm2cl6OptionEPNS2_10SubCommandE
   fun:_ZN4llvm2cl6Option11addArgumentEv
   fun:__cxx_global_var_init.63
   fun:_GLOBAL__sub_I_LoopVectorize.cpp
   fun:call_init
   fun:call_init
   fun:_dl_init
   fun:_dl_catch_exception
   fun:dl_open_worker
   fun:_dl_catch_exception
   fun:_dl_open
   fun:dlopen_doit
   fun:_dl_catch_exception
}
{
   <insert_a_suppression_name_here>
   Memcheck:Leak
   match-leak-kinds: reachable
   fun:_Znwm
   fun:UnknownInlinedFun
   fun:UnknownInlinedFun
   fun:allocateWithKey<llvm::MallocAllocator>
   fun:Create<llvm::MallocAllocator, llvm::cl::Option *>
   fun:try_emplace<llvm::cl::Option *>
   fun:insert
   fun:_ZN12_GLOBAL__N_117CommandLineParser9addOptionEPN4llvm2cl6OptionEPNS2_10SubCommandE
   fun:_ZN4llvm2cl6Option11addArgumentEv
   fun:UnknownInlinedFun
   fun:_GLOBAL__sub_I_LoopVectorize.cpp
   fun:call_init
   fun:call_init
   fun:_dl_init
   fun:_dl_catch_exception
   fun:dl_open_worker
   fun:_dl_catch_exception
   fun:_dl_open
   fun:dlopen_doit
   fun:_dl_catch_exception
}
{
   <insert_a_suppression_name_here>
   Memcheck:Leak
   match-leak-kinds: reachable
   fun:_Znwm
   fun:UnknownInlinedFun
   fun:UnknownInlinedFun
   fun:allocateWithKey<llvm::MallocAllocator>
   fun:Create<llvm::MallocAllocator, llvm::cl::Option *>
   fun:try_emplace<llvm::cl::Option *>
   fun:insert
   fun:_ZN12_GLOBAL__N_117CommandLineParser9addOptionEPN4llvm2cl6OptionEPNS2_10SubCommandE
   fun:_ZN4llvm2cl6Option11addArgumentEv
   fun:done
   fun:opt<char[16], llvm::cl::OptionHidden>
   fun:UnknownInlinedFun
   fun:_GLOBAL__sub_I_AliasAnalysisEvaluator.cpp
   fun:call_init
   fun:call_init
   fun:_dl_init
   fun:_dl_catch_exception
   fun:dl_open_worker
   fun:_dl_catch_exception
   fun:_dl_open
   fun:dlopen_doit
   fun:_dl_catch_exception
}
{
   <insert_a_suppression_name_here>
   Memcheck:Leak
   match-leak-kinds: reachable
   fun:_Znwm
   fun:UnknownInlinedFun
   fun:UnknownInlinedFun
   fun:allocateWithKey<llvm::MallocAllocator>
   fun:Create<llvm::MallocAllocator, llvm::cl::Option *>
   fun:try_emplace<llvm::cl::Option *>
   fun:insert
   fun:_ZN12_GLOBAL__N_117CommandLineParser9addOptionEPN4llvm2cl6OptionEPNS2_10SubCommandE
   fun:_ZN4llvm2cl6Option11addArgumentEv
   fun:UnknownInlinedFun
   fun:_GLOBAL__sub_I_BasicAliasAnalysis.cpp
   fun:call_init
   fun:call_init
   fun:_dl_init
   fun:_dl_catch_exception
   fun:dl_open_worker
   fun:_dl_catch_exception
   fun:_dl_open
   fun:dlopen_doit
   fun:_dl_catch_exception
}
{
   <insert_a_suppression_name_here>
   Memcheck:Leak
   match-leak-kinds: reachable
   fun:_Znwm
   fun:UnknownInlinedFun
   fun:UnknownInlinedFun
   fun:allocateWithKey<llvm::MallocAllocator>
   fun:Create<llvm::MallocAllocator, llvm::cl::Option *>
   fun:try_emplace<llvm::cl::Option *>
   fun:insert
   fun:_ZN12_GLOBAL__N_117CommandLineParser9addOptionEPN4llvm2cl6OptionEPNS2_10SubCommandE
   fun:_ZN4llvm2cl6Option11addArgumentEv
   fun:done
   fun:opt<char[16], llvm::cl::OptionHidden, llvm::cl::desc, llvm::cl::ValuesClass>
   fun:__cxx_global_var_init.16
   fun:_GLOBAL__sub_I_BlockFrequencyInfo.cpp
   fun:call_init
   fun:call_init
   fun:_dl_init
   fun:_dl_catch_exception
   fun:dl_open_worker
   fun:_dl_catch_exception
   fun:_dl_open
   fun:dlopen_doit
   fun:_dl_catch_exception
}
{
   <insert_a_suppression_name_here>
   Memcheck:Leak
   match-leak-kinds: reachable
   fun:_Znwm
   fun:UnknownInlinedFun
   fun:UnknownInlinedFun
   fun:allocateWithKey<llvm::MallocAllocator>
   fun:Create<llvm::MallocAllocator, llvm::cl::Option *>
   fun:try_emplace<llvm::cl::Option *>
   fun:insert
   fun:_ZN12_GLOBAL__N_117CommandLineParser9addOptionEPN4llvm2cl6OptionEPNS2_10SubCommandE
   fun:_ZN4llvm2cl6Option11addArgumentEv
   fun:UnknownInlinedFun
   fun:_GLOBAL__sub_I_InlineAdvisor.cpp
   fun:call_init
   fun:call_init
   fun:_dl_init
   fun:_dl_catch_exception
   fun:dl_open_worker
   fun:_dl_catch_exception
   fun:_dl_open
   fun:dlopen_doit
   fun:_dl_catch_exception
}
{
   <insert_a_suppression_name_here>
   Memcheck:Leak
   match-leak-kinds: reachable
   fun:_Znwm
   fun:UnknownInlinedFun
   fun:UnknownInlinedFun
   fun:allocateWithKey<llvm::MallocAllocator>
   fun:Create<llvm::MallocAllocator, llvm::cl::Option *>
   fun:try_emplace<llvm::cl::Option *>
   fun:insert
   fun:_ZN12_GLOBAL__N_117CommandLineParser9addOptionEPN4llvm2cl6OptionEPNS2_10SubCommandE
   fun:_ZN4llvm2cl6Option11addArgumentEv
   fun:UnknownInlinedFun
   fun:_GLOBAL__sub_I_LoopAccessAnalysis.cpp
   fun:call_init
   fun:call_init
   fun:_dl_init
   fun:_dl_catch_exception
   fun:dl_open_worker
   fun:_dl_catch_exception
   fun:_dl_open
   fun:dlopen_doit
   fun:_dl_catch_exception
}
{
   <insert_a_suppression_name_here>
   Memcheck:Leak
   match-leak-kinds: reachable
   fun:_Znwm
   fun:UnknownInlinedFun
   fun:UnknownInlinedFun
   fun:allocateWithKey<llvm::MallocAllocator>
   fun:Create<llvm::MallocAllocator, llvm::cl::Option *>
   fun:try_emplace<llvm::cl::Option *>
   fun:insert
   fun:_ZN12_GLOBAL__N_117CommandLineParser9addOptionEPN4llvm2cl6OptionEPNS2_10SubCommandE
   fun:_ZN4llvm2cl6Option11addArgumentEv
   fun:UnknownInlinedFun
   fun:_GLOBAL__sub_I_ProfileSummaryInfo.cpp
   fun:call_init
   fun:call_init
   fun:_dl_init
   fun:_dl_catch_exception
   fun:dl_open_worker
   fun:_dl_catch_exception
   fun:_dl_open
   fun:dlopen_doit
   fun:_dl_catch_exception
}
{
   <insert_a_suppression_name_here>
   Memcheck:Leak
   match-leak-kinds: reachable
   fun:_Znwm
   fun:UnknownInlinedFun
   fun:UnknownInlinedFun
   fun:allocateWithKey<llvm::MallocAllocator>
   fun:Create<llvm::MallocAllocator, llvm::cl::Option *>
   fun:try_emplace<llvm::cl::Option *>
   fun:insert
   fun:_ZN12_GLOBAL__N_117CommandLineParser9addOptionEPN4llvm2cl6OptionEPNS2_10SubCommandE
   fun:_ZN4llvm2cl6Option11addArgumentEv
   fun:UnknownInlinedFun
   fun:_GLOBAL__sub_I_TargetTransformInfo.cpp
   fun:call_init
   fun:call_init
   fun:_dl_init
   fun:_dl_catch_exception
   fun:dl_open_worker
   fun:_dl_catch_exception
   fun:_dl_open
   fun:dlopen_doit
   fun:_dl_catch_exception
}
{
   <insert_a_suppression_name_here>
   Memcheck:Leak
   match-leak-kinds: reachable
   fun:_Znwm
   fun:UnknownInlinedFun
   fun:UnknownInlinedFun
   fun:allocateWithKey<llvm::MallocAllocator>
   fun:Create<llvm::MallocAllocator, llvm::cl::Option *>
   fun:try_emplace<llvm::cl::Option *>
   fun:insert
   fun:_ZN12_GLOBAL__N_117CommandLineParser9addOptionEPN4llvm2cl6OptionEPNS2_10SubCommandE
   fun:_ZN4llvm2cl6Option11addArgumentEv
   fun:UnknownInlinedFun
   fun:UnknownInlinedFun
   fun:UnknownInlinedFun
   fun:_GLOBAL__sub_I_RemarkStreamer.cpp
   fun:call_init
   fun:call_init
   fun:_dl_init
   fun:_dl_catch_exception
   fun:dl_open_worker
   fun:_dl_catch_exception
   fun:_dl_open
   fun:dlopen_doit
   fun:_dl_catch_exception
}
{
   <insert_a_suppression_name_here>
   Memcheck:Leak
   match-leak-kinds: reachable
   fun:_Znwm
   fun:UnknownInlinedFun
   fun:UnknownInlinedFun
   fun:allocateWithKey<llvm::MallocAllocator>
   fun:Create<llvm::MallocAllocator, llvm::cl::Option *>
   fun:try_emplace<llvm::cl::Option *>
   fun:insert
   fun:_ZN12_GLOBAL__N_117CommandLineParser9addOptionEPN4llvm2cl6OptionEPNS2_10SubCommandE
   fun:_ZN4llvm2cl6Option11addArgumentEv
   fun:UnknownInlinedFun
   fun:_GLOBAL__sub_I_AArch64FrameLowering.cpp
   fun:call_init
   fun:call_init
   fun:_dl_init
   fun:_dl_catch_exception
   fun:dl_open_worker
   fun:_dl_catch_exception
   fun:_dl_open
   fun:dlopen_doit
   fun:_dl_catch_exception
}
{
   <insert_a_suppression_name_here>
   Memcheck:Leak
   match-leak-kinds: reachable
   fun:_Znwm
   fun:UnknownInlinedFun
   fun:UnknownInlinedFun
   fun:allocateWithKey<llvm::MallocAllocator>
   fun:Create<llvm::MallocAllocator, llvm::cl::Option *>
   fun:try_emplace<llvm::cl::Option *>
   fun:insert
   fun:_ZN12_GLOBAL__N_117CommandLineParser9addOptionEPN4llvm2cl6OptionEPNS2_10SubCommandE
   fun:_ZN4llvm2cl6Option11addArgumentEv
   fun:UnknownInlinedFun
   fun:_GLOBAL__sub_I_AArch64Subtarget.cpp
   fun:call_init
   fun:call_init
   fun:_dl_init
   fun:_dl_catch_exception
   fun:dl_open_worker
   fun:_dl_catch_exception
   fun:_dl_open
   fun:dlopen_doit
   fun:_dl_catch_exception
}
{
   <insert_a_suppression_name_here>
   Memcheck:Leak
   match-leak-kinds: reachable
   fun:_Znwm
   fun:UnknownInlinedFun
   fun:UnknownInlinedFun
   fun:allocateWithKey<llvm::MallocAllocator>
   fun:Create<llvm::MallocAllocator, llvm::cl::Option *>
   fun:try_emplace<llvm::cl::Option *>
   fun:insert
   fun:_ZN12_GLOBAL__N_117CommandLineParser9addOptionEPN4llvm2cl6OptionEPNS2_10SubCommandE
   fun:_ZN4llvm2cl6Option11addArgumentEv
   fun:UnknownInlinedFun
   fun:_GLOBAL__sub_I_AMDGPUIGroupLP.cpp
   fun:call_init
   fun:call_init
   fun:_dl_init
   fun:_dl_catch_exception
   fun:dl_open_worker
   fun:_dl_catch_exception
   fun:_dl_open
   fun:dlopen_doit
   fun:_dl_catch_exception
}
{
   <insert_a_suppression_name_here>
   Memcheck:Leak
   match-leak-kinds: reachable
   fun:_Znwm
   fun:UnknownInlinedFun
   fun:UnknownInlinedFun
   fun:allocateWithKey<llvm::MallocAllocator>
   fun:Create<llvm::MallocAllocator, llvm::cl::Option *>
   fun:try_emplace<llvm::cl::Option *>
   fun:insert
   fun:_ZN12_GLOBAL__N_117CommandLineParser9addOptionEPN4llvm2cl6OptionEPNS2_10SubCommandE
   fun:_ZN4llvm2cl6Option11addArgumentEv
   fun:UnknownInlinedFun
   fun:_GLOBAL__sub_I_R600TargetMachine.cpp
   fun:call_init
   fun:call_init
   fun:_dl_init
   fun:_dl_catch_exception
   fun:dl_open_worker
   fun:_dl_catch_exception
   fun:_dl_open
   fun:dlopen_doit
   fun:_dl_catch_exception
}
{
   <insert_a_suppression_name_here>
   Memcheck:Leak
   match-leak-kinds: reachable
   fun:_Znwm
   fun:UnknownInlinedFun
   fun:UnknownInlinedFun
   fun:allocateWithKey<llvm::MallocAllocator>
   fun:Create<llvm::MallocAllocator, llvm::cl::Option *>
   fun:try_emplace<llvm::cl::Option *>
   fun:insert
   fun:_ZN12_GLOBAL__N_117CommandLineParser9addOptionEPN4llvm2cl6OptionEPNS2_10SubCommandE
   fun:_ZN4llvm2cl6Option11addArgumentEv
   fun:done
   fun:opt<char[16], llvm::cl::initializer<int>, llvm::cl::OptionHidden>
   fun:UnknownInlinedFun
   fun:_GLOBAL__sub_I_Thumb2SizeReduction.cpp
   fun:call_init
   fun:call_init
   fun:_dl_init
   fun:_dl_catch_exception
   fun:dl_open_worker
   fun:_dl_catch_exception
   fun:_dl_open
   fun:dlopen_doit
   fun:_dl_catch_exception
}
{
   <insert_a_suppression_name_here>
   Memcheck:Leak
   match-leak-kinds: reachable
   fun:_Znwm
   fun:UnknownInlinedFun
   fun:UnknownInlinedFun
   fun:allocateWithKey<llvm::MallocAllocator>
   fun:Create<llvm::MallocAllocator, llvm::cl::Option *>
   fun:try_emplace<llvm::cl::Option *>
   fun:insert
   fun:_ZN12_GLOBAL__N_117CommandLineParser9addOptionEPN4llvm2cl6OptionEPNS2_10SubCommandE
   fun:_ZN4llvm2cl6Option11addArgumentEv
   fun:done
   fun:opt<char[16], llvm::cl::initializer<(anonymous namespace)::ImplicitItModeTy>, llvm::cl::desc, llvm::cl::ValuesClass>
   fun:UnknownInlinedFun
   fun:_GLOBAL__sub_I_ARMAsmParser.cpp
   fun:call_init
   fun:call_init
   fun:_dl_init
   fun:_dl_catch_exception
   fun:dl_open_worker
   fun:_dl_catch_exception
   fun:_dl_open
   fun:dlopen_doit
   fun:_dl_catch_exception
}
{
   <insert_a_suppression_name_here>
   Memcheck:Leak
   match-leak-kinds: reachable
   fun:_Znwm
   fun:UnknownInlinedFun
   fun:UnknownInlinedFun
   fun:allocateWithKey<llvm::MallocAllocator>
   fun:Create<llvm::MallocAllocator, llvm::cl::Option *>
   fun:try_emplace<llvm::cl::Option *>
   fun:insert
   fun:_ZN12_GLOBAL__N_117CommandLineParser9addOptionEPN4llvm2cl6OptionEPNS2_10SubCommandE
   fun:_ZN4llvm2cl6Option11addArgumentEv
   fun:UnknownInlinedFun
   fun:_GLOBAL__sub_I_HexagonCopyToCombine.cpp
   fun:call_init
   fun:call_init
   fun:_dl_init
   fun:_dl_catch_exception
   fun:dl_open_worker
   fun:_dl_catch_exception
   fun:_dl_open
   fun:dlopen_doit
   fun:_dl_catch_exception
}
{
   <insert_a_suppression_name_here>
   Memcheck:Leak
   match-leak-kinds: reachable
   fun:_Znwm
   fun:UnknownInlinedFun
   fun:UnknownInlinedFun
   fun:allocateWithKey<llvm::MallocAllocator>
   fun:Create<llvm::MallocAllocator, llvm::cl::Option *>
   fun:try_emplace<llvm::cl::Option *>
   fun:insert
   fun:_ZN12_GLOBAL__N_117CommandLineParser9addOptionEPN4llvm2cl6OptionEPNS2_10SubCommandE
   fun:_ZN4llvm2cl6Option11addArgumentEv
   fun:UnknownInlinedFun
   fun:_GLOBAL__sub_I_HexagonFrameLowering.cpp
   fun:call_init
   fun:call_init
   fun:_dl_init
   fun:_dl_catch_exception
   fun:dl_open_worker
   fun:_dl_catch_exception
   fun:_dl_open
   fun:dlopen_doit
   fun:_dl_catch_exception
}
{
   <insert_a_suppression_name_here>
   Memcheck:Leak
   match-leak-kinds: reachable
   fun:_Znwm
   fun:UnknownInlinedFun
   fun:UnknownInlinedFun
   fun:allocateWithKey<llvm::MallocAllocator>
   fun:Create<llvm::MallocAllocator, llvm::cl::Option *>
   fun:try_emplace<llvm::cl::Option *>
   fun:insert
   fun:_ZN12_GLOBAL__N_117CommandLineParser9addOptionEPN4llvm2cl6OptionEPNS2_10SubCommandE
   fun:_ZN4llvm2cl6Option11addArgumentEv
   fun:UnknownInlinedFun
   fun:_GLOBAL__sub_I_HexagonISelDAGToDAG.cpp
   fun:call_init
   fun:call_init
   fun:_dl_init
   fun:_dl_catch_exception
   fun:dl_open_worker
   fun:_dl_catch_exception
   fun:_dl_open
   fun:dlopen_doit
   fun:_dl_catch_exception
}
{
   <insert_a_suppression_name_here>
   Memcheck:Leak
   match-leak-kinds: reachable
   fun:_Znwm
   fun:UnknownInlinedFun
   fun:UnknownInlinedFun
   fun:allocateWithKey<llvm::MallocAllocator>
   fun:Create<llvm::MallocAllocator, llvm::cl::Option *>
   fun:try_emplace<llvm::cl::Option *>
   fun:insert
   fun:_ZN12_GLOBAL__N_117CommandLineParser9addOptionEPN4llvm2cl6OptionEPNS2_10SubCommandE
   fun:_ZN4llvm2cl6Option11addArgumentEv
   fun:__cxx_global_var_init.28
   fun:_GLOBAL__sub_I_HexagonSubtarget.cpp
   fun:call_init
   fun:call_init
   fun:_dl_init
   fun:_dl_catch_exception
   fun:dl_open_worker
   fun:_dl_catch_exception
   fun:_dl_open
   fun:dlopen_doit
   fun:_dl_catch_exception
}
{
   <insert_a_suppression_name_here>
   Memcheck:Leak
   match-leak-kinds: reachable
   fun:_Znwm
   fun:UnknownInlinedFun
   fun:UnknownInlinedFun
   fun:allocateWithKey<llvm::MallocAllocator>
   fun:Create<llvm::MallocAllocator, llvm::cl::Option *>
   fun:try_emplace<llvm::cl::Option *>
   fun:insert
   fun:_ZN12_GLOBAL__N_117CommandLineParser9addOptionEPN4llvm2cl6OptionEPNS2_10SubCommandE
   fun:_ZN4llvm2cl6Option11addArgumentEv
   fun:UnknownInlinedFun
   fun:_GLOBAL__sub_I_HexagonTargetTransformInfo.cpp
   fun:call_init
   fun:call_init
   fun:_dl_init
   fun:_dl_catch_exception
   fun:dl_open_worker
   fun:_dl_catch_exception
   fun:_dl_open
   fun:dlopen_doit
   fun:_dl_catch_exception
}
{
   <insert_a_suppression_name_here>
   Memcheck:Leak
   match-leak-kinds: reachable
   fun:_Znwm
   fun:UnknownInlinedFun
   fun:UnknownInlinedFun
   fun:allocateWithKey<llvm::MallocAllocator>
   fun:Create<llvm::MallocAllocator, llvm::cl::Option *>
   fun:try_emplace<llvm::cl::Option *>
   fun:insert
   fun:_ZN12_GLOBAL__N_117CommandLineParser9addOptionEPN4llvm2cl6OptionEPNS2_10SubCommandE
   fun:_ZN4llvm2cl6Option11addArgumentEv
   fun:UnknownInlinedFun
   fun:_GLOBAL__sub_I_HexagonVLIWPacketizer.cpp
   fun:call_init
   fun:call_init
   fun:_dl_init
   fun:_dl_catch_exception
   fun:dl_open_worker
   fun:_dl_catch_exception
   fun:_dl_open
   fun:dlopen_doit
   fun:_dl_catch_exception
}
{
   <insert_a_suppression_name_here>
   Memcheck:Leak
   match-leak-kinds: reachable
   fun:_Znwm
   fun:UnknownInlinedFun
   fun:UnknownInlinedFun
   fun:allocateWithKey<llvm::MallocAllocator>
   fun:Create<llvm::MallocAllocator, llvm::cl::Option *>
   fun:try_emplace<llvm::cl::Option *>
   fun:insert
   fun:_ZN12_GLOBAL__N_117CommandLineParser9addOptionEPN4llvm2cl6OptionEPNS2_10SubCommandE
   fun:_ZN4llvm2cl6Option11addArgumentEv
   fun:UnknownInlinedFun
   fun:_GLOBAL__sub_I_HexagonMCChecker.cpp
   fun:call_init
   fun:call_init
   fun:_dl_init
   fun:_dl_catch_exception
   fun:dl_open_worker
   fun:_dl_catch_exception
   fun:_dl_open
   fun:dlopen_doit
   fun:_dl_catch_exception
}
{
   <insert_a_suppression_name_here>
   Memcheck:Leak
   match-leak-kinds: reachable
   fun:_Znwm
   fun:UnknownInlinedFun
   fun:UnknownInlinedFun
   fun:allocateWithKey<llvm::MallocAllocator>
   fun:Create<llvm::MallocAllocator, llvm::cl::Option *>
   fun:try_emplace<llvm::cl::Option *>
   fun:insert
   fun:_ZN12_GLOBAL__N_117CommandLineParser9addOptionEPN4llvm2cl6OptionEPNS2_10SubCommandE
   fun:_ZN4llvm2cl6Option11addArgumentEv
   fun:UnknownInlinedFun
   fun:_GLOBAL__sub_I_MipsSEISelLowering.cpp
   fun:call_init
   fun:call_init
   fun:_dl_init
   fun:_dl_catch_exception
   fun:dl_open_worker
   fun:_dl_catch_exception
   fun:_dl_open
   fun:dlopen_doit
   fun:_dl_catch_exception
}
{
   <insert_a_suppression_name_here>
   Memcheck:Leak
   match-leak-kinds: reachable
   fun:_Znwm
   fun:UnknownInlinedFun
   fun:UnknownInlinedFun
   fun:allocateWithKey<llvm::MallocAllocator>
   fun:Create<llvm::MallocAllocator, llvm::cl::Option *>
   fun:try_emplace<llvm::cl::Option *>
   fun:insert
   fun:_ZN12_GLOBAL__N_117CommandLineParser9addOptionEPN4llvm2cl6OptionEPNS2_10SubCommandE
   fun:_ZN4llvm2cl6Option11addArgumentEv
   fun:UnknownInlinedFun
   fun:_GLOBAL__sub_I_MipsABIInfo.cpp
   fun:call_init
   fun:call_init
   fun:_dl_init
   fun:_dl_catch_exception
   fun:dl_open_worker
   fun:_dl_catch_exception
   fun:_dl_open
   fun:dlopen_doit
   fun:_dl_catch_exception
}
{
   <insert_a_suppression_name_here>
   Memcheck:Leak
   match-leak-kinds: reachable
   fun:_Znwm
   fun:UnknownInlinedFun
   fun:UnknownInlinedFun
   fun:allocateWithKey<llvm::MallocAllocator>
   fun:Create<llvm::MallocAllocator, llvm::cl::Option *>
   fun:try_emplace<llvm::cl::Option *>
   fun:insert
   fun:_ZN12_GLOBAL__N_117CommandLineParser9addOptionEPN4llvm2cl6OptionEPNS2_10SubCommandE
   fun:_ZN4llvm2cl6Option11addArgumentEv
   fun:UnknownInlinedFun
   fun:_GLOBAL__sub_I_NVPTXISelLowering.cpp
   fun:call_init
   fun:call_init
   fun:_dl_init
   fun:_dl_catch_exception
   fun:dl_open_worker
   fun:_dl_catch_exception
   fun:_dl_open
   fun:dlopen_doit
   fun:_dl_catch_exception
}
{
   <insert_a_suppression_name_here>
   Memcheck:Leak
   match-leak-kinds: reachable
   fun:_Znwm
   fun:UnknownInlinedFun
   fun:UnknownInlinedFun
   fun:allocateWithKey<llvm::MallocAllocator>
   fun:Create<llvm::MallocAllocator, llvm::cl::Option *>
   fun:try_emplace<llvm::cl::Option *>
   fun:insert
   fun:_ZN12_GLOBAL__N_117CommandLineParser9addOptionEPN4llvm2cl6OptionEPNS2_10SubCommandE
   fun:_ZN4llvm2cl6Option11addArgumentEv
   fun:UnknownInlinedFun
   fun:_GLOBAL__sub_I_NVPTXTargetMachine.cpp
   fun:call_init
   fun:call_init
   fun:_dl_init
   fun:_dl_catch_exception
   fun:dl_open_worker
   fun:_dl_catch_exception
   fun:_dl_open
   fun:dlopen_doit
   fun:_dl_catch_exception
}
{
   <insert_a_suppression_name_here>
   Memcheck:Leak
   match-leak-kinds: reachable
   fun:_Znwm
   fun:UnknownInlinedFun
   fun:UnknownInlinedFun
   fun:allocateWithKey<llvm::MallocAllocator>
   fun:Create<llvm::MallocAllocator, llvm::cl::Option *>
   fun:try_emplace<llvm::cl::Option *>
   fun:insert
   fun:_ZN12_GLOBAL__N_117CommandLineParser9addOptionEPN4llvm2cl6OptionEPNS2_10SubCommandE
   fun:_ZN4llvm2cl6Option11addArgumentEv
   fun:UnknownInlinedFun
   fun:_GLOBAL__sub_I_PPCISelLowering.cpp
   fun:call_init
   fun:call_init
   fun:_dl_init
   fun:_dl_catch_exception
   fun:dl_open_worker
   fun:_dl_catch_exception
   fun:_dl_open
   fun:dlopen_doit
   fun:_dl_catch_exception
}
{
   <insert_a_suppression_name_here>
   Memcheck:Leak
   match-leak-kinds: reachable
   fun:_Znwm
   fun:UnknownInlinedFun
   fun:UnknownInlinedFun
   fun:allocateWithKey<llvm::MallocAllocator>
   fun:Create<llvm::MallocAllocator, llvm::cl::Option *>
   fun:try_emplace<llvm::cl::Option *>
   fun:insert
   fun:_ZN12_GLOBAL__N_117CommandLineParser9addOptionEPN4llvm2cl6OptionEPNS2_10SubCommandE
   fun:_ZN4llvm2cl6Option11addArgumentEv
   fun:UnknownInlinedFun
   fun:_GLOBAL__sub_I_X86Subtarget.cpp
   fun:call_init
   fun:call_init
   fun:_dl_init
   fun:_dl_catch_exception
   fun:dl_open_worker
   fun:_dl_catch_exception
   fun:_dl_open
   fun:dlopen_doit
   fun:_dl_catch_exception
}
{
   <insert_a_suppression_name_here>
   Memcheck:Leak
   match-leak-kinds: reachable
   fun:_Znwm
   fun:UnknownInlinedFun
   fun:UnknownInlinedFun
   fun:_GLOBAL__sub_I_PassBuilder.cpp
   fun:call_init
   fun:call_init
   fun:_dl_init
   fun:_dl_catch_exception
   fun:dl_open_worker
   fun:_dl_catch_exception
   fun:_dl_open
   fun:dlopen_doit
   fun:_dl_catch_exception
   fun:_dl_catch_error
   fun:_dlerror_run
}
{
   <insert_a_suppression_name_here>
   Memcheck:Leak
   match-leak-kinds: reachable
   fun:_Znwm
   fun:UnknownInlinedFun
   fun:UnknownInlinedFun
   fun:allocateWithKey<llvm::MallocAllocator>
   fun:Create<llvm::MallocAllocator, llvm::cl::Option *>
   fun:try_emplace<llvm::cl::Option *>
   fun:insert
   fun:_ZN12_GLOBAL__N_117CommandLineParser9addOptionEPN4llvm2cl6OptionEPNS2_10SubCommandE
   fun:_ZN4llvm2cl6Option11addArgumentEv
   fun:UnknownInlinedFun
   fun:_GLOBAL__sub_I_PassBuilderPipelines.cpp
   fun:call_init
   fun:call_init
   fun:_dl_init
   fun:_dl_catch_exception
   fun:dl_open_worker
   fun:_dl_catch_exception
   fun:_dl_open
   fun:dlopen_doit
   fun:_dl_catch_exception
}
{
   <insert_a_suppression_name_here>
   Memcheck:Leak
   match-leak-kinds: reachable
   fun:calloc
   fun:amdgpu_vamgr_init
   fun:amdgpu_device_initialize
   fun:amdgpu_winsys_create
   fun:radeonsi_screen_create
   fun:pipe_radeonsi_create_screen
   fun:pipe_loader_create_screen_vk
   fun:dri2_init_screen
   fun:driCreateNewScreen2
   fun:dri3_create_screen
   fun:AllocAndFetchScreenConfigs
   fun:__glXInitialize
   fun:GetGLXPrivScreenConfig
   fun:glXChooseVisual
}
{
   <insert_a_suppression_name_here>
   Memcheck:Leak
   match-leak-kinds: reachable
   fun:_Znwm
   fun:UnknownInlinedFun
   fun:UnknownInlinedFun
   fun:allocateWithKey<llvm::MallocAllocator>
   fun:Create<llvm::MallocAllocator>
   fun:try_emplace<>
   fun:operator[]
   fun:_ZN4llvm12PassRegistry12registerPassERKNS_8PassInfoEb
   fun:_ZL37initializeR600ClauseMergePassPassOnceRN4llvm12PassRegistryE.llvm.6518226570109893307
   fun:__pthread_once_slow
   fun:UnknownInlinedFun
   fun:UnknownInlinedFun
   fun:UnknownInlinedFun
   fun:UnknownInlinedFun
   fun:LLVMInitializeAMDGPUTarget
   fun:ac_init_llvm_target
   fun:__pthread_once_slow
   fun:si_init_compiler
   fun:radeonsi_screen_create_impl
   fun:amdgpu_winsys_create
   fun:radeonsi_screen_create
   fun:pipe_radeonsi_create_screen
}
{
   <insert_a_suppression_name_here>
   Memcheck:Leak
   match-leak-kinds: reachable
   fun:_Znwm
   fun:UnknownInlinedFun
   fun:UnknownInlinedFun
   fun:allocateWithKey<llvm::MallocAllocator>
   fun:Create<llvm::MallocAllocator>
   fun:try_emplace<>
   fun:operator[]
   fun:_ZN4llvm12PassRegistry12registerPassERKNS_8PassInfoEb
   fun:_ZL32initializeStackProtectorPassOnceRN4llvm12PassRegistryE.llvm.3003033583687452714
   fun:__pthread_once_slow
   fun:UnknownInlinedFun
   fun:UnknownInlinedFun
   fun:UnknownInlinedFun
   fun:UnknownInlinedFun
   fun:_ZL30initializeIRTranslatorPassOnceRN4llvm12PassRegistryE.llvm.9446234758661035977
   fun:__pthread_once_slow
   fun:UnknownInlinedFun
   fun:UnknownInlinedFun
   fun:UnknownInlinedFun
   fun:UnknownInlinedFun
   fun:_ZN4llvm20initializeGlobalISelERNS_12PassRegistryE
   fun:LLVMInitializeAMDGPUTarget
   fun:ac_init_llvm_target
   fun:__pthread_once_slow
   fun:si_init_compiler
   fun:radeonsi_screen_create_impl
}
{
   <insert_a_suppression_name_here>
   Memcheck:Leak
   match-leak-kinds: reachable
   fun:_Znwm
   fun:UnknownInlinedFun
   fun:UnknownInlinedFun
   fun:allocateWithKey<llvm::MallocAllocator>
   fun:Create<llvm::MallocAllocator>
   fun:try_emplace<>
   fun:operator[]
   fun:_ZN4llvm12PassRegistry12registerPassERKNS_8PassInfoEb
   fun:_ZL44initializeLazyBlockFrequencyInfoPassPassOnceRN4llvm12PassRegistryE.llvm.400240112618286575
   fun:__pthread_once_slow
   fun:UnknownInlinedFun
   fun:UnknownInlinedFun
   fun:UnknownInlinedFun
   fun:UnknownInlinedFun
   fun:_ZL35initializeInstructionSelectPassOnceRN4llvm12PassRegistryE.llvm.11198586072696723999
   fun:__pthread_once_slow
   fun:UnknownInlinedFun
   fun:UnknownInlinedFun
   fun:UnknownInlinedFun
   fun:UnknownInlinedFun
   fun:_ZN4llvm20initializeGlobalISelERNS_12PassRegistryE
   fun:LLVMInitializeAMDGPUTarget
   fun:ac_init_llvm_target
   fun:__pthread_once_slow
   fun:si_init_compiler
   fun:radeonsi_screen_create_impl
}
{
   <insert_a_suppression_name_here>
   Memcheck:Leak
   match-leak-kinds: reachable
   fun:_Znwm
   fun:UnknownInlinedFun
   fun:UnknownInlinedFun
   fun:allocateWithKey<llvm::MallocAllocator>
   fun:Create<llvm::MallocAllocator>
   fun:try_emplace<>
   fun:operator[]
   fun:_ZN4llvm12PassRegistry12registerPassERKNS_8PassInfoEb
   fun:_ZL31initializeGCNDPPCombinePassOnceRN4llvm12PassRegistryE.llvm.12946437728473008074
   fun:__pthread_once_slow
   fun:UnknownInlinedFun
   fun:UnknownInlinedFun
   fun:UnknownInlinedFun
   fun:UnknownInlinedFun
   fun:LLVMInitializeAMDGPUTarget
   fun:ac_init_llvm_target
   fun:__pthread_once_slow
   fun:si_init_compiler
   fun:radeonsi_screen_create_impl
   fun:amdgpu_winsys_create
   fun:radeonsi_screen_create
   fun:pipe_radeonsi_create_screen
}
{
   <insert_a_suppression_name_here>
   Memcheck:Leak
   match-leak-kinds: reachable
   fun:_Znwm
   fun:UnknownInlinedFun
   fun:UnknownInlinedFun
   fun:allocateWithKey<llvm::MallocAllocator>
   fun:Create<llvm::MallocAllocator>
   fun:try_emplace<>
   fun:operator[]
   fun:_ZN4llvm12PassRegistry12registerPassERKNS_8PassInfoEb
   fun:_ZL31initializeGCNCreateVOPDPassOnceRN4llvm12PassRegistryE.llvm.17592905027929055271
   fun:__pthread_once_slow
   fun:UnknownInlinedFun
   fun:UnknownInlinedFun
   fun:UnknownInlinedFun
   fun:UnknownInlinedFun
   fun:LLVMInitializeAMDGPUTarget
   fun:ac_init_llvm_target
   fun:__pthread_once_slow
   fun:si_init_compiler
   fun:radeonsi_screen_create_impl
   fun:amdgpu_winsys_create
   fun:radeonsi_screen_create
   fun:pipe_radeonsi_create_screen
}
{
   <insert_a_suppression_name_here>
   Memcheck:Leak
   match-leak-kinds: reachable
   fun:_Znwm
   fun:UnknownInlinedFun
   fun:UnknownInlinedFun
   fun:UnknownInlinedFun
   fun:_ZN12_GLOBAL__N_125CreateCrashDiagnosticsDir4callEv.llvm.11323843139828072403
   fun:UnknownInlinedFun
   fun:operator*
   fun:_ZN4llvm18initSignalsOptionsEv
   fun:_ZL17initCommonOptionsv
   fun:_ZN4llvm2cl23ParseCommandLineOptionsEiPKPKcNS_9StringRefEPNS_11raw_ostreamES2_b
   fun:LLVMParseCommandLineOptions
   fun:ac_init_llvm_target
   fun:__pthread_once_slow
   fun:si_init_compiler
   fun:radeonsi_screen_create_impl
   fun:amdgpu_winsys_create
   fun:radeonsi_screen_create
}
{
   <insert_a_suppression_name_here>
   Memcheck:Leak
   match-leak-kinds: reachable
   fun:_Znwm
   fun:UnknownInlinedFun
   fun:UnknownInlinedFun
   fun:UnknownInlinedFun
   fun:UnknownInlinedFun
   fun:_ZN12_GLOBAL__N_124CreateInfoOutputFilename4callEv.llvm.14068357386885210872
   fun:UnknownInlinedFun
   fun:operator*
   fun:_ZN4llvm16initTimerOptionsEv
   fun:_ZL17initCommonOptionsv
   fun:_ZN4llvm2cl23ParseCommandLineOptionsEiPKPKcNS_9StringRefEPNS_11raw_ostreamES2_b
   fun:LLVMParseCommandLineOptions
   fun:ac_init_llvm_target
   fun:__pthread_once_slow
   fun:si_init_compiler
   fun:radeonsi_screen_create_impl
   fun:amdgpu_winsys_create
   fun:radeonsi_screen_create
}
{
   <insert_a_suppression_name_here>
   Memcheck:Leak
   match-leak-kinds: reachable
   fun:_Znwm
   fun:_ZN4llvm17PMTopLevelManager12schedulePassEPNS_4PassE
   fun:ac_create_passmgr
   fun:ac_init_llvm_compiler
   fun:si_init_compiler
   fun:radeonsi_screen_create_impl
   fun:amdgpu_winsys_create
   fun:radeonsi_screen_create
   fun:pipe_radeonsi_create_screen
   fun:pipe_loader_create_screen_vk
   fun:dri2_init_screen
   fun:driCreateNewScreen2
   fun:dri3_create_screen
}
{
   <insert_a_suppression_name_here>
   Memcheck:Leak
   match-leak-kinds: reachable
   fun:_Znwm
   fun:_ZN4llvm13PMDataManager3addEPNS_4PassEb
   fun:_ZN4llvm17PMTopLevelManager12schedulePassEPNS_4PassE
   fun:_ZN4llvm17PMTopLevelManager12schedulePassEPNS_4PassE
   fun:ac_create_passmgr
   fun:ac_init_llvm_compiler
   fun:si_init_compiler
   fun:radeonsi_screen_create_impl
   fun:amdgpu_winsys_create
   fun:radeonsi_screen_create
   fun:pipe_radeonsi_create_screen
   fun:pipe_loader_create_screen_vk
   fun:dri2_init_screen
}
{
   <insert_a_suppression_name_here>
   Memcheck:Leak
   match-leak-kinds: reachable
   fun:_Znwm
   fun:_ZN4llvm13PMDataManager3addEPNS_4PassEb
   fun:_ZN4llvm17PMTopLevelManager12schedulePassEPNS_4PassE
   fun:_ZN4llvm16CallGraphSCCPass17assignPassManagerERNS_7PMStackENS_15PassManagerTypeE
   fun:_ZN4llvm17PMTopLevelManager12schedulePassEPNS_4PassE
   fun:ac_create_passmgr
   fun:ac_init_llvm_compiler
   fun:si_init_compiler
   fun:radeonsi_screen_create_impl
   fun:amdgpu_winsys_create
   fun:radeonsi_screen_create
   fun:pipe_radeonsi_create_screen
   fun:pipe_loader_create_screen_vk
}
{
   <insert_a_suppression_name_here>
   Memcheck:Leak
   match-leak-kinds: reachable
   fun:_Znwm
   fun:_ZN4llvm13PMDataManager3addEPNS_4PassEb
   fun:_ZN4llvm17PMTopLevelManager12schedulePassEPNS_4PassE
   fun:ac_create_passmgr
   fun:ac_init_llvm_compiler
   fun:si_init_compiler
   fun:radeonsi_screen_create_impl
   fun:amdgpu_winsys_create
   fun:radeonsi_screen_create
   fun:pipe_radeonsi_create_screen
   fun:pipe_loader_create_screen_vk
   fun:dri2_init_screen
   fun:driCreateNewScreen2
}
{
   <insert_a_suppression_name_here>
   Memcheck:Leak
   match-leak-kinds: reachable
   fun:_Znwm
   fun:_ZN4llvm21createBarrierNoopPassEv
   fun:ac_llvm_add_barrier_noop_pass
   fun:ac_create_passmgr
   fun:ac_init_llvm_compiler
   fun:si_init_compiler
   fun:radeonsi_screen_create_impl
   fun:amdgpu_winsys_create
   fun:radeonsi_screen_create
   fun:pipe_radeonsi_create_screen
   fun:pipe_loader_create_screen_vk
   fun:dri2_init_screen
   fun:driCreateNewScreen2
}
{
   <insert_a_suppression_name_here>
   Memcheck:Leak
   match-leak-kinds: reachable
   fun:_Znwm
   fun:_ZN4llvm33createPromoteMemoryToRegisterPassEv
   fun:LLVMAddPromoteMemoryToRegisterPass
   fun:ac_create_passmgr
   fun:ac_init_llvm_compiler
   fun:si_init_compiler
   fun:radeonsi_screen_create_impl
   fun:amdgpu_winsys_create
   fun:radeonsi_screen_create
   fun:pipe_radeonsi_create_screen
   fun:pipe_loader_create_screen_vk
   fun:dri2_init_screen
   fun:driCreateNewScreen2
}
{
   <insert_a_suppression_name_here>
   Memcheck:Leak
   match-leak-kinds: reachable
   fun:_Znwm
   fun:_ZN4llvm13PMDataManager3addEPNS_4PassEb
   fun:_ZN4llvm12FunctionPass17assignPassManagerERNS_7PMStackENS_15PassManagerTypeE
   fun:_ZN4llvm17PMTopLevelManager12schedulePassEPNS_4PassE
   fun:_ZN4llvm17PMTopLevelManager12schedulePassEPNS_4PassE
   fun:ac_create_passmgr
   fun:ac_init_llvm_compiler
   fun:si_init_compiler
   fun:radeonsi_screen_create_impl
   fun:amdgpu_winsys_create
   fun:radeonsi_screen_create
   fun:pipe_radeonsi_create_screen
   fun:pipe_loader_create_screen_vk
}
{
   <insert_a_suppression_name_here>
   Memcheck:Leak
   match-leak-kinds: reachable
   fun:_Znwm
   fun:_ZN4llvm13PMDataManager3addEPNS_4PassEb
   fun:_ZN4llvm17PMTopLevelManager12schedulePassEPNS_4PassE
   fun:_ZN4llvm17PMTopLevelManager12schedulePassEPNS_4PassE
   fun:_ZN4llvm17PMTopLevelManager12schedulePassEPNS_4PassE
   fun:_ZN4llvm17PMTopLevelManager12schedulePassEPNS_4PassE
   fun:ac_create_passmgr
   fun:ac_init_llvm_compiler
   fun:si_init_compiler
   fun:radeonsi_screen_create_impl
   fun:amdgpu_winsys_create
   fun:radeonsi_screen_create
   fun:pipe_radeonsi_create_screen
}
{
   <insert_a_suppression_name_here>
   Memcheck:Leak
   match-leak-kinds: reachable
   fun:_Znwm
   fun:_ZN4llvm17PMTopLevelManager12schedulePassEPNS_4PassE
   fun:_ZN4llvm17PMTopLevelManager12schedulePassEPNS_4PassE
   fun:ac_create_passmgr
   fun:ac_init_llvm_compiler
   fun:si_init_compiler
   fun:radeonsi_screen_create_impl
   fun:amdgpu_winsys_create
   fun:radeonsi_screen_create
   fun:pipe_radeonsi_create_screen
   fun:pipe_loader_create_screen_vk
   fun:dri2_init_screen
   fun:driCreateNewScreen2
}
{
   <insert_a_suppression_name_here>
   Memcheck:Leak
   match-leak-kinds: reachable
   fun:_Znwm
   fun:_ZN4llvm15callDefaultCtorIN12_GLOBAL__N_112LoopSimplifyEEEPNS_4PassEv
   fun:createPass
   fun:_ZN4llvm17PMTopLevelManager12schedulePassEPNS_4PassE
   fun:ac_create_passmgr
   fun:ac_init_llvm_compiler
   fun:si_init_compiler
   fun:radeonsi_screen_create_impl
   fun:amdgpu_winsys_create
   fun:radeonsi_screen_create
   fun:pipe_radeonsi_create_screen
   fun:pipe_loader_create_screen_vk
   fun:dri2_init_screen
   fun:driCreateNewScreen2
}
{
   <insert_a_suppression_name_here>
   Memcheck:Leak
   match-leak-kinds: reachable
   fun:_Znwm
   fun:_ZN4llvm15callDefaultCtorINS_21LCSSAVerificationPassEEEPNS_4PassEv
   fun:createPass
   fun:_ZN4llvm17PMTopLevelManager12schedulePassEPNS_4PassE
   fun:_ZN4llvm17PMTopLevelManager12schedulePassEPNS_4PassE
   fun:ac_create_passmgr
   fun:ac_init_llvm_compiler
   fun:si_init_compiler
   fun:radeonsi_screen_create_impl
   fun:amdgpu_winsys_create
   fun:radeonsi_screen_create
   fun:pipe_radeonsi_create_screen
   fun:pipe_loader_create_screen_vk
   fun:dri2_init_screen
}
{
   <insert_a_suppression_name_here>
   Memcheck:Leak
   match-leak-kinds: reachable
   fun:_Znwm
   fun:_ZN4llvm13PMDataManager3addEPNS_4PassEb
   fun:_ZN4llvm17PMTopLevelManager12schedulePassEPNS_4PassE
   fun:_ZN4llvm8LoopPass17assignPassManagerERNS_7PMStackENS_15PassManagerTypeE
   fun:_ZN4llvm17PMTopLevelManager12schedulePassEPNS_4PassE
   fun:ac_create_passmgr
   fun:ac_init_llvm_compiler
   fun:si_init_compiler
   fun:radeonsi_screen_create_impl
   fun:amdgpu_winsys_create
   fun:radeonsi_screen_create
   fun:pipe_radeonsi_create_screen
   fun:pipe_loader_create_screen_vk
}
{
   <insert_a_suppression_name_here>
   Memcheck:Leak
   match-leak-kinds: reachable
   fun:_Znwm
   fun:allocate
   fun:allocate
   fun:_M_allocate
   fun:_M_realloc_insert<llvm::PMDataManager *const &>
   fun:push_back
   fun:_ZN4llvm7PMStack4pushEPNS_13PMDataManagerE
   fun:_ZN4llvm8LoopPass17assignPassManagerERNS_7PMStackENS_15PassManagerTypeE
   fun:_ZN4llvm17PMTopLevelManager12schedulePassEPNS_4PassE
   fun:ac_create_passmgr
   fun:ac_init_llvm_compiler
   fun:si_init_compiler
   fun:radeonsi_screen_create_impl
   fun:amdgpu_winsys_create
   fun:radeonsi_screen_create
   fun:pipe_radeonsi_create_screen
   fun:pipe_loader_create_screen_vk
   fun:dri2_init_screen
}
{
   <insert_a_suppression_name_here>
   Memcheck:Leak
   match-leak-kinds: reachable
   fun:_Znwm
   fun:_ZN4llvm23createAggressiveDCEPassEv
   fun:LLVMAddAggressiveDCEPass
   fun:ac_create_passmgr
   fun:ac_init_llvm_compiler
   fun:si_init_compiler
   fun:radeonsi_screen_create_impl
   fun:amdgpu_winsys_create
   fun:radeonsi_screen_create
   fun:pipe_radeonsi_create_screen
   fun:pipe_loader_create_screen_vk
   fun:dri2_init_screen
   fun:driCreateNewScreen2
}
{
   <insert_a_suppression_name_here>
   Memcheck:Leak
   match-leak-kinds: reachable
   fun:_Znwm
   fun:_ZN4llvm13PMDataManager3addEPNS_4PassEb
   fun:_ZN4llvm17PMTopLevelManager12schedulePassEPNS_4PassE
   fun:LLVMAddCFGSimplificationPass
   fun:ac_create_passmgr
   fun:ac_init_llvm_compiler
   fun:si_init_compiler
   fun:radeonsi_screen_create_impl
   fun:amdgpu_winsys_create
   fun:radeonsi_screen_create
   fun:pipe_radeonsi_create_screen
   fun:pipe_loader_create_screen_vk
   fun:dri2_init_screen
}
{
   <insert_a_suppression_name_here>
   Memcheck:Leak
   match-leak-kinds: reachable
   fun:_Znwm
   fun:_ZN4llvm18createEarlyCSEPassEb
   fun:LLVMAddEarlyCSEMemSSAPass
   fun:ac_create_passmgr
   fun:ac_init_llvm_compiler
   fun:si_init_compiler
   fun:radeonsi_screen_create_impl
   fun:amdgpu_winsys_create
   fun:radeonsi_screen_create
   fun:pipe_radeonsi_create_screen
   fun:pipe_loader_create_screen_vk
   fun:dri2_init_screen
   fun:driCreateNewScreen2
}
{
   <insert_a_suppression_name_here>
   Memcheck:Leak
   match-leak-kinds: reachable
   fun:_Znwm
   fun:_ZN4llvm13PMDataManager3addEPNS_4PassEb
   fun:_ZN4llvm17PMTopLevelManager12schedulePassEPNS_4PassE
   fun:_ZN4llvm17PMTopLevelManager12schedulePassEPNS_4PassE
   fun:_ZN4llvm17PMTopLevelManager12schedulePassEPNS_4PassE
   fun:ac_create_passmgr
   fun:ac_init_llvm_compiler
   fun:si_init_compiler
   fun:radeonsi_screen_create_impl
   fun:amdgpu_winsys_create
   fun:radeonsi_screen_create
   fun:pipe_radeonsi_create_screen
   fun:pipe_loader_create_screen_vk
}
{
   <insert_a_suppression_name_here>
   Memcheck:Leak
   match-leak-kinds: reachable
   fun:_Znwm
   fun:UnknownInlinedFun
   fun:UnknownInlinedFun
   fun:allocateWithKey<llvm::MallocAllocator>
   fun:Create<llvm::MallocAllocator>
   fun:try_emplace<>
   fun:operator[]
   fun:_ZN4llvm12PassRegistry12registerPassERKNS_8PassInfoEb
   fun:_ZL33initializeLiveDebugValuesPassOnceRN4llvm12PassRegistryE.llvm.15751480036475052821
   fun:__pthread_once_slow
   fun:UnknownInlinedFun
   fun:UnknownInlinedFun
   fun:UnknownInlinedFun
   fun:UnknownInlinedFun
   fun:_ZN4llvm17initializeCodeGenERNS_12PassRegistryE
   fun:_ZN4llvm16TargetPassConfigC1ERNS_17LLVMTargetMachineERNS_6legacy15PassManagerBaseE
   fun:AMDGPUPassConfig
   fun:GCNPassConfig
   fun:_ZN4llvm16GCNTargetMachine16createPassConfigERNS_6legacy15PassManagerBaseE
   fun:addPassesToGenerateCode
   fun:_ZN4llvm17LLVMTargetMachine19addPassesToEmitFileERNS_6legacy15PassManagerBaseERNS_17raw_pwrite_streamEPS4_NS_15CodeGenFileTypeEbPNS_28MachineModuleInfoWrapperPassE
   fun:ac_create_llvm_passes
   fun:si_init_compiler
   fun:radeonsi_screen_create_impl
   fun:amdgpu_winsys_create
}
{
   <insert_a_suppression_name_here>
   Memcheck:Leak
   match-leak-kinds: reachable
   fun:_Znwm
   fun:UnknownInlinedFun
   fun:UnknownInlinedFun
   fun:allocateWithKey<llvm::MallocAllocator>
   fun:Create<llvm::MallocAllocator>
   fun:try_emplace<>
   fun:operator[]
   fun:_ZN4llvm12PassRegistry12registerPassERKNS_8PassInfoEb
   fun:_ZL36initializeLocalStackSlotPassPassOnceRN4llvm12PassRegistryE.llvm.17281457609976349628
   fun:__pthread_once_slow
   fun:UnknownInlinedFun
   fun:UnknownInlinedFun
   fun:UnknownInlinedFun
   fun:UnknownInlinedFun
   fun:_ZN4llvm17initializeCodeGenERNS_12PassRegistryE
   fun:_ZN4llvm16TargetPassConfigC1ERNS_17LLVMTargetMachineERNS_6legacy15PassManagerBaseE
   fun:AMDGPUPassConfig
   fun:GCNPassConfig
   fun:_ZN4llvm16GCNTargetMachine16createPassConfigERNS_6legacy15PassManagerBaseE
   fun:addPassesToGenerateCode
   fun:_ZN4llvm17LLVMTargetMachine19addPassesToEmitFileERNS_6legacy15PassManagerBaseERNS_17raw_pwrite_streamEPS4_NS_15CodeGenFileTypeEbPNS_28MachineModuleInfoWrapperPassE
   fun:ac_create_llvm_passes
   fun:si_init_compiler
   fun:radeonsi_screen_create_impl
   fun:amdgpu_winsys_create
}
{
   <insert_a_suppression_name_here>
   Memcheck:Leak
   match-leak-kinds: reachable
   fun:_Znwm
   fun:UnknownInlinedFun
   fun:UnknownInlinedFun
   fun:allocateWithKey<llvm::MallocAllocator>
   fun:Create<llvm::MallocAllocator>
   fun:try_emplace<>
   fun:operator[]
   fun:_ZN4llvm12PassRegistry12registerPassERKNS_8PassInfoEb
   fun:_ZL39initializeMachineBlockPlacementPassOnceRN4llvm12PassRegistryE.llvm.4403851614559682541
   fun:__pthread_once_slow
   fun:UnknownInlinedFun
   fun:UnknownInlinedFun
   fun:UnknownInlinedFun
   fun:UnknownInlinedFun
   fun:_ZN4llvm17initializeCodeGenERNS_12PassRegistryE
   fun:_ZN4llvm16TargetPassConfigC1ERNS_17LLVMTargetMachineERNS_6legacy15PassManagerBaseE
   fun:AMDGPUPassConfig
   fun:GCNPassConfig
   fun:_ZN4llvm16GCNTargetMachine16createPassConfigERNS_6legacy15PassManagerBaseE
   fun:addPassesToGenerateCode
   fun:_ZN4llvm17LLVMTargetMachine19addPassesToEmitFileERNS_6legacy15PassManagerBaseERNS_17raw_pwrite_streamEPS4_NS_15CodeGenFileTypeEbPNS_28MachineModuleInfoWrapperPassE
   fun:ac_create_llvm_passes
   fun:si_init_compiler
   fun:radeonsi_screen_create_impl
   fun:amdgpu_winsys_create
}
{
   <insert_a_suppression_name_here>
   Memcheck:Leak
   match-leak-kinds: reachable
   fun:_Znwm
   fun:UnknownInlinedFun
   fun:UnknownInlinedFun
   fun:allocateWithKey<llvm::MallocAllocator>
   fun:Create<llvm::MallocAllocator>
   fun:try_emplace<>
   fun:operator[]
   fun:_ZN4llvm12PassRegistry12registerPassERKNS_8PassInfoEb
   fun:_ZL37initializeMachineVerifierPassPassOnceRN4llvm12PassRegistryE.llvm.14059143604153003762
   fun:__pthread_once_slow
   fun:UnknownInlinedFun
   fun:UnknownInlinedFun
   fun:UnknownInlinedFun
   fun:UnknownInlinedFun
   fun:_ZN4llvm17initializeCodeGenERNS_12PassRegistryE
   fun:_ZN4llvm16TargetPassConfigC1ERNS_17LLVMTargetMachineERNS_6legacy15PassManagerBaseE
   fun:AMDGPUPassConfig
   fun:GCNPassConfig
   fun:_ZN4llvm16GCNTargetMachine16createPassConfigERNS_6legacy15PassManagerBaseE
   fun:addPassesToGenerateCode
   fun:_ZN4llvm17LLVMTargetMachine19addPassesToEmitFileERNS_6legacy15PassManagerBaseERNS_17raw_pwrite_streamEPS4_NS_15CodeGenFileTypeEbPNS_28MachineModuleInfoWrapperPassE
   fun:ac_create_llvm_passes
   fun:si_init_compiler
   fun:radeonsi_screen_create_impl
   fun:amdgpu_winsys_create
}
{
   <insert_a_suppression_name_here>
   Memcheck:Leak
   match-leak-kinds: reachable
   fun:_Znwm
   fun:UnknownInlinedFun
   fun:UnknownInlinedFun
   fun:allocateWithKey<llvm::MallocAllocator>
   fun:Create<llvm::MallocAllocator>
   fun:try_emplace<>
   fun:operator[]
   fun:_ZN4llvm12PassRegistry12registerPassERKNS_8PassInfoEb
   fun:_ZL32initializeSelectOptimizePassOnceRN4llvm12PassRegistryE.llvm.8307592695728330639
   fun:__pthread_once_slow
   fun:UnknownInlinedFun
   fun:UnknownInlinedFun
   fun:UnknownInlinedFun
   fun:UnknownInlinedFun
   fun:_ZN4llvm17initializeCodeGenERNS_12PassRegistryE
   fun:_ZN4llvm16TargetPassConfigC1ERNS_17LLVMTargetMachineERNS_6legacy15PassManagerBaseE
   fun:AMDGPUPassConfig
   fun:GCNPassConfig
   fun:_ZN4llvm16GCNTargetMachine16createPassConfigERNS_6legacy15PassManagerBaseE
   fun:addPassesToGenerateCode
   fun:_ZN4llvm17LLVMTargetMachine19addPassesToEmitFileERNS_6legacy15PassManagerBaseERNS_17raw_pwrite_streamEPS4_NS_15CodeGenFileTypeEbPNS_28MachineModuleInfoWrapperPassE
   fun:ac_create_llvm_passes
   fun:si_init_compiler
   fun:radeonsi_screen_create_impl
   fun:amdgpu_winsys_create
}
{
   <insert_a_suppression_name_here>
   Memcheck:Leak
   match-leak-kinds: reachable
   fun:_Znwm
   fun:UnknownInlinedFun
   fun:UnknownInlinedFun
   fun:allocateWithKey<llvm::MallocAllocator>
   fun:Create<llvm::MallocAllocator>
   fun:try_emplace<>
   fun:operator[]
   fun:_ZN4llvm12PassRegistry12registerPassERKNS_8PassInfoEb
   fun:_ZL41initializeStripDebugMachineModulePassOnceRN4llvm12PassRegistryE.llvm.9186418010408454381
   fun:__pthread_once_slow
   fun:UnknownInlinedFun
   fun:UnknownInlinedFun
   fun:UnknownInlinedFun
   fun:UnknownInlinedFun
   fun:_ZN4llvm17initializeCodeGenERNS_12PassRegistryE
   fun:_ZN4llvm16TargetPassConfigC1ERNS_17LLVMTargetMachineERNS_6legacy15PassManagerBaseE
   fun:AMDGPUPassConfig
   fun:GCNPassConfig
   fun:_ZN4llvm16GCNTargetMachine16createPassConfigERNS_6legacy15PassManagerBaseE
   fun:addPassesToGenerateCode
   fun:_ZN4llvm17LLVMTargetMachine19addPassesToEmitFileERNS_6legacy15PassManagerBaseERNS_17raw_pwrite_streamEPS4_NS_15CodeGenFileTypeEbPNS_28MachineModuleInfoWrapperPassE
   fun:ac_create_llvm_passes
   fun:si_init_compiler
   fun:radeonsi_screen_create_impl
   fun:amdgpu_winsys_create
}
{
   <insert_a_suppression_name_here>
   Memcheck:Leak
   match-leak-kinds: reachable
   fun:_Znwm
   fun:UnknownInlinedFun
   fun:UnknownInlinedFun
   fun:allocateWithKey<llvm::MallocAllocator>
   fun:Create<llvm::MallocAllocator>
   fun:try_emplace<>
   fun:operator[]
   fun:_ZN4llvm12PassRegistry12registerPassERKNS_8PassInfoEb
   fun:_ZL31initializeTailDuplicatePassOnceRN4llvm12PassRegistryE.llvm.6350640386373628709
   fun:__pthread_once_slow
   fun:UnknownInlinedFun
   fun:UnknownInlinedFun
   fun:UnknownInlinedFun
   fun:UnknownInlinedFun
   fun:_ZN4llvm17initializeCodeGenERNS_12PassRegistryE
   fun:_ZN4llvm16TargetPassConfigC1ERNS_17LLVMTargetMachineERNS_6legacy15PassManagerBaseE
   fun:AMDGPUPassConfig
   fun:GCNPassConfig
   fun:_ZN4llvm16GCNTargetMachine16createPassConfigERNS_6legacy15PassManagerBaseE
   fun:addPassesToGenerateCode
   fun:_ZN4llvm17LLVMTargetMachine19addPassesToEmitFileERNS_6legacy15PassManagerBaseERNS_17raw_pwrite_streamEPS4_NS_15CodeGenFileTypeEbPNS_28MachineModuleInfoWrapperPassE
   fun:ac_create_llvm_passes
   fun:si_init_compiler
   fun:radeonsi_screen_create_impl
   fun:amdgpu_winsys_create
}
{
   <insert_a_suppression_name_here>
   Memcheck:Leak
   match-leak-kinds: reachable
   fun:_Znwm
   fun:UnknownInlinedFun
   fun:UnknownInlinedFun
   fun:allocateWithKey<llvm::MallocAllocator>
   fun:Create<llvm::MallocAllocator>
   fun:try_emplace<>
   fun:operator[]
   fun:_ZN4llvm12PassRegistry12registerPassERKNS_8PassInfoEb
   fun:_ZL33initializeVirtRegRewriterPassOnceRN4llvm12PassRegistryE.llvm.968923361984772655
   fun:__pthread_once_slow
   fun:UnknownInlinedFun
   fun:UnknownInlinedFun
   fun:UnknownInlinedFun
   fun:UnknownInlinedFun
   fun:_ZN4llvm17initializeCodeGenERNS_12PassRegistryE
   fun:_ZN4llvm16TargetPassConfigC1ERNS_17LLVMTargetMachineERNS_6legacy15PassManagerBaseE
   fun:AMDGPUPassConfig
   fun:GCNPassConfig
   fun:_ZN4llvm16GCNTargetMachine16createPassConfigERNS_6legacy15PassManagerBaseE
   fun:addPassesToGenerateCode
   fun:_ZN4llvm17LLVMTargetMachine19addPassesToEmitFileERNS_6legacy15PassManagerBaseERNS_17raw_pwrite_streamEPS4_NS_15CodeGenFileTypeEbPNS_28MachineModuleInfoWrapperPassE
   fun:ac_create_llvm_passes
   fun:si_init_compiler
   fun:radeonsi_screen_create_impl
   fun:amdgpu_winsys_create
}
{
   <insert_a_suppression_name_here>
   Memcheck:Leak
   match-leak-kinds: reachable
   fun:_Znwm
   fun:_ZN4llvm17PMTopLevelManager12schedulePassEPNS_4PassE
   fun:addPassesToGenerateCode
   fun:_ZN4llvm17LLVMTargetMachine19addPassesToEmitFileERNS_6legacy15PassManagerBaseERNS_17raw_pwrite_streamEPS4_NS_15CodeGenFileTypeEbPNS_28MachineModuleInfoWrapperPassE
   fun:ac_create_llvm_passes
   fun:si_init_compiler
   fun:radeonsi_screen_create_impl
   fun:amdgpu_winsys_create
   fun:radeonsi_screen_create
   fun:pipe_radeonsi_create_screen
   fun:pipe_loader_create_screen_vk
   fun:dri2_init_screen
   fun:driCreateNewScreen2
}
{
   <insert_a_suppression_name_here>
   Memcheck:Leak
   match-leak-kinds: reachable
   fun:_Znwm
   fun:UnknownInlinedFun
   fun:_ZN4llvm16TargetPassConfig13addISelPassesEv
   fun:addPassesToGenerateCode
   fun:_ZN4llvm17LLVMTargetMachine19addPassesToEmitFileERNS_6legacy15PassManagerBaseERNS_17raw_pwrite_streamEPS4_NS_15CodeGenFileTypeEbPNS_28MachineModuleInfoWrapperPassE
   fun:ac_create_llvm_passes
   fun:si_init_compiler
   fun:radeonsi_screen_create_impl
   fun:amdgpu_winsys_create
   fun:radeonsi_screen_create
   fun:pipe_radeonsi_create_screen
   fun:pipe_loader_create_screen_vk
   fun:dri2_init_screen
   fun:driCreateNewScreen2
}
{
   <insert_a_suppression_name_here>
   Memcheck:Leak
   match-leak-kinds: reachable
   fun:_Znwm
   fun:_ZN4llvm13PMDataManager3addEPNS_4PassEb
   fun:_ZN4llvm17PMTopLevelManager12schedulePassEPNS_4PassE
   fun:_ZN4llvm16TargetPassConfig7addPassEPNS_4PassE
   fun:_ZN4llvm16TargetPassConfig13addISelPassesEv
   fun:addPassesToGenerateCode
   fun:_ZN4llvm17LLVMTargetMachine19addPassesToEmitFileERNS_6legacy15PassManagerBaseERNS_17raw_pwrite_streamEPS4_NS_15CodeGenFileTypeEbPNS_28MachineModuleInfoWrapperPassE
   fun:ac_create_llvm_passes
   fun:si_init_compiler
   fun:radeonsi_screen_create_impl
   fun:amdgpu_winsys_create
   fun:radeonsi_screen_create
   fun:pipe_radeonsi_create_screen
}
{
   <insert_a_suppression_name_here>
   Memcheck:Leak
   match-leak-kinds: reachable
   fun:_Znwm
   fun:_ZN4llvm17PMTopLevelManager12schedulePassEPNS_4PassE
   fun:_ZN4llvm16TargetPassConfig13addISelPassesEv
   fun:addPassesToGenerateCode
   fun:_ZN4llvm17LLVMTargetMachine19addPassesToEmitFileERNS_6legacy15PassManagerBaseERNS_17raw_pwrite_streamEPS4_NS_15CodeGenFileTypeEbPNS_28MachineModuleInfoWrapperPassE
   fun:ac_create_llvm_passes
   fun:si_init_compiler
   fun:radeonsi_screen_create_impl
   fun:amdgpu_winsys_create
   fun:radeonsi_screen_create
   fun:pipe_radeonsi_create_screen
   fun:pipe_loader_create_screen_vk
   fun:dri2_init_screen
}
{
   <insert_a_suppression_name_here>
   Memcheck:Leak
   match-leak-kinds: reachable
   fun:_Znwm
   fun:_ZN4llvm32createAMDGPUPrintfRuntimeBindingEv
   fun:_ZN4llvm16AMDGPUPassConfig11addIRPassesEv
   fun:_ZN4llvm16TargetPassConfig13addISelPassesEv
   fun:addPassesToGenerateCode
   fun:_ZN4llvm17LLVMTargetMachine19addPassesToEmitFileERNS_6legacy15PassManagerBaseERNS_17raw_pwrite_streamEPS4_NS_15CodeGenFileTypeEbPNS_28MachineModuleInfoWrapperPassE
   fun:ac_create_llvm_passes
   fun:si_init_compiler
   fun:radeonsi_screen_create_impl
   fun:amdgpu_winsys_create
   fun:radeonsi_screen_create
   fun:pipe_radeonsi_create_screen
   fun:pipe_loader_create_screen_vk
}
{
   <insert_a_suppression_name_here>
   Memcheck:Leak
   match-leak-kinds: reachable
   fun:_Znwm
   fun:_ZN4llvm17PMTopLevelManager12schedulePassEPNS_4PassE
   fun:_ZN4llvm17PMTopLevelManager12schedulePassEPNS_4PassE
   fun:_ZN4llvm16TargetPassConfig7addPassEPNS_4PassE
   fun:_ZN4llvm16AMDGPUPassConfig11addIRPassesEv
   fun:_ZN4llvm16TargetPassConfig13addISelPassesEv
   fun:addPassesToGenerateCode
   fun:_ZN4llvm17LLVMTargetMachine19addPassesToEmitFileERNS_6legacy15PassManagerBaseERNS_17raw_pwrite_streamEPS4_NS_15CodeGenFileTypeEbPNS_28MachineModuleInfoWrapperPassE
   fun:ac_create_llvm_passes
   fun:si_init_compiler
   fun:radeonsi_screen_create_impl
   fun:amdgpu_winsys_create
   fun:radeonsi_screen_create
}
{
   <insert_a_suppression_name_here>
   Memcheck:Leak
   match-leak-kinds: reachable
   fun:_Znwm
   fun:_ZN4llvm13PMDataManager3addEPNS_4PassEb
   fun:_ZN4llvm17PMTopLevelManager12schedulePassEPNS_4PassE
   fun:_ZN4llvm16TargetPassConfig7addPassEPNS_4PassE
   fun:_ZN4llvm16AMDGPUPassConfig11addIRPassesEv
   fun:_ZN4llvm16TargetPassConfig13addISelPassesEv
   fun:addPassesToGenerateCode
   fun:_ZN4llvm17LLVMTargetMachine19addPassesToEmitFileERNS_6legacy15PassManagerBaseERNS_17raw_pwrite_streamEPS4_NS_15CodeGenFileTypeEbPNS_28MachineModuleInfoWrapperPassE
   fun:ac_create_llvm_passes
   fun:si_init_compiler
   fun:radeonsi_screen_create_impl
   fun:amdgpu_winsys_create
   fun:radeonsi_screen_create
}
{
   <insert_a_suppression_name_here>
   Memcheck:Leak
   match-leak-kinds: reachable
   fun:_Znwm
   fun:UnknownInlinedFun
   fun:_ZN4llvm16AMDGPUPassConfig11addIRPassesEv
   fun:_ZN4llvm16TargetPassConfig13addISelPassesEv
   fun:addPassesToGenerateCode
   fun:_ZN4llvm17LLVMTargetMachine19addPassesToEmitFileERNS_6legacy15PassManagerBaseERNS_17raw_pwrite_streamEPS4_NS_15CodeGenFileTypeEbPNS_28MachineModuleInfoWrapperPassE
   fun:ac_create_llvm_passes
   fun:si_init_compiler
   fun:radeonsi_screen_create_impl
   fun:amdgpu_winsys_create
   fun:radeonsi_screen_create
   fun:pipe_radeonsi_create_screen
   fun:pipe_loader_create_screen_vk
   fun:dri2_init_screen
}
{
   <insert_a_suppression_name_here>
   Memcheck:Leak
   match-leak-kinds: reachable
   fun:_Znwm
   fun:_ZN4llvm13PMDataManager3addEPNS_4PassEb
   fun:_ZN4llvm12FunctionPass17assignPassManagerERNS_7PMStackENS_15PassManagerTypeE
   fun:_ZN4llvm17PMTopLevelManager12schedulePassEPNS_4PassE
   fun:_ZN4llvm16TargetPassConfig7addPassEPNS_4PassE
   fun:_ZN4llvm16AMDGPUPassConfig11addIRPassesEv
   fun:_ZN4llvm16TargetPassConfig13addISelPassesEv
   fun:addPassesToGenerateCode
   fun:_ZN4llvm17LLVMTargetMachine19addPassesToEmitFileERNS_6legacy15PassManagerBaseERNS_17raw_pwrite_streamEPS4_NS_15CodeGenFileTypeEbPNS_28MachineModuleInfoWrapperPassE
   fun:ac_create_llvm_passes
   fun:si_init_compiler
   fun:radeonsi_screen_create_impl
   fun:amdgpu_winsys_create
}
{
   <insert_a_suppression_name_here>
   Memcheck:Leak
   match-leak-kinds: reachable
   fun:_Znwm
   fun:_ZN4llvm13PMDataManager3addEPNS_4PassEb
   fun:_ZN4llvm17PMTopLevelManager12schedulePassEPNS_4PassE
   fun:_ZN4llvm17PMTopLevelManager12schedulePassEPNS_4PassE
   fun:_ZN4llvm16TargetPassConfig7addPassEPNS_4PassE
   fun:_ZN4llvm16AMDGPUPassConfig11addIRPassesEv
   fun:_ZN4llvm16TargetPassConfig13addISelPassesEv
   fun:addPassesToGenerateCode
   fun:_ZN4llvm17LLVMTargetMachine19addPassesToEmitFileERNS_6legacy15PassManagerBaseERNS_17raw_pwrite_streamEPS4_NS_15CodeGenFileTypeEbPNS_28MachineModuleInfoWrapperPassE
   fun:ac_create_llvm_passes
   fun:si_init_compiler
   fun:radeonsi_screen_create_impl
   fun:amdgpu_winsys_create
}
{
   <insert_a_suppression_name_here>
   Memcheck:Leak
   match-leak-kinds: reachable
   fun:_Znwm
   fun:_ZN4llvm13PMDataManager3addEPNS_4PassEb
   fun:_ZN4llvm17PMTopLevelManager12schedulePassEPNS_4PassE
   fun:_ZN4llvm16CallGraphSCCPass17assignPassManagerERNS_7PMStackENS_15PassManagerTypeE
   fun:_ZN4llvm17PMTopLevelManager12schedulePassEPNS_4PassE
   fun:_ZN4llvm16TargetPassConfig7addPassEPNS_4PassE
   fun:_ZN4llvm16AMDGPUPassConfig11addIRPassesEv
   fun:_ZN4llvm16TargetPassConfig13addISelPassesEv
   fun:addPassesToGenerateCode
   fun:_ZN4llvm17LLVMTargetMachine19addPassesToEmitFileERNS_6legacy15PassManagerBaseERNS_17raw_pwrite_streamEPS4_NS_15CodeGenFileTypeEbPNS_28MachineModuleInfoWrapperPassE
   fun:ac_create_llvm_passes
   fun:si_init_compiler
   fun:radeonsi_screen_create_impl
}
{
   <insert_a_suppression_name_here>
   Memcheck:Leak
   match-leak-kinds: reachable
   fun:_Znwm
   fun:_ZN4llvm21createBarrierNoopPassEv
   fun:_ZN4llvm16AMDGPUPassConfig11addIRPassesEv
   fun:_ZN4llvm16TargetPassConfig13addISelPassesEv
   fun:addPassesToGenerateCode
   fun:_ZN4llvm17LLVMTargetMachine19addPassesToEmitFileERNS_6legacy15PassManagerBaseERNS_17raw_pwrite_streamEPS4_NS_15CodeGenFileTypeEbPNS_28MachineModuleInfoWrapperPassE
   fun:ac_create_llvm_passes
   fun:si_init_compiler
   fun:radeonsi_screen_create_impl
   fun:amdgpu_winsys_create
   fun:radeonsi_screen_create
   fun:pipe_radeonsi_create_screen
   fun:pipe_loader_create_screen_vk
}
{
   <insert_a_suppression_name_here>
   Memcheck:Leak
   match-leak-kinds: reachable
   fun:_Znwm
   fun:_ZN4llvm30createAMDGPULowerModuleLDSPassEv
   fun:_ZN4llvm16AMDGPUPassConfig11addIRPassesEv
   fun:_ZN4llvm16TargetPassConfig13addISelPassesEv
   fun:addPassesToGenerateCode
   fun:_ZN4llvm17LLVMTargetMachine19addPassesToEmitFileERNS_6legacy15PassManagerBaseERNS_17raw_pwrite_streamEPS4_NS_15CodeGenFileTypeEbPNS_28MachineModuleInfoWrapperPassE
   fun:ac_create_llvm_passes
   fun:si_init_compiler
   fun:radeonsi_screen_create_impl
   fun:amdgpu_winsys_create
   fun:radeonsi_screen_create
   fun:pipe_radeonsi_create_screen
   fun:pipe_loader_create_screen_vk
}
{
   <insert_a_suppression_name_here>
   Memcheck:Leak
   match-leak-kinds: reachable
   fun:_Znwm
   fun:_ZN4llvm15callDefaultCtorIN12_GLOBAL__N_112LoopSimplifyEEEPNS_4PassEv
   fun:createPass
   fun:_ZN4llvm17PMTopLevelManager12schedulePassEPNS_4PassE
   fun:_ZN4llvm16TargetPassConfig7addPassEPNS_4PassE
   fun:addStraightLineScalarOptimizationPasses
   fun:_ZN4llvm16AMDGPUPassConfig11addIRPassesEv
   fun:_ZN4llvm16TargetPassConfig13addISelPassesEv
   fun:addPassesToGenerateCode
   fun:_ZN4llvm17LLVMTargetMachine19addPassesToEmitFileERNS_6legacy15PassManagerBaseERNS_17raw_pwrite_streamEPS4_NS_15CodeGenFileTypeEbPNS_28MachineModuleInfoWrapperPassE
   fun:ac_create_llvm_passes
   fun:si_init_compiler
   fun:radeonsi_screen_create_impl
   fun:amdgpu_winsys_create
   fun:radeonsi_screen_create
}
{
   <insert_a_suppression_name_here>
   Memcheck:Leak
   match-leak-kinds: reachable
   fun:_Znwm
   fun:_ZN4llvm15callDefaultCtorINS_21LCSSAVerificationPassEEEPNS_4PassEv
   fun:createPass
   fun:_ZN4llvm17PMTopLevelManager12schedulePassEPNS_4PassE
   fun:_ZN4llvm17PMTopLevelManager12schedulePassEPNS_4PassE
   fun:_ZN4llvm16TargetPassConfig7addPassEPNS_4PassE
   fun:addStraightLineScalarOptimizationPasses
   fun:_ZN4llvm16AMDGPUPassConfig11addIRPassesEv
   fun:_ZN4llvm16TargetPassConfig13addISelPassesEv
   fun:addPassesToGenerateCode
   fun:_ZN4llvm17LLVMTargetMachine19addPassesToEmitFileERNS_6legacy15PassManagerBaseERNS_17raw_pwrite_streamEPS4_NS_15CodeGenFileTypeEbPNS_28MachineModuleInfoWrapperPassE
   fun:ac_create_llvm_passes
   fun:si_init_compiler
   fun:radeonsi_screen_create_impl
